
zephyr.elf:     file format elf32-littlearm


Disassembly of section rom_start:

00000000 <_vector_start>:
#include <syscalls/z_errno_mrsh.c>

#else
int *z_impl_z_errno(void)
{
	return &_current->errno_var;
   0:	200015a0 	.word	0x200015a0
}
   4:	00003b05 	.word	0x00003b05
   8:	00008801 	.word	0x00008801
   c:	00003b35 	.word	0x00003b35
  10:	00003b35 	.word	0x00003b35
  14:	00003b35 	.word	0x00003b35
  18:	00003b35 	.word	0x00003b35
	...
  2c:	000038d9 	.word	0x000038d9
  30:	00003b35 	.word	0x00003b35
  34:	00000000 	.word	0x00000000
  38:	00003891 	.word	0x00003891
  3c:	00008739 	.word	0x00008739

00000040 <_irq_vector_table>:
  40:	00003ac5 00003ac5 00003ac5 00003ac5     .:...:...:...:..
  50:	00003ac5 00003ac5 00003ac5 00003ac5     .:...:...:...:..
  60:	00003ac5 00003ac5 00003ac5 00003ac5     .:...:...:...:..
  70:	00003ac5 00003ac5 00003ac5 00003ac5     .:...:...:...:..
  80:	00003ac5 00003ac5 00003ac5 00003ac5     .:...:...:...:..
  90:	00003ac5 00003ac5 00003ac5 00003ac5     .:...:...:...:..
  a0:	00003ac5 00003ac5 00003ac5 00003ac5     .:...:...:...:..
  b0:	00003ac5 00003ac5 00003ac5 00003ac5     .:...:...:...:..
  c0:	00003ac5 00003ac5 00003ac5 00003ac5     .:...:...:...:..
  d0:	00003ac5 00003ac5 00003ac5 00003ac5     .:...:...:...:..
  e0:	00003ac5 00003ac5 00003ac5 00003ac5     .:...:...:...:..
  f0:	00003ac5 00003ac5 00003ac5 00003ac5     .:...:...:...:..

Disassembly of section text:

00000100 <__aeabi_drsub>:
     100:	f081 4100 	eor.w	r1, r1, #2147483648	; 0x80000000
     104:	e002      	b.n	10c <__adddf3>
     106:	bf00      	nop

00000108 <__aeabi_dsub>:
     108:	f083 4300 	eor.w	r3, r3, #2147483648	; 0x80000000

0000010c <__adddf3>:
     10c:	b530      	push	{r4, r5, lr}
     10e:	ea4f 0441 	mov.w	r4, r1, lsl #1
     112:	ea4f 0543 	mov.w	r5, r3, lsl #1
     116:	ea94 0f05 	teq	r4, r5
     11a:	bf08      	it	eq
     11c:	ea90 0f02 	teqeq	r0, r2
     120:	bf1f      	itttt	ne
     122:	ea54 0c00 	orrsne.w	ip, r4, r0
     126:	ea55 0c02 	orrsne.w	ip, r5, r2
     12a:	ea7f 5c64 	mvnsne.w	ip, r4, asr #21
     12e:	ea7f 5c65 	mvnsne.w	ip, r5, asr #21
     132:	f000 80e2 	beq.w	2fa <CONFIG_IDLE_STACK_SIZE+0x1ba>
     136:	ea4f 5454 	mov.w	r4, r4, lsr #21
     13a:	ebd4 5555 	rsbs	r5, r4, r5, lsr #21
     13e:	bfb8      	it	lt
     140:	426d      	neglt	r5, r5
     142:	dd0c      	ble.n	15e <CONFIG_IDLE_STACK_SIZE+0x1e>
     144:	442c      	add	r4, r5
     146:	ea80 0202 	eor.w	r2, r0, r2
     14a:	ea81 0303 	eor.w	r3, r1, r3
     14e:	ea82 0000 	eor.w	r0, r2, r0
     152:	ea83 0101 	eor.w	r1, r3, r1
     156:	ea80 0202 	eor.w	r2, r0, r2
     15a:	ea81 0303 	eor.w	r3, r1, r3
     15e:	2d36      	cmp	r5, #54	; 0x36
     160:	bf88      	it	hi
     162:	bd30      	pophi	{r4, r5, pc}
     164:	f011 4f00 	tst.w	r1, #2147483648	; 0x80000000
     168:	ea4f 3101 	mov.w	r1, r1, lsl #12
     16c:	f44f 1c80 	mov.w	ip, #1048576	; 0x100000
     170:	ea4c 3111 	orr.w	r1, ip, r1, lsr #12
     174:	d002      	beq.n	17c <CONFIG_IDLE_STACK_SIZE+0x3c>
     176:	4240      	negs	r0, r0
     178:	eb61 0141 	sbc.w	r1, r1, r1, lsl #1
     17c:	f013 4f00 	tst.w	r3, #2147483648	; 0x80000000
     180:	ea4f 3303 	mov.w	r3, r3, lsl #12
     184:	ea4c 3313 	orr.w	r3, ip, r3, lsr #12
     188:	d002      	beq.n	190 <CONFIG_IDLE_STACK_SIZE+0x50>
     18a:	4252      	negs	r2, r2
     18c:	eb63 0343 	sbc.w	r3, r3, r3, lsl #1
     190:	ea94 0f05 	teq	r4, r5
     194:	f000 80a7 	beq.w	2e6 <CONFIG_IDLE_STACK_SIZE+0x1a6>
     198:	f1a4 0401 	sub.w	r4, r4, #1
     19c:	f1d5 0e20 	rsbs	lr, r5, #32
     1a0:	db0d      	blt.n	1be <CONFIG_IDLE_STACK_SIZE+0x7e>
     1a2:	fa02 fc0e 	lsl.w	ip, r2, lr
     1a6:	fa22 f205 	lsr.w	r2, r2, r5
     1aa:	1880      	adds	r0, r0, r2
     1ac:	f141 0100 	adc.w	r1, r1, #0
     1b0:	fa03 f20e 	lsl.w	r2, r3, lr
     1b4:	1880      	adds	r0, r0, r2
     1b6:	fa43 f305 	asr.w	r3, r3, r5
     1ba:	4159      	adcs	r1, r3
     1bc:	e00e      	b.n	1dc <CONFIG_IDLE_STACK_SIZE+0x9c>
     1be:	f1a5 0520 	sub.w	r5, r5, #32
     1c2:	f10e 0e20 	add.w	lr, lr, #32
     1c6:	2a01      	cmp	r2, #1
     1c8:	fa03 fc0e 	lsl.w	ip, r3, lr
     1cc:	bf28      	it	cs
     1ce:	f04c 0c02 	orrcs.w	ip, ip, #2
     1d2:	fa43 f305 	asr.w	r3, r3, r5
     1d6:	18c0      	adds	r0, r0, r3
     1d8:	eb51 71e3 	adcs.w	r1, r1, r3, asr #31
     1dc:	f001 4500 	and.w	r5, r1, #2147483648	; 0x80000000
     1e0:	d507      	bpl.n	1f2 <CONFIG_IDLE_STACK_SIZE+0xb2>
     1e2:	f04f 0e00 	mov.w	lr, #0
     1e6:	f1dc 0c00 	rsbs	ip, ip, #0
     1ea:	eb7e 0000 	sbcs.w	r0, lr, r0
     1ee:	eb6e 0101 	sbc.w	r1, lr, r1
     1f2:	f5b1 1f80 	cmp.w	r1, #1048576	; 0x100000
     1f6:	d31b      	bcc.n	230 <CONFIG_IDLE_STACK_SIZE+0xf0>
     1f8:	f5b1 1f00 	cmp.w	r1, #2097152	; 0x200000
     1fc:	d30c      	bcc.n	218 <CONFIG_IDLE_STACK_SIZE+0xd8>
     1fe:	0849      	lsrs	r1, r1, #1
     200:	ea5f 0030 	movs.w	r0, r0, rrx
     204:	ea4f 0c3c 	mov.w	ip, ip, rrx
     208:	f104 0401 	add.w	r4, r4, #1
     20c:	ea4f 5244 	mov.w	r2, r4, lsl #21
     210:	f512 0f80 	cmn.w	r2, #4194304	; 0x400000
     214:	f080 809a 	bcs.w	34c <CONFIG_LOG_PROCESS_THREAD_STACK_SIZE+0x4c>
     218:	f1bc 4f00 	cmp.w	ip, #2147483648	; 0x80000000
     21c:	bf08      	it	eq
     21e:	ea5f 0c50 	movseq.w	ip, r0, lsr #1
     222:	f150 0000 	adcs.w	r0, r0, #0
     226:	eb41 5104 	adc.w	r1, r1, r4, lsl #20
     22a:	ea41 0105 	orr.w	r1, r1, r5
     22e:	bd30      	pop	{r4, r5, pc}
     230:	ea5f 0c4c 	movs.w	ip, ip, lsl #1
     234:	4140      	adcs	r0, r0
     236:	eb41 0101 	adc.w	r1, r1, r1
     23a:	3c01      	subs	r4, #1
     23c:	bf28      	it	cs
     23e:	f5b1 1f80 	cmpcs.w	r1, #1048576	; 0x100000
     242:	d2e9      	bcs.n	218 <CONFIG_IDLE_STACK_SIZE+0xd8>
     244:	f091 0f00 	teq	r1, #0
     248:	bf04      	itt	eq
     24a:	4601      	moveq	r1, r0
     24c:	2000      	moveq	r0, #0
     24e:	fab1 f381 	clz	r3, r1
     252:	bf08      	it	eq
     254:	3320      	addeq	r3, #32
     256:	f1a3 030b 	sub.w	r3, r3, #11
     25a:	f1b3 0220 	subs.w	r2, r3, #32
     25e:	da0c      	bge.n	27a <CONFIG_IDLE_STACK_SIZE+0x13a>
     260:	320c      	adds	r2, #12
     262:	dd08      	ble.n	276 <CONFIG_IDLE_STACK_SIZE+0x136>
     264:	f102 0c14 	add.w	ip, r2, #20
     268:	f1c2 020c 	rsb	r2, r2, #12
     26c:	fa01 f00c 	lsl.w	r0, r1, ip
     270:	fa21 f102 	lsr.w	r1, r1, r2
     274:	e00c      	b.n	290 <CONFIG_IDLE_STACK_SIZE+0x150>
     276:	f102 0214 	add.w	r2, r2, #20
     27a:	bfd8      	it	le
     27c:	f1c2 0c20 	rsble	ip, r2, #32
     280:	fa01 f102 	lsl.w	r1, r1, r2
     284:	fa20 fc0c 	lsr.w	ip, r0, ip
     288:	bfdc      	itt	le
     28a:	ea41 010c 	orrle.w	r1, r1, ip
     28e:	4090      	lslle	r0, r2
     290:	1ae4      	subs	r4, r4, r3
     292:	bfa2      	ittt	ge
     294:	eb01 5104 	addge.w	r1, r1, r4, lsl #20
     298:	4329      	orrge	r1, r5
     29a:	bd30      	popge	{r4, r5, pc}
     29c:	ea6f 0404 	mvn.w	r4, r4
     2a0:	3c1f      	subs	r4, #31
     2a2:	da1c      	bge.n	2de <CONFIG_IDLE_STACK_SIZE+0x19e>
     2a4:	340c      	adds	r4, #12
     2a6:	dc0e      	bgt.n	2c6 <CONFIG_IDLE_STACK_SIZE+0x186>
     2a8:	f104 0414 	add.w	r4, r4, #20
     2ac:	f1c4 0220 	rsb	r2, r4, #32
     2b0:	fa20 f004 	lsr.w	r0, r0, r4
     2b4:	fa01 f302 	lsl.w	r3, r1, r2
     2b8:	ea40 0003 	orr.w	r0, r0, r3
     2bc:	fa21 f304 	lsr.w	r3, r1, r4
     2c0:	ea45 0103 	orr.w	r1, r5, r3
     2c4:	bd30      	pop	{r4, r5, pc}
     2c6:	f1c4 040c 	rsb	r4, r4, #12
     2ca:	f1c4 0220 	rsb	r2, r4, #32
     2ce:	fa20 f002 	lsr.w	r0, r0, r2
     2d2:	fa01 f304 	lsl.w	r3, r1, r4
     2d6:	ea40 0003 	orr.w	r0, r0, r3
     2da:	4629      	mov	r1, r5
     2dc:	bd30      	pop	{r4, r5, pc}
     2de:	fa21 f004 	lsr.w	r0, r1, r4
     2e2:	4629      	mov	r1, r5
     2e4:	bd30      	pop	{r4, r5, pc}
     2e6:	f094 0f00 	teq	r4, #0
     2ea:	f483 1380 	eor.w	r3, r3, #1048576	; 0x100000
     2ee:	bf06      	itte	eq
     2f0:	f481 1180 	eoreq.w	r1, r1, #1048576	; 0x100000
     2f4:	3401      	addeq	r4, #1
     2f6:	3d01      	subne	r5, #1
     2f8:	e74e      	b.n	198 <CONFIG_IDLE_STACK_SIZE+0x58>
     2fa:	ea7f 5c64 	mvns.w	ip, r4, asr #21
     2fe:	bf18      	it	ne
     300:	ea7f 5c65 	mvnsne.w	ip, r5, asr #21
     304:	d029      	beq.n	35a <CONFIG_LOG_PROCESS_THREAD_STACK_SIZE+0x5a>
     306:	ea94 0f05 	teq	r4, r5
     30a:	bf08      	it	eq
     30c:	ea90 0f02 	teqeq	r0, r2
     310:	d005      	beq.n	31e <CONFIG_LOG_PROCESS_THREAD_STACK_SIZE+0x1e>
     312:	ea54 0c00 	orrs.w	ip, r4, r0
     316:	bf04      	itt	eq
     318:	4619      	moveq	r1, r3
     31a:	4610      	moveq	r0, r2
     31c:	bd30      	pop	{r4, r5, pc}
     31e:	ea91 0f03 	teq	r1, r3
     322:	bf1e      	ittt	ne
     324:	2100      	movne	r1, #0
     326:	2000      	movne	r0, #0
     328:	bd30      	popne	{r4, r5, pc}
     32a:	ea5f 5c54 	movs.w	ip, r4, lsr #21
     32e:	d105      	bne.n	33c <CONFIG_LOG_PROCESS_THREAD_STACK_SIZE+0x3c>
     330:	0040      	lsls	r0, r0, #1
     332:	4149      	adcs	r1, r1
     334:	bf28      	it	cs
     336:	f041 4100 	orrcs.w	r1, r1, #2147483648	; 0x80000000
     33a:	bd30      	pop	{r4, r5, pc}
     33c:	f514 0480 	adds.w	r4, r4, #4194304	; 0x400000
     340:	bf3c      	itt	cc
     342:	f501 1180 	addcc.w	r1, r1, #1048576	; 0x100000
     346:	bd30      	popcc	{r4, r5, pc}
     348:	f001 4500 	and.w	r5, r1, #2147483648	; 0x80000000
     34c:	f045 41fe 	orr.w	r1, r5, #2130706432	; 0x7f000000
     350:	f441 0170 	orr.w	r1, r1, #15728640	; 0xf00000
     354:	f04f 0000 	mov.w	r0, #0
     358:	bd30      	pop	{r4, r5, pc}
     35a:	ea7f 5c64 	mvns.w	ip, r4, asr #21
     35e:	bf1a      	itte	ne
     360:	4619      	movne	r1, r3
     362:	4610      	movne	r0, r2
     364:	ea7f 5c65 	mvnseq.w	ip, r5, asr #21
     368:	bf1c      	itt	ne
     36a:	460b      	movne	r3, r1
     36c:	4602      	movne	r2, r0
     36e:	ea50 3401 	orrs.w	r4, r0, r1, lsl #12
     372:	bf06      	itte	eq
     374:	ea52 3503 	orrseq.w	r5, r2, r3, lsl #12
     378:	ea91 0f03 	teqeq	r1, r3
     37c:	f441 2100 	orrne.w	r1, r1, #524288	; 0x80000
     380:	bd30      	pop	{r4, r5, pc}
     382:	bf00      	nop

00000384 <__aeabi_ui2d>:
     384:	f090 0f00 	teq	r0, #0
     388:	bf04      	itt	eq
     38a:	2100      	moveq	r1, #0
     38c:	4770      	bxeq	lr
     38e:	b530      	push	{r4, r5, lr}
     390:	f44f 6480 	mov.w	r4, #1024	; 0x400
     394:	f104 0432 	add.w	r4, r4, #50	; 0x32
     398:	f04f 0500 	mov.w	r5, #0
     39c:	f04f 0100 	mov.w	r1, #0
     3a0:	e750      	b.n	244 <CONFIG_IDLE_STACK_SIZE+0x104>
     3a2:	bf00      	nop

000003a4 <__aeabi_i2d>:
     3a4:	f090 0f00 	teq	r0, #0
     3a8:	bf04      	itt	eq
     3aa:	2100      	moveq	r1, #0
     3ac:	4770      	bxeq	lr
     3ae:	b530      	push	{r4, r5, lr}
     3b0:	f44f 6480 	mov.w	r4, #1024	; 0x400
     3b4:	f104 0432 	add.w	r4, r4, #50	; 0x32
     3b8:	f010 4500 	ands.w	r5, r0, #2147483648	; 0x80000000
     3bc:	bf48      	it	mi
     3be:	4240      	negmi	r0, r0
     3c0:	f04f 0100 	mov.w	r1, #0
     3c4:	e73e      	b.n	244 <CONFIG_IDLE_STACK_SIZE+0x104>
     3c6:	bf00      	nop

000003c8 <__aeabi_f2d>:
     3c8:	0042      	lsls	r2, r0, #1
     3ca:	ea4f 01e2 	mov.w	r1, r2, asr #3
     3ce:	ea4f 0131 	mov.w	r1, r1, rrx
     3d2:	ea4f 7002 	mov.w	r0, r2, lsl #28
     3d6:	bf1f      	itttt	ne
     3d8:	f012 437f 	andsne.w	r3, r2, #4278190080	; 0xff000000
     3dc:	f093 4f7f 	teqne	r3, #4278190080	; 0xff000000
     3e0:	f081 5160 	eorne.w	r1, r1, #939524096	; 0x38000000
     3e4:	4770      	bxne	lr
     3e6:	f032 427f 	bics.w	r2, r2, #4278190080	; 0xff000000
     3ea:	bf08      	it	eq
     3ec:	4770      	bxeq	lr
     3ee:	f093 4f7f 	teq	r3, #4278190080	; 0xff000000
     3f2:	bf04      	itt	eq
     3f4:	f441 2100 	orreq.w	r1, r1, #524288	; 0x80000
     3f8:	4770      	bxeq	lr
     3fa:	b530      	push	{r4, r5, lr}
     3fc:	f44f 7460 	mov.w	r4, #896	; 0x380
     400:	f001 4500 	and.w	r5, r1, #2147483648	; 0x80000000
     404:	f021 4100 	bic.w	r1, r1, #2147483648	; 0x80000000
     408:	e71c      	b.n	244 <CONFIG_IDLE_STACK_SIZE+0x104>
     40a:	bf00      	nop

0000040c <__aeabi_ul2d>:
     40c:	ea50 0201 	orrs.w	r2, r0, r1
     410:	bf08      	it	eq
     412:	4770      	bxeq	lr
     414:	b530      	push	{r4, r5, lr}
     416:	f04f 0500 	mov.w	r5, #0
     41a:	e00a      	b.n	432 <__aeabi_l2d+0x16>

0000041c <__aeabi_l2d>:
     41c:	ea50 0201 	orrs.w	r2, r0, r1
     420:	bf08      	it	eq
     422:	4770      	bxeq	lr
     424:	b530      	push	{r4, r5, lr}
     426:	f011 4500 	ands.w	r5, r1, #2147483648	; 0x80000000
     42a:	d502      	bpl.n	432 <__aeabi_l2d+0x16>
     42c:	4240      	negs	r0, r0
     42e:	eb61 0141 	sbc.w	r1, r1, r1, lsl #1
     432:	f44f 6480 	mov.w	r4, #1024	; 0x400
     436:	f104 0432 	add.w	r4, r4, #50	; 0x32
     43a:	ea5f 5c91 	movs.w	ip, r1, lsr #22
     43e:	f43f aed8 	beq.w	1f2 <CONFIG_IDLE_STACK_SIZE+0xb2>
     442:	f04f 0203 	mov.w	r2, #3
     446:	ea5f 0cdc 	movs.w	ip, ip, lsr #3
     44a:	bf18      	it	ne
     44c:	3203      	addne	r2, #3
     44e:	ea5f 0cdc 	movs.w	ip, ip, lsr #3
     452:	bf18      	it	ne
     454:	3203      	addne	r2, #3
     456:	eb02 02dc 	add.w	r2, r2, ip, lsr #3
     45a:	f1c2 0320 	rsb	r3, r2, #32
     45e:	fa00 fc03 	lsl.w	ip, r0, r3
     462:	fa20 f002 	lsr.w	r0, r0, r2
     466:	fa01 fe03 	lsl.w	lr, r1, r3
     46a:	ea40 000e 	orr.w	r0, r0, lr
     46e:	fa21 f102 	lsr.w	r1, r1, r2
     472:	4414      	add	r4, r2
     474:	e6bd      	b.n	1f2 <CONFIG_IDLE_STACK_SIZE+0xb2>
     476:	bf00      	nop

00000478 <__aeabi_dmul>:
     478:	b570      	push	{r4, r5, r6, lr}
     47a:	f04f 0cff 	mov.w	ip, #255	; 0xff
     47e:	f44c 6ce0 	orr.w	ip, ip, #1792	; 0x700
     482:	ea1c 5411 	ands.w	r4, ip, r1, lsr #20
     486:	bf1d      	ittte	ne
     488:	ea1c 5513 	andsne.w	r5, ip, r3, lsr #20
     48c:	ea94 0f0c 	teqne	r4, ip
     490:	ea95 0f0c 	teqne	r5, ip
     494:	f000 f8de 	bleq	654 <__aeabi_dmul+0x1dc>
     498:	442c      	add	r4, r5
     49a:	ea81 0603 	eor.w	r6, r1, r3
     49e:	ea21 514c 	bic.w	r1, r1, ip, lsl #21
     4a2:	ea23 534c 	bic.w	r3, r3, ip, lsl #21
     4a6:	ea50 3501 	orrs.w	r5, r0, r1, lsl #12
     4aa:	bf18      	it	ne
     4ac:	ea52 3503 	orrsne.w	r5, r2, r3, lsl #12
     4b0:	f441 1180 	orr.w	r1, r1, #1048576	; 0x100000
     4b4:	f443 1380 	orr.w	r3, r3, #1048576	; 0x100000
     4b8:	d038      	beq.n	52c <__aeabi_dmul+0xb4>
     4ba:	fba0 ce02 	umull	ip, lr, r0, r2
     4be:	f04f 0500 	mov.w	r5, #0
     4c2:	fbe1 e502 	umlal	lr, r5, r1, r2
     4c6:	f006 4200 	and.w	r2, r6, #2147483648	; 0x80000000
     4ca:	fbe0 e503 	umlal	lr, r5, r0, r3
     4ce:	f04f 0600 	mov.w	r6, #0
     4d2:	fbe1 5603 	umlal	r5, r6, r1, r3
     4d6:	f09c 0f00 	teq	ip, #0
     4da:	bf18      	it	ne
     4dc:	f04e 0e01 	orrne.w	lr, lr, #1
     4e0:	f1a4 04ff 	sub.w	r4, r4, #255	; 0xff
     4e4:	f5b6 7f00 	cmp.w	r6, #512	; 0x200
     4e8:	f564 7440 	sbc.w	r4, r4, #768	; 0x300
     4ec:	d204      	bcs.n	4f8 <__aeabi_dmul+0x80>
     4ee:	ea5f 0e4e 	movs.w	lr, lr, lsl #1
     4f2:	416d      	adcs	r5, r5
     4f4:	eb46 0606 	adc.w	r6, r6, r6
     4f8:	ea42 21c6 	orr.w	r1, r2, r6, lsl #11
     4fc:	ea41 5155 	orr.w	r1, r1, r5, lsr #21
     500:	ea4f 20c5 	mov.w	r0, r5, lsl #11
     504:	ea40 505e 	orr.w	r0, r0, lr, lsr #21
     508:	ea4f 2ece 	mov.w	lr, lr, lsl #11
     50c:	f1b4 0cfd 	subs.w	ip, r4, #253	; 0xfd
     510:	bf88      	it	hi
     512:	f5bc 6fe0 	cmphi.w	ip, #1792	; 0x700
     516:	d81e      	bhi.n	556 <__aeabi_dmul+0xde>
     518:	f1be 4f00 	cmp.w	lr, #2147483648	; 0x80000000
     51c:	bf08      	it	eq
     51e:	ea5f 0e50 	movseq.w	lr, r0, lsr #1
     522:	f150 0000 	adcs.w	r0, r0, #0
     526:	eb41 5104 	adc.w	r1, r1, r4, lsl #20
     52a:	bd70      	pop	{r4, r5, r6, pc}
     52c:	f006 4600 	and.w	r6, r6, #2147483648	; 0x80000000
     530:	ea46 0101 	orr.w	r1, r6, r1
     534:	ea40 0002 	orr.w	r0, r0, r2
     538:	ea81 0103 	eor.w	r1, r1, r3
     53c:	ebb4 045c 	subs.w	r4, r4, ip, lsr #1
     540:	bfc2      	ittt	gt
     542:	ebd4 050c 	rsbsgt	r5, r4, ip
     546:	ea41 5104 	orrgt.w	r1, r1, r4, lsl #20
     54a:	bd70      	popgt	{r4, r5, r6, pc}
     54c:	f441 1180 	orr.w	r1, r1, #1048576	; 0x100000
     550:	f04f 0e00 	mov.w	lr, #0
     554:	3c01      	subs	r4, #1
     556:	f300 80ab 	bgt.w	6b0 <__aeabi_dmul+0x238>
     55a:	f114 0f36 	cmn.w	r4, #54	; 0x36
     55e:	bfde      	ittt	le
     560:	2000      	movle	r0, #0
     562:	f001 4100 	andle.w	r1, r1, #2147483648	; 0x80000000
     566:	bd70      	pople	{r4, r5, r6, pc}
     568:	f1c4 0400 	rsb	r4, r4, #0
     56c:	3c20      	subs	r4, #32
     56e:	da35      	bge.n	5dc <__aeabi_dmul+0x164>
     570:	340c      	adds	r4, #12
     572:	dc1b      	bgt.n	5ac <__aeabi_dmul+0x134>
     574:	f104 0414 	add.w	r4, r4, #20
     578:	f1c4 0520 	rsb	r5, r4, #32
     57c:	fa00 f305 	lsl.w	r3, r0, r5
     580:	fa20 f004 	lsr.w	r0, r0, r4
     584:	fa01 f205 	lsl.w	r2, r1, r5
     588:	ea40 0002 	orr.w	r0, r0, r2
     58c:	f001 4200 	and.w	r2, r1, #2147483648	; 0x80000000
     590:	f021 4100 	bic.w	r1, r1, #2147483648	; 0x80000000
     594:	eb10 70d3 	adds.w	r0, r0, r3, lsr #31
     598:	fa21 f604 	lsr.w	r6, r1, r4
     59c:	eb42 0106 	adc.w	r1, r2, r6
     5a0:	ea5e 0e43 	orrs.w	lr, lr, r3, lsl #1
     5a4:	bf08      	it	eq
     5a6:	ea20 70d3 	biceq.w	r0, r0, r3, lsr #31
     5aa:	bd70      	pop	{r4, r5, r6, pc}
     5ac:	f1c4 040c 	rsb	r4, r4, #12
     5b0:	f1c4 0520 	rsb	r5, r4, #32
     5b4:	fa00 f304 	lsl.w	r3, r0, r4
     5b8:	fa20 f005 	lsr.w	r0, r0, r5
     5bc:	fa01 f204 	lsl.w	r2, r1, r4
     5c0:	ea40 0002 	orr.w	r0, r0, r2
     5c4:	f001 4100 	and.w	r1, r1, #2147483648	; 0x80000000
     5c8:	eb10 70d3 	adds.w	r0, r0, r3, lsr #31
     5cc:	f141 0100 	adc.w	r1, r1, #0
     5d0:	ea5e 0e43 	orrs.w	lr, lr, r3, lsl #1
     5d4:	bf08      	it	eq
     5d6:	ea20 70d3 	biceq.w	r0, r0, r3, lsr #31
     5da:	bd70      	pop	{r4, r5, r6, pc}
     5dc:	f1c4 0520 	rsb	r5, r4, #32
     5e0:	fa00 f205 	lsl.w	r2, r0, r5
     5e4:	ea4e 0e02 	orr.w	lr, lr, r2
     5e8:	fa20 f304 	lsr.w	r3, r0, r4
     5ec:	fa01 f205 	lsl.w	r2, r1, r5
     5f0:	ea43 0302 	orr.w	r3, r3, r2
     5f4:	fa21 f004 	lsr.w	r0, r1, r4
     5f8:	f001 4100 	and.w	r1, r1, #2147483648	; 0x80000000
     5fc:	fa21 f204 	lsr.w	r2, r1, r4
     600:	ea20 0002 	bic.w	r0, r0, r2
     604:	eb00 70d3 	add.w	r0, r0, r3, lsr #31
     608:	ea5e 0e43 	orrs.w	lr, lr, r3, lsl #1
     60c:	bf08      	it	eq
     60e:	ea20 70d3 	biceq.w	r0, r0, r3, lsr #31
     612:	bd70      	pop	{r4, r5, r6, pc}
     614:	f094 0f00 	teq	r4, #0
     618:	d10f      	bne.n	63a <__aeabi_dmul+0x1c2>
     61a:	f001 4600 	and.w	r6, r1, #2147483648	; 0x80000000
     61e:	0040      	lsls	r0, r0, #1
     620:	eb41 0101 	adc.w	r1, r1, r1
     624:	f411 1f80 	tst.w	r1, #1048576	; 0x100000
     628:	bf08      	it	eq
     62a:	3c01      	subeq	r4, #1
     62c:	d0f7      	beq.n	61e <__aeabi_dmul+0x1a6>
     62e:	ea41 0106 	orr.w	r1, r1, r6
     632:	f095 0f00 	teq	r5, #0
     636:	bf18      	it	ne
     638:	4770      	bxne	lr
     63a:	f003 4600 	and.w	r6, r3, #2147483648	; 0x80000000
     63e:	0052      	lsls	r2, r2, #1
     640:	eb43 0303 	adc.w	r3, r3, r3
     644:	f413 1f80 	tst.w	r3, #1048576	; 0x100000
     648:	bf08      	it	eq
     64a:	3d01      	subeq	r5, #1
     64c:	d0f7      	beq.n	63e <__aeabi_dmul+0x1c6>
     64e:	ea43 0306 	orr.w	r3, r3, r6
     652:	4770      	bx	lr
     654:	ea94 0f0c 	teq	r4, ip
     658:	ea0c 5513 	and.w	r5, ip, r3, lsr #20
     65c:	bf18      	it	ne
     65e:	ea95 0f0c 	teqne	r5, ip
     662:	d00c      	beq.n	67e <__aeabi_dmul+0x206>
     664:	ea50 0641 	orrs.w	r6, r0, r1, lsl #1
     668:	bf18      	it	ne
     66a:	ea52 0643 	orrsne.w	r6, r2, r3, lsl #1
     66e:	d1d1      	bne.n	614 <__aeabi_dmul+0x19c>
     670:	ea81 0103 	eor.w	r1, r1, r3
     674:	f001 4100 	and.w	r1, r1, #2147483648	; 0x80000000
     678:	f04f 0000 	mov.w	r0, #0
     67c:	bd70      	pop	{r4, r5, r6, pc}
     67e:	ea50 0641 	orrs.w	r6, r0, r1, lsl #1
     682:	bf06      	itte	eq
     684:	4610      	moveq	r0, r2
     686:	4619      	moveq	r1, r3
     688:	ea52 0643 	orrsne.w	r6, r2, r3, lsl #1
     68c:	d019      	beq.n	6c2 <__aeabi_dmul+0x24a>
     68e:	ea94 0f0c 	teq	r4, ip
     692:	d102      	bne.n	69a <__aeabi_dmul+0x222>
     694:	ea50 3601 	orrs.w	r6, r0, r1, lsl #12
     698:	d113      	bne.n	6c2 <__aeabi_dmul+0x24a>
     69a:	ea95 0f0c 	teq	r5, ip
     69e:	d105      	bne.n	6ac <__aeabi_dmul+0x234>
     6a0:	ea52 3603 	orrs.w	r6, r2, r3, lsl #12
     6a4:	bf1c      	itt	ne
     6a6:	4610      	movne	r0, r2
     6a8:	4619      	movne	r1, r3
     6aa:	d10a      	bne.n	6c2 <__aeabi_dmul+0x24a>
     6ac:	ea81 0103 	eor.w	r1, r1, r3
     6b0:	f001 4100 	and.w	r1, r1, #2147483648	; 0x80000000
     6b4:	f041 41fe 	orr.w	r1, r1, #2130706432	; 0x7f000000
     6b8:	f441 0170 	orr.w	r1, r1, #15728640	; 0xf00000
     6bc:	f04f 0000 	mov.w	r0, #0
     6c0:	bd70      	pop	{r4, r5, r6, pc}
     6c2:	f041 41fe 	orr.w	r1, r1, #2130706432	; 0x7f000000
     6c6:	f441 0178 	orr.w	r1, r1, #16252928	; 0xf80000
     6ca:	bd70      	pop	{r4, r5, r6, pc}

000006cc <__aeabi_ddiv>:
     6cc:	b570      	push	{r4, r5, r6, lr}
     6ce:	f04f 0cff 	mov.w	ip, #255	; 0xff
     6d2:	f44c 6ce0 	orr.w	ip, ip, #1792	; 0x700
     6d6:	ea1c 5411 	ands.w	r4, ip, r1, lsr #20
     6da:	bf1d      	ittte	ne
     6dc:	ea1c 5513 	andsne.w	r5, ip, r3, lsr #20
     6e0:	ea94 0f0c 	teqne	r4, ip
     6e4:	ea95 0f0c 	teqne	r5, ip
     6e8:	f000 f8a7 	bleq	83a <CONFIG_ISR_STACK_SIZE+0x3a>
     6ec:	eba4 0405 	sub.w	r4, r4, r5
     6f0:	ea81 0e03 	eor.w	lr, r1, r3
     6f4:	ea52 3503 	orrs.w	r5, r2, r3, lsl #12
     6f8:	ea4f 3101 	mov.w	r1, r1, lsl #12
     6fc:	f000 8088 	beq.w	810 <CONFIG_ISR_STACK_SIZE+0x10>
     700:	ea4f 3303 	mov.w	r3, r3, lsl #12
     704:	f04f 5580 	mov.w	r5, #268435456	; 0x10000000
     708:	ea45 1313 	orr.w	r3, r5, r3, lsr #4
     70c:	ea43 6312 	orr.w	r3, r3, r2, lsr #24
     710:	ea4f 2202 	mov.w	r2, r2, lsl #8
     714:	ea45 1511 	orr.w	r5, r5, r1, lsr #4
     718:	ea45 6510 	orr.w	r5, r5, r0, lsr #24
     71c:	ea4f 2600 	mov.w	r6, r0, lsl #8
     720:	f00e 4100 	and.w	r1, lr, #2147483648	; 0x80000000
     724:	429d      	cmp	r5, r3
     726:	bf08      	it	eq
     728:	4296      	cmpeq	r6, r2
     72a:	f144 04fd 	adc.w	r4, r4, #253	; 0xfd
     72e:	f504 7440 	add.w	r4, r4, #768	; 0x300
     732:	d202      	bcs.n	73a <__aeabi_ddiv+0x6e>
     734:	085b      	lsrs	r3, r3, #1
     736:	ea4f 0232 	mov.w	r2, r2, rrx
     73a:	1ab6      	subs	r6, r6, r2
     73c:	eb65 0503 	sbc.w	r5, r5, r3
     740:	085b      	lsrs	r3, r3, #1
     742:	ea4f 0232 	mov.w	r2, r2, rrx
     746:	f44f 1080 	mov.w	r0, #1048576	; 0x100000
     74a:	f44f 2c00 	mov.w	ip, #524288	; 0x80000
     74e:	ebb6 0e02 	subs.w	lr, r6, r2
     752:	eb75 0e03 	sbcs.w	lr, r5, r3
     756:	bf22      	ittt	cs
     758:	1ab6      	subcs	r6, r6, r2
     75a:	4675      	movcs	r5, lr
     75c:	ea40 000c 	orrcs.w	r0, r0, ip
     760:	085b      	lsrs	r3, r3, #1
     762:	ea4f 0232 	mov.w	r2, r2, rrx
     766:	ebb6 0e02 	subs.w	lr, r6, r2
     76a:	eb75 0e03 	sbcs.w	lr, r5, r3
     76e:	bf22      	ittt	cs
     770:	1ab6      	subcs	r6, r6, r2
     772:	4675      	movcs	r5, lr
     774:	ea40 005c 	orrcs.w	r0, r0, ip, lsr #1
     778:	085b      	lsrs	r3, r3, #1
     77a:	ea4f 0232 	mov.w	r2, r2, rrx
     77e:	ebb6 0e02 	subs.w	lr, r6, r2
     782:	eb75 0e03 	sbcs.w	lr, r5, r3
     786:	bf22      	ittt	cs
     788:	1ab6      	subcs	r6, r6, r2
     78a:	4675      	movcs	r5, lr
     78c:	ea40 009c 	orrcs.w	r0, r0, ip, lsr #2
     790:	085b      	lsrs	r3, r3, #1
     792:	ea4f 0232 	mov.w	r2, r2, rrx
     796:	ebb6 0e02 	subs.w	lr, r6, r2
     79a:	eb75 0e03 	sbcs.w	lr, r5, r3
     79e:	bf22      	ittt	cs
     7a0:	1ab6      	subcs	r6, r6, r2
     7a2:	4675      	movcs	r5, lr
     7a4:	ea40 00dc 	orrcs.w	r0, r0, ip, lsr #3
     7a8:	ea55 0e06 	orrs.w	lr, r5, r6
     7ac:	d018      	beq.n	7e0 <__aeabi_ddiv+0x114>
     7ae:	ea4f 1505 	mov.w	r5, r5, lsl #4
     7b2:	ea45 7516 	orr.w	r5, r5, r6, lsr #28
     7b6:	ea4f 1606 	mov.w	r6, r6, lsl #4
     7ba:	ea4f 03c3 	mov.w	r3, r3, lsl #3
     7be:	ea43 7352 	orr.w	r3, r3, r2, lsr #29
     7c2:	ea4f 02c2 	mov.w	r2, r2, lsl #3
     7c6:	ea5f 1c1c 	movs.w	ip, ip, lsr #4
     7ca:	d1c0      	bne.n	74e <__aeabi_ddiv+0x82>
     7cc:	f411 1f80 	tst.w	r1, #1048576	; 0x100000
     7d0:	d10b      	bne.n	7ea <__aeabi_ddiv+0x11e>
     7d2:	ea41 0100 	orr.w	r1, r1, r0
     7d6:	f04f 0000 	mov.w	r0, #0
     7da:	f04f 4c00 	mov.w	ip, #2147483648	; 0x80000000
     7de:	e7b6      	b.n	74e <__aeabi_ddiv+0x82>
     7e0:	f411 1f80 	tst.w	r1, #1048576	; 0x100000
     7e4:	bf04      	itt	eq
     7e6:	4301      	orreq	r1, r0
     7e8:	2000      	moveq	r0, #0
     7ea:	f1b4 0cfd 	subs.w	ip, r4, #253	; 0xfd
     7ee:	bf88      	it	hi
     7f0:	f5bc 6fe0 	cmphi.w	ip, #1792	; 0x700
     7f4:	f63f aeaf 	bhi.w	556 <__aeabi_dmul+0xde>
     7f8:	ebb5 0c03 	subs.w	ip, r5, r3
     7fc:	bf04      	itt	eq
     7fe:	ebb6 0c02 	subseq.w	ip, r6, r2
     802:	ea5f 0c50 	movseq.w	ip, r0, lsr #1
     806:	f150 0000 	adcs.w	r0, r0, #0
     80a:	eb41 5104 	adc.w	r1, r1, r4, lsl #20
     80e:	bd70      	pop	{r4, r5, r6, pc}
     810:	f00e 4e00 	and.w	lr, lr, #2147483648	; 0x80000000
     814:	ea4e 3111 	orr.w	r1, lr, r1, lsr #12
     818:	eb14 045c 	adds.w	r4, r4, ip, lsr #1
     81c:	bfc2      	ittt	gt
     81e:	ebd4 050c 	rsbsgt	r5, r4, ip
     822:	ea41 5104 	orrgt.w	r1, r1, r4, lsl #20
     826:	bd70      	popgt	{r4, r5, r6, pc}
     828:	f441 1180 	orr.w	r1, r1, #1048576	; 0x100000
     82c:	f04f 0e00 	mov.w	lr, #0
     830:	3c01      	subs	r4, #1
     832:	e690      	b.n	556 <__aeabi_dmul+0xde>
     834:	ea45 0e06 	orr.w	lr, r5, r6
     838:	e68d      	b.n	556 <__aeabi_dmul+0xde>
     83a:	ea0c 5513 	and.w	r5, ip, r3, lsr #20
     83e:	ea94 0f0c 	teq	r4, ip
     842:	bf08      	it	eq
     844:	ea95 0f0c 	teqeq	r5, ip
     848:	f43f af3b 	beq.w	6c2 <__aeabi_dmul+0x24a>
     84c:	ea94 0f0c 	teq	r4, ip
     850:	d10a      	bne.n	868 <CONFIG_ISR_STACK_SIZE+0x68>
     852:	ea50 3401 	orrs.w	r4, r0, r1, lsl #12
     856:	f47f af34 	bne.w	6c2 <__aeabi_dmul+0x24a>
     85a:	ea95 0f0c 	teq	r5, ip
     85e:	f47f af25 	bne.w	6ac <__aeabi_dmul+0x234>
     862:	4610      	mov	r0, r2
     864:	4619      	mov	r1, r3
     866:	e72c      	b.n	6c2 <__aeabi_dmul+0x24a>
     868:	ea95 0f0c 	teq	r5, ip
     86c:	d106      	bne.n	87c <CONFIG_ISR_STACK_SIZE+0x7c>
     86e:	ea52 3503 	orrs.w	r5, r2, r3, lsl #12
     872:	f43f aefd 	beq.w	670 <__aeabi_dmul+0x1f8>
     876:	4610      	mov	r0, r2
     878:	4619      	mov	r1, r3
     87a:	e722      	b.n	6c2 <__aeabi_dmul+0x24a>
     87c:	ea50 0641 	orrs.w	r6, r0, r1, lsl #1
     880:	bf18      	it	ne
     882:	ea52 0643 	orrsne.w	r6, r2, r3, lsl #1
     886:	f47f aec5 	bne.w	614 <__aeabi_dmul+0x19c>
     88a:	ea50 0441 	orrs.w	r4, r0, r1, lsl #1
     88e:	f47f af0d 	bne.w	6ac <__aeabi_dmul+0x234>
     892:	ea52 0543 	orrs.w	r5, r2, r3, lsl #1
     896:	f47f aeeb 	bne.w	670 <__aeabi_dmul+0x1f8>
     89a:	e712      	b.n	6c2 <__aeabi_dmul+0x24a>

0000089c <__gedf2>:
     89c:	f04f 3cff 	mov.w	ip, #4294967295	; 0xffffffff
     8a0:	e006      	b.n	8b0 <__cmpdf2+0x4>
     8a2:	bf00      	nop

000008a4 <__ledf2>:
     8a4:	f04f 0c01 	mov.w	ip, #1
     8a8:	e002      	b.n	8b0 <__cmpdf2+0x4>
     8aa:	bf00      	nop

000008ac <__cmpdf2>:
     8ac:	f04f 0c01 	mov.w	ip, #1
     8b0:	f84d cd04 	str.w	ip, [sp, #-4]!
     8b4:	ea4f 0c41 	mov.w	ip, r1, lsl #1
     8b8:	ea7f 5c6c 	mvns.w	ip, ip, asr #21
     8bc:	ea4f 0c43 	mov.w	ip, r3, lsl #1
     8c0:	bf18      	it	ne
     8c2:	ea7f 5c6c 	mvnsne.w	ip, ip, asr #21
     8c6:	d01b      	beq.n	900 <__cmpdf2+0x54>
     8c8:	b001      	add	sp, #4
     8ca:	ea50 0c41 	orrs.w	ip, r0, r1, lsl #1
     8ce:	bf0c      	ite	eq
     8d0:	ea52 0c43 	orrseq.w	ip, r2, r3, lsl #1
     8d4:	ea91 0f03 	teqne	r1, r3
     8d8:	bf02      	ittt	eq
     8da:	ea90 0f02 	teqeq	r0, r2
     8de:	2000      	moveq	r0, #0
     8e0:	4770      	bxeq	lr
     8e2:	f110 0f00 	cmn.w	r0, #0
     8e6:	ea91 0f03 	teq	r1, r3
     8ea:	bf58      	it	pl
     8ec:	4299      	cmppl	r1, r3
     8ee:	bf08      	it	eq
     8f0:	4290      	cmpeq	r0, r2
     8f2:	bf2c      	ite	cs
     8f4:	17d8      	asrcs	r0, r3, #31
     8f6:	ea6f 70e3 	mvncc.w	r0, r3, asr #31
     8fa:	f040 0001 	orr.w	r0, r0, #1
     8fe:	4770      	bx	lr
     900:	ea4f 0c41 	mov.w	ip, r1, lsl #1
     904:	ea7f 5c6c 	mvns.w	ip, ip, asr #21
     908:	d102      	bne.n	910 <__cmpdf2+0x64>
     90a:	ea50 3c01 	orrs.w	ip, r0, r1, lsl #12
     90e:	d107      	bne.n	920 <__cmpdf2+0x74>
     910:	ea4f 0c43 	mov.w	ip, r3, lsl #1
     914:	ea7f 5c6c 	mvns.w	ip, ip, asr #21
     918:	d1d6      	bne.n	8c8 <__cmpdf2+0x1c>
     91a:	ea52 3c03 	orrs.w	ip, r2, r3, lsl #12
     91e:	d0d3      	beq.n	8c8 <__cmpdf2+0x1c>
     920:	f85d 0b04 	ldr.w	r0, [sp], #4
     924:	4770      	bx	lr
     926:	bf00      	nop

00000928 <__aeabi_cdrcmple>:
     928:	4684      	mov	ip, r0
     92a:	4610      	mov	r0, r2
     92c:	4662      	mov	r2, ip
     92e:	468c      	mov	ip, r1
     930:	4619      	mov	r1, r3
     932:	4663      	mov	r3, ip
     934:	e000      	b.n	938 <__aeabi_cdcmpeq>
     936:	bf00      	nop

00000938 <__aeabi_cdcmpeq>:
     938:	b501      	push	{r0, lr}
     93a:	f7ff ffb7 	bl	8ac <__cmpdf2>
     93e:	2800      	cmp	r0, #0
     940:	bf48      	it	mi
     942:	f110 0f00 	cmnmi.w	r0, #0
     946:	bd01      	pop	{r0, pc}

00000948 <__aeabi_dcmpeq>:
     948:	f84d ed08 	str.w	lr, [sp, #-8]!
     94c:	f7ff fff4 	bl	938 <__aeabi_cdcmpeq>
     950:	bf0c      	ite	eq
     952:	2001      	moveq	r0, #1
     954:	2000      	movne	r0, #0
     956:	f85d fb08 	ldr.w	pc, [sp], #8
     95a:	bf00      	nop

0000095c <__aeabi_dcmplt>:
     95c:	f84d ed08 	str.w	lr, [sp, #-8]!
     960:	f7ff ffea 	bl	938 <__aeabi_cdcmpeq>
     964:	bf34      	ite	cc
     966:	2001      	movcc	r0, #1
     968:	2000      	movcs	r0, #0
     96a:	f85d fb08 	ldr.w	pc, [sp], #8
     96e:	bf00      	nop

00000970 <__aeabi_dcmple>:
     970:	f84d ed08 	str.w	lr, [sp, #-8]!
     974:	f7ff ffe0 	bl	938 <__aeabi_cdcmpeq>
     978:	bf94      	ite	ls
     97a:	2001      	movls	r0, #1
     97c:	2000      	movhi	r0, #0
     97e:	f85d fb08 	ldr.w	pc, [sp], #8
     982:	bf00      	nop

00000984 <__aeabi_dcmpge>:
     984:	f84d ed08 	str.w	lr, [sp, #-8]!
     988:	f7ff ffce 	bl	928 <__aeabi_cdrcmple>
     98c:	bf94      	ite	ls
     98e:	2001      	movls	r0, #1
     990:	2000      	movhi	r0, #0
     992:	f85d fb08 	ldr.w	pc, [sp], #8
     996:	bf00      	nop

00000998 <__aeabi_dcmpgt>:
     998:	f84d ed08 	str.w	lr, [sp, #-8]!
     99c:	f7ff ffc4 	bl	928 <__aeabi_cdrcmple>
     9a0:	bf34      	ite	cc
     9a2:	2001      	movcc	r0, #1
     9a4:	2000      	movcs	r0, #0
     9a6:	f85d fb08 	ldr.w	pc, [sp], #8
     9aa:	bf00      	nop

000009ac <__aeabi_d2iz>:
     9ac:	ea4f 0241 	mov.w	r2, r1, lsl #1
     9b0:	f512 1200 	adds.w	r2, r2, #2097152	; 0x200000
     9b4:	d215      	bcs.n	9e2 <__aeabi_d2iz+0x36>
     9b6:	d511      	bpl.n	9dc <__aeabi_d2iz+0x30>
     9b8:	f46f 7378 	mvn.w	r3, #992	; 0x3e0
     9bc:	ebb3 5262 	subs.w	r2, r3, r2, asr #21
     9c0:	d912      	bls.n	9e8 <__aeabi_d2iz+0x3c>
     9c2:	ea4f 23c1 	mov.w	r3, r1, lsl #11
     9c6:	f043 4300 	orr.w	r3, r3, #2147483648	; 0x80000000
     9ca:	ea43 5350 	orr.w	r3, r3, r0, lsr #21
     9ce:	f011 4f00 	tst.w	r1, #2147483648	; 0x80000000
     9d2:	fa23 f002 	lsr.w	r0, r3, r2
     9d6:	bf18      	it	ne
     9d8:	4240      	negne	r0, r0
     9da:	4770      	bx	lr
     9dc:	f04f 0000 	mov.w	r0, #0
     9e0:	4770      	bx	lr
     9e2:	ea50 3001 	orrs.w	r0, r0, r1, lsl #12
     9e6:	d105      	bne.n	9f4 <__aeabi_d2iz+0x48>
     9e8:	f011 4000 	ands.w	r0, r1, #2147483648	; 0x80000000
     9ec:	bf08      	it	eq
     9ee:	f06f 4000 	mvneq.w	r0, #2147483648	; 0x80000000
     9f2:	4770      	bx	lr
     9f4:	f04f 0000 	mov.w	r0, #0
     9f8:	4770      	bx	lr
     9fa:	bf00      	nop

000009fc <__aeabi_d2uiz>:
     9fc:	004a      	lsls	r2, r1, #1
     9fe:	d211      	bcs.n	a24 <__aeabi_d2uiz+0x28>
     a00:	f512 1200 	adds.w	r2, r2, #2097152	; 0x200000
     a04:	d211      	bcs.n	a2a <__aeabi_d2uiz+0x2e>
     a06:	d50d      	bpl.n	a24 <__aeabi_d2uiz+0x28>
     a08:	f46f 7378 	mvn.w	r3, #992	; 0x3e0
     a0c:	ebb3 5262 	subs.w	r2, r3, r2, asr #21
     a10:	d40e      	bmi.n	a30 <__aeabi_d2uiz+0x34>
     a12:	ea4f 23c1 	mov.w	r3, r1, lsl #11
     a16:	f043 4300 	orr.w	r3, r3, #2147483648	; 0x80000000
     a1a:	ea43 5350 	orr.w	r3, r3, r0, lsr #21
     a1e:	fa23 f002 	lsr.w	r0, r3, r2
     a22:	4770      	bx	lr
     a24:	f04f 0000 	mov.w	r0, #0
     a28:	4770      	bx	lr
     a2a:	ea50 3001 	orrs.w	r0, r0, r1, lsl #12
     a2e:	d102      	bne.n	a36 <__aeabi_d2uiz+0x3a>
     a30:	f04f 30ff 	mov.w	r0, #4294967295	; 0xffffffff
     a34:	4770      	bx	lr
     a36:	f04f 0000 	mov.w	r0, #0
     a3a:	4770      	bx	lr

00000a3c <__aeabi_uldivmod>:
     a3c:	b953      	cbnz	r3, a54 <__aeabi_uldivmod+0x18>
     a3e:	b94a      	cbnz	r2, a54 <__aeabi_uldivmod+0x18>
     a40:	2900      	cmp	r1, #0
     a42:	bf08      	it	eq
     a44:	2800      	cmpeq	r0, #0
     a46:	bf1c      	itt	ne
     a48:	f04f 31ff 	movne.w	r1, #4294967295	; 0xffffffff
     a4c:	f04f 30ff 	movne.w	r0, #4294967295	; 0xffffffff
     a50:	f000 b96e 	b.w	d30 <__aeabi_idiv0>
     a54:	f1ad 0c08 	sub.w	ip, sp, #8
     a58:	e96d ce04 	strd	ip, lr, [sp, #-16]!
     a5c:	f000 f806 	bl	a6c <__udivmoddi4>
     a60:	f8dd e004 	ldr.w	lr, [sp, #4]
     a64:	e9dd 2302 	ldrd	r2, r3, [sp, #8]
     a68:	b004      	add	sp, #16
     a6a:	4770      	bx	lr

00000a6c <__udivmoddi4>:
     a6c:	e92d 47f0 	stmdb	sp!, {r4, r5, r6, r7, r8, r9, sl, lr}
     a70:	9d08      	ldr	r5, [sp, #32]
     a72:	460e      	mov	r6, r1
     a74:	4604      	mov	r4, r0
     a76:	468c      	mov	ip, r1
     a78:	2b00      	cmp	r3, #0
     a7a:	f040 8081 	bne.w	b80 <__udivmoddi4+0x114>
     a7e:	428a      	cmp	r2, r1
     a80:	4617      	mov	r7, r2
     a82:	d945      	bls.n	b10 <__udivmoddi4+0xa4>
     a84:	fab2 f282 	clz	r2, r2
     a88:	b14a      	cbz	r2, a9e <__udivmoddi4+0x32>
     a8a:	f1c2 0120 	rsb	r1, r2, #32
     a8e:	fa06 f302 	lsl.w	r3, r6, r2
     a92:	fa20 f101 	lsr.w	r1, r0, r1
     a96:	4097      	lsls	r7, r2
     a98:	ea41 0c03 	orr.w	ip, r1, r3
     a9c:	4094      	lsls	r4, r2
     a9e:	ea4f 4e17 	mov.w	lr, r7, lsr #16
     aa2:	0c23      	lsrs	r3, r4, #16
     aa4:	fbbc f6fe 	udiv	r6, ip, lr
     aa8:	b2b9      	uxth	r1, r7
     aaa:	fb0e cc16 	mls	ip, lr, r6, ip
     aae:	ea43 430c 	orr.w	r3, r3, ip, lsl #16
     ab2:	fb06 f001 	mul.w	r0, r6, r1
     ab6:	4298      	cmp	r0, r3
     ab8:	d909      	bls.n	ace <__udivmoddi4+0x62>
     aba:	18fb      	adds	r3, r7, r3
     abc:	f106 3cff 	add.w	ip, r6, #4294967295	; 0xffffffff
     ac0:	f080 8115 	bcs.w	cee <__udivmoddi4+0x282>
     ac4:	4298      	cmp	r0, r3
     ac6:	f240 8112 	bls.w	cee <__udivmoddi4+0x282>
     aca:	3e02      	subs	r6, #2
     acc:	443b      	add	r3, r7
     ace:	1a1b      	subs	r3, r3, r0
     ad0:	b2a4      	uxth	r4, r4
     ad2:	fbb3 f0fe 	udiv	r0, r3, lr
     ad6:	fb0e 3310 	mls	r3, lr, r0, r3
     ada:	ea44 4403 	orr.w	r4, r4, r3, lsl #16
     ade:	fb00 f101 	mul.w	r1, r0, r1
     ae2:	42a1      	cmp	r1, r4
     ae4:	d909      	bls.n	afa <__udivmoddi4+0x8e>
     ae6:	193c      	adds	r4, r7, r4
     ae8:	f100 33ff 	add.w	r3, r0, #4294967295	; 0xffffffff
     aec:	f080 8101 	bcs.w	cf2 <__udivmoddi4+0x286>
     af0:	42a1      	cmp	r1, r4
     af2:	f240 80fe 	bls.w	cf2 <__udivmoddi4+0x286>
     af6:	3802      	subs	r0, #2
     af8:	443c      	add	r4, r7
     afa:	1a64      	subs	r4, r4, r1
     afc:	ea40 4006 	orr.w	r0, r0, r6, lsl #16
     b00:	2100      	movs	r1, #0
     b02:	b11d      	cbz	r5, b0c <__udivmoddi4+0xa0>
     b04:	40d4      	lsrs	r4, r2
     b06:	2300      	movs	r3, #0
     b08:	e9c5 4300 	strd	r4, r3, [r5]
     b0c:	e8bd 87f0 	ldmia.w	sp!, {r4, r5, r6, r7, r8, r9, sl, pc}
     b10:	b902      	cbnz	r2, b14 <__udivmoddi4+0xa8>
     b12:	deff      	udf	#255	; 0xff
     b14:	fab2 f282 	clz	r2, r2
     b18:	2a00      	cmp	r2, #0
     b1a:	d14f      	bne.n	bbc <__udivmoddi4+0x150>
     b1c:	1bcb      	subs	r3, r1, r7
     b1e:	ea4f 4e17 	mov.w	lr, r7, lsr #16
     b22:	fa1f f887 	uxth.w	r8, r7
     b26:	2101      	movs	r1, #1
     b28:	fbb3 fcfe 	udiv	ip, r3, lr
     b2c:	0c26      	lsrs	r6, r4, #16
     b2e:	fb0e 331c 	mls	r3, lr, ip, r3
     b32:	ea46 4603 	orr.w	r6, r6, r3, lsl #16
     b36:	fb08 f30c 	mul.w	r3, r8, ip
     b3a:	42b3      	cmp	r3, r6
     b3c:	d907      	bls.n	b4e <__udivmoddi4+0xe2>
     b3e:	19be      	adds	r6, r7, r6
     b40:	f10c 30ff 	add.w	r0, ip, #4294967295	; 0xffffffff
     b44:	d202      	bcs.n	b4c <__udivmoddi4+0xe0>
     b46:	42b3      	cmp	r3, r6
     b48:	f200 80eb 	bhi.w	d22 <__udivmoddi4+0x2b6>
     b4c:	4684      	mov	ip, r0
     b4e:	1af6      	subs	r6, r6, r3
     b50:	b2a3      	uxth	r3, r4
     b52:	fbb6 f0fe 	udiv	r0, r6, lr
     b56:	fb0e 6610 	mls	r6, lr, r0, r6
     b5a:	ea43 4406 	orr.w	r4, r3, r6, lsl #16
     b5e:	fb08 f800 	mul.w	r8, r8, r0
     b62:	45a0      	cmp	r8, r4
     b64:	d907      	bls.n	b76 <__udivmoddi4+0x10a>
     b66:	193c      	adds	r4, r7, r4
     b68:	f100 33ff 	add.w	r3, r0, #4294967295	; 0xffffffff
     b6c:	d202      	bcs.n	b74 <__udivmoddi4+0x108>
     b6e:	45a0      	cmp	r8, r4
     b70:	f200 80d2 	bhi.w	d18 <__udivmoddi4+0x2ac>
     b74:	4618      	mov	r0, r3
     b76:	eba4 0408 	sub.w	r4, r4, r8
     b7a:	ea40 400c 	orr.w	r0, r0, ip, lsl #16
     b7e:	e7c0      	b.n	b02 <__udivmoddi4+0x96>
     b80:	428b      	cmp	r3, r1
     b82:	d908      	bls.n	b96 <__udivmoddi4+0x12a>
     b84:	2d00      	cmp	r5, #0
     b86:	f000 80af 	beq.w	ce8 <__udivmoddi4+0x27c>
     b8a:	2100      	movs	r1, #0
     b8c:	e9c5 0600 	strd	r0, r6, [r5]
     b90:	4608      	mov	r0, r1
     b92:	e8bd 87f0 	ldmia.w	sp!, {r4, r5, r6, r7, r8, r9, sl, pc}
     b96:	fab3 f183 	clz	r1, r3
     b9a:	2900      	cmp	r1, #0
     b9c:	d149      	bne.n	c32 <__udivmoddi4+0x1c6>
     b9e:	42b3      	cmp	r3, r6
     ba0:	d302      	bcc.n	ba8 <__udivmoddi4+0x13c>
     ba2:	4282      	cmp	r2, r0
     ba4:	f200 80bb 	bhi.w	d1e <__udivmoddi4+0x2b2>
     ba8:	1a84      	subs	r4, r0, r2
     baa:	eb66 0303 	sbc.w	r3, r6, r3
     bae:	2001      	movs	r0, #1
     bb0:	469c      	mov	ip, r3
     bb2:	2d00      	cmp	r5, #0
     bb4:	d0aa      	beq.n	b0c <__udivmoddi4+0xa0>
     bb6:	e9c5 4c00 	strd	r4, ip, [r5]
     bba:	e7a7      	b.n	b0c <__udivmoddi4+0xa0>
     bbc:	f1c2 0320 	rsb	r3, r2, #32
     bc0:	4097      	lsls	r7, r2
     bc2:	40d8      	lsrs	r0, r3
     bc4:	4091      	lsls	r1, r2
     bc6:	40de      	lsrs	r6, r3
     bc8:	ea4f 4e17 	mov.w	lr, r7, lsr #16
     bcc:	4308      	orrs	r0, r1
     bce:	ea4f 4c10 	mov.w	ip, r0, lsr #16
     bd2:	fbb6 f1fe 	udiv	r1, r6, lr
     bd6:	fa1f f887 	uxth.w	r8, r7
     bda:	fb0e 6611 	mls	r6, lr, r1, r6
     bde:	ea4c 4606 	orr.w	r6, ip, r6, lsl #16
     be2:	fb01 f308 	mul.w	r3, r1, r8
     be6:	42b3      	cmp	r3, r6
     be8:	fa04 f402 	lsl.w	r4, r4, r2
     bec:	d909      	bls.n	c02 <__udivmoddi4+0x196>
     bee:	19be      	adds	r6, r7, r6
     bf0:	f101 3cff 	add.w	ip, r1, #4294967295	; 0xffffffff
     bf4:	f080 808e 	bcs.w	d14 <__udivmoddi4+0x2a8>
     bf8:	42b3      	cmp	r3, r6
     bfa:	f240 808b 	bls.w	d14 <__udivmoddi4+0x2a8>
     bfe:	3902      	subs	r1, #2
     c00:	443e      	add	r6, r7
     c02:	1af3      	subs	r3, r6, r3
     c04:	b286      	uxth	r6, r0
     c06:	fbb3 f0fe 	udiv	r0, r3, lr
     c0a:	fb0e 3310 	mls	r3, lr, r0, r3
     c0e:	ea46 4603 	orr.w	r6, r6, r3, lsl #16
     c12:	fb00 f308 	mul.w	r3, r0, r8
     c16:	42b3      	cmp	r3, r6
     c18:	d907      	bls.n	c2a <__udivmoddi4+0x1be>
     c1a:	19be      	adds	r6, r7, r6
     c1c:	f100 3cff 	add.w	ip, r0, #4294967295	; 0xffffffff
     c20:	d274      	bcs.n	d0c <__udivmoddi4+0x2a0>
     c22:	42b3      	cmp	r3, r6
     c24:	d972      	bls.n	d0c <__udivmoddi4+0x2a0>
     c26:	3802      	subs	r0, #2
     c28:	443e      	add	r6, r7
     c2a:	1af3      	subs	r3, r6, r3
     c2c:	ea40 4101 	orr.w	r1, r0, r1, lsl #16
     c30:	e77a      	b.n	b28 <__udivmoddi4+0xbc>
     c32:	f1c1 0720 	rsb	r7, r1, #32
     c36:	fa03 f401 	lsl.w	r4, r3, r1
     c3a:	fa22 f307 	lsr.w	r3, r2, r7
     c3e:	431c      	orrs	r4, r3
     c40:	fa20 f907 	lsr.w	r9, r0, r7
     c44:	fa06 f301 	lsl.w	r3, r6, r1
     c48:	ea4f 4c14 	mov.w	ip, r4, lsr #16
     c4c:	40fe      	lsrs	r6, r7
     c4e:	ea49 0903 	orr.w	r9, r9, r3
     c52:	ea4f 4319 	mov.w	r3, r9, lsr #16
     c56:	fbb6 fefc 	udiv	lr, r6, ip
     c5a:	fa1f f884 	uxth.w	r8, r4
     c5e:	fb0c 661e 	mls	r6, ip, lr, r6
     c62:	ea43 4606 	orr.w	r6, r3, r6, lsl #16
     c66:	fb0e fa08 	mul.w	sl, lr, r8
     c6a:	45b2      	cmp	sl, r6
     c6c:	fa02 f201 	lsl.w	r2, r2, r1
     c70:	fa00 f301 	lsl.w	r3, r0, r1
     c74:	d908      	bls.n	c88 <__udivmoddi4+0x21c>
     c76:	19a6      	adds	r6, r4, r6
     c78:	f10e 30ff 	add.w	r0, lr, #4294967295	; 0xffffffff
     c7c:	d248      	bcs.n	d10 <__udivmoddi4+0x2a4>
     c7e:	45b2      	cmp	sl, r6
     c80:	d946      	bls.n	d10 <__udivmoddi4+0x2a4>
     c82:	f1ae 0e02 	sub.w	lr, lr, #2
     c86:	4426      	add	r6, r4
     c88:	eba6 060a 	sub.w	r6, r6, sl
     c8c:	fa1f f989 	uxth.w	r9, r9
     c90:	fbb6 f0fc 	udiv	r0, r6, ip
     c94:	fb0c 6610 	mls	r6, ip, r0, r6
     c98:	ea49 4606 	orr.w	r6, r9, r6, lsl #16
     c9c:	fb00 f808 	mul.w	r8, r0, r8
     ca0:	45b0      	cmp	r8, r6
     ca2:	d907      	bls.n	cb4 <__udivmoddi4+0x248>
     ca4:	19a6      	adds	r6, r4, r6
     ca6:	f100 3cff 	add.w	ip, r0, #4294967295	; 0xffffffff
     caa:	d22d      	bcs.n	d08 <__udivmoddi4+0x29c>
     cac:	45b0      	cmp	r8, r6
     cae:	d92b      	bls.n	d08 <__udivmoddi4+0x29c>
     cb0:	3802      	subs	r0, #2
     cb2:	4426      	add	r6, r4
     cb4:	ea40 400e 	orr.w	r0, r0, lr, lsl #16
     cb8:	eba6 0608 	sub.w	r6, r6, r8
     cbc:	fba0 8902 	umull	r8, r9, r0, r2
     cc0:	454e      	cmp	r6, r9
     cc2:	46c4      	mov	ip, r8
     cc4:	46ce      	mov	lr, r9
     cc6:	d318      	bcc.n	cfa <__udivmoddi4+0x28e>
     cc8:	d015      	beq.n	cf6 <__udivmoddi4+0x28a>
     cca:	b375      	cbz	r5, d2a <__udivmoddi4+0x2be>
     ccc:	ebb3 020c 	subs.w	r2, r3, ip
     cd0:	eb66 060e 	sbc.w	r6, r6, lr
     cd4:	fa06 f707 	lsl.w	r7, r6, r7
     cd8:	fa22 f301 	lsr.w	r3, r2, r1
     cdc:	40ce      	lsrs	r6, r1
     cde:	431f      	orrs	r7, r3
     ce0:	e9c5 7600 	strd	r7, r6, [r5]
     ce4:	2100      	movs	r1, #0
     ce6:	e711      	b.n	b0c <__udivmoddi4+0xa0>
     ce8:	4629      	mov	r1, r5
     cea:	4628      	mov	r0, r5
     cec:	e70e      	b.n	b0c <__udivmoddi4+0xa0>
     cee:	4666      	mov	r6, ip
     cf0:	e6ed      	b.n	ace <__udivmoddi4+0x62>
     cf2:	4618      	mov	r0, r3
     cf4:	e701      	b.n	afa <__udivmoddi4+0x8e>
     cf6:	4543      	cmp	r3, r8
     cf8:	d2e7      	bcs.n	cca <__udivmoddi4+0x25e>
     cfa:	ebb8 0c02 	subs.w	ip, r8, r2
     cfe:	eb69 0404 	sbc.w	r4, r9, r4
     d02:	3801      	subs	r0, #1
     d04:	46a6      	mov	lr, r4
     d06:	e7e0      	b.n	cca <__udivmoddi4+0x25e>
     d08:	4660      	mov	r0, ip
     d0a:	e7d3      	b.n	cb4 <__udivmoddi4+0x248>
     d0c:	4660      	mov	r0, ip
     d0e:	e78c      	b.n	c2a <__udivmoddi4+0x1be>
     d10:	4686      	mov	lr, r0
     d12:	e7b9      	b.n	c88 <__udivmoddi4+0x21c>
     d14:	4661      	mov	r1, ip
     d16:	e774      	b.n	c02 <__udivmoddi4+0x196>
     d18:	3802      	subs	r0, #2
     d1a:	443c      	add	r4, r7
     d1c:	e72b      	b.n	b76 <__udivmoddi4+0x10a>
     d1e:	4608      	mov	r0, r1
     d20:	e747      	b.n	bb2 <__udivmoddi4+0x146>
     d22:	f1ac 0c02 	sub.w	ip, ip, #2
     d26:	443e      	add	r6, r7
     d28:	e711      	b.n	b4e <__udivmoddi4+0xe2>
     d2a:	4629      	mov	r1, r5
     d2c:	e6ee      	b.n	b0c <__udivmoddi4+0xa0>
     d2e:	bf00      	nop

00000d30 <__aeabi_idiv0>:
     d30:	4770      	bx	lr
     d32:	bf00      	nop

00000d34 <strcmp>:
     d34:	f810 2b01 	ldrb.w	r2, [r0], #1
     d38:	f811 3b01 	ldrb.w	r3, [r1], #1
     d3c:	2a01      	cmp	r2, #1
     d3e:	bf28      	it	cs
     d40:	429a      	cmpcs	r2, r3
     d42:	d0f7      	beq.n	d34 <strcmp>
     d44:	1ad0      	subs	r0, r2, r3
     d46:	4770      	bx	lr

00000d48 <strlen>:
     d48:	4603      	mov	r3, r0
     d4a:	f813 2b01 	ldrb.w	r2, [r3], #1
     d4e:	2a00      	cmp	r2, #0
     d50:	d1fb      	bne.n	d4a <strlen+0x2>
     d52:	1a18      	subs	r0, r3, r0
     d54:	3801      	subs	r0, #1
     d56:	4770      	bx	lr

00000d58 <SX1276SetChannel>:
    return SX1276.Settings.State;
}

void SX1276SetChannel( uint32_t freq )
{
    SX1276.Settings.Channel = freq;
     d58:	4b11      	ldr	r3, [pc, #68]	; (da0 <SX1276SetChannel+0x48>)
{
     d5a:	b510      	push	{r4, lr}
    SX1276.Settings.Channel = freq;
     d5c:	f8c3 00e4 	str.w	r0, [r3, #228]	; 0xe4
    freq = ( uint32_t )( ( double )freq / ( double )FREQ_STEP );
     d60:	f7ff fb10 	bl	384 <__aeabi_ui2d>
     d64:	a30c      	add	r3, pc, #48	; (adr r3, d98 <SX1276SetChannel+0x40>)
     d66:	e9d3 2300 	ldrd	r2, r3, [r3]
     d6a:	f7ff fcaf 	bl	6cc <__aeabi_ddiv>
     d6e:	f7ff fe45 	bl	9fc <__aeabi_d2uiz>
     d72:	4604      	mov	r4, r0
    SX1276Write( REG_FRFMSB, ( uint8_t )( ( freq >> 16 ) & 0xFF ) );
     d74:	f3c0 4107 	ubfx	r1, r0, #16, #8
     d78:	2006      	movs	r0, #6
     d7a:	f007 feb7 	bl	8aec <SX1276Write>
    SX1276Write( REG_FRFMID, ( uint8_t )( ( freq >> 8 ) & 0xFF ) );
     d7e:	f3c4 2107 	ubfx	r1, r4, #8, #8
     d82:	2007      	movs	r0, #7
     d84:	f007 feb2 	bl	8aec <SX1276Write>
    SX1276Write( REG_FRFLSB, ( uint8_t )( freq & 0xFF ) );
     d88:	b2e1      	uxtb	r1, r4
     d8a:	2008      	movs	r0, #8
}
     d8c:	e8bd 4010 	ldmia.w	sp!, {r4, lr}
    SX1276Write( REG_FRFLSB, ( uint8_t )( freq & 0xFF ) );
     d90:	f007 beac 	b.w	8aec <SX1276Write>
     d94:	f3af 8000 	nop.w
     d98:	00000000 	.word	0x00000000
     d9c:	404e8480 	.word	0x404e8480
     da0:	20000734 	.word	0x20000734
     da4:	00000000 	.word	0x00000000

00000da8 <RxChainCalibration>:
 * Performs the Rx chain calibration for LF and HF bands
 * \remark Must be called just after the reset so all registers are at their
 *         default values
 */
static void RxChainCalibration( void )
{
     da8:	b570      	push	{r4, r5, r6, lr}
    uint8_t regPaConfigInitVal;
    uint32_t initialFreq;

    // Save context
    regPaConfigInitVal = SX1276Read( REG_PACONFIG );
     daa:	2009      	movs	r0, #9
     dac:	f007 fea9 	bl	8b02 <SX1276Read>
     db0:	4605      	mov	r5, r0
    initialFreq = ( double )( ( ( uint32_t )SX1276Read( REG_FRFMSB ) << 16 ) |
     db2:	2006      	movs	r0, #6
     db4:	f007 fea5 	bl	8b02 <SX1276Read>
     db8:	4606      	mov	r6, r0
                              ( ( uint32_t )SX1276Read( REG_FRFMID ) << 8 ) |
     dba:	2007      	movs	r0, #7
     dbc:	f007 fea1 	bl	8b02 <SX1276Read>
     dc0:	0204      	lsls	r4, r0, #8
                              ( ( uint32_t )SX1276Read( REG_FRFLSB ) ) ) * ( double )FREQ_STEP;
     dc2:	2008      	movs	r0, #8
     dc4:	f007 fe9d 	bl	8b02 <SX1276Read>
    initialFreq = ( double )( ( ( uint32_t )SX1276Read( REG_FRFMSB ) << 16 ) |
     dc8:	ea44 4406 	orr.w	r4, r4, r6, lsl #16
     dcc:	4320      	orrs	r0, r4
     dce:	f7ff fad9 	bl	384 <__aeabi_ui2d>
                              ( ( uint32_t )SX1276Read( REG_FRFLSB ) ) ) * ( double )FREQ_STEP;
     dd2:	a31b      	add	r3, pc, #108	; (adr r3, e40 <RxChainCalibration+0x98>)
     dd4:	e9d3 2300 	ldrd	r2, r3, [r3]
     dd8:	f7ff fb4e 	bl	478 <__aeabi_dmul>
    initialFreq = ( double )( ( ( uint32_t )SX1276Read( REG_FRFMSB ) << 16 ) |
     ddc:	f7ff fe0e 	bl	9fc <__aeabi_d2uiz>

    // Cut the PA just in case, RFO output, power = -1 dBm
    SX1276Write( REG_PACONFIG, 0x00 );
     de0:	2100      	movs	r1, #0
    initialFreq = ( double )( ( ( uint32_t )SX1276Read( REG_FRFMSB ) << 16 ) |
     de2:	4604      	mov	r4, r0
    SX1276Write( REG_PACONFIG, 0x00 );
     de4:	2009      	movs	r0, #9
     de6:	f007 fe81 	bl	8aec <SX1276Write>

    // Launch Rx chain calibration for LF band
    SX1276Write( REG_IMAGECAL, ( SX1276Read( REG_IMAGECAL ) & RF_IMAGECAL_IMAGECAL_MASK ) | RF_IMAGECAL_IMAGECAL_START );
     dea:	203b      	movs	r0, #59	; 0x3b
     dec:	f007 fe89 	bl	8b02 <SX1276Read>
     df0:	f040 0140 	orr.w	r1, r0, #64	; 0x40
     df4:	b2c9      	uxtb	r1, r1
     df6:	203b      	movs	r0, #59	; 0x3b
     df8:	f007 fe78 	bl	8aec <SX1276Write>
    while( ( SX1276Read( REG_IMAGECAL ) & RF_IMAGECAL_IMAGECAL_RUNNING ) == RF_IMAGECAL_IMAGECAL_RUNNING )
     dfc:	203b      	movs	r0, #59	; 0x3b
     dfe:	f007 fe80 	bl	8b02 <SX1276Read>
     e02:	0682      	lsls	r2, r0, #26
     e04:	d4fa      	bmi.n	dfc <RxChainCalibration+0x54>
    {
    }

    // Sets a Frequency in HF band
    SX1276SetChannel( 868000000 );
     e06:	4810      	ldr	r0, [pc, #64]	; (e48 <RxChainCalibration+0xa0>)
     e08:	f7ff ffa6 	bl	d58 <SX1276SetChannel>

    // Launch Rx chain calibration for HF band
    SX1276Write( REG_IMAGECAL, ( SX1276Read( REG_IMAGECAL ) & RF_IMAGECAL_IMAGECAL_MASK ) | RF_IMAGECAL_IMAGECAL_START );
     e0c:	203b      	movs	r0, #59	; 0x3b
     e0e:	f007 fe78 	bl	8b02 <SX1276Read>
     e12:	f040 0140 	orr.w	r1, r0, #64	; 0x40
     e16:	b2c9      	uxtb	r1, r1
     e18:	203b      	movs	r0, #59	; 0x3b
     e1a:	f007 fe67 	bl	8aec <SX1276Write>
    while( ( SX1276Read( REG_IMAGECAL ) & RF_IMAGECAL_IMAGECAL_RUNNING ) == RF_IMAGECAL_IMAGECAL_RUNNING )
     e1e:	203b      	movs	r0, #59	; 0x3b
     e20:	f007 fe6f 	bl	8b02 <SX1276Read>
     e24:	0683      	lsls	r3, r0, #26
     e26:	d4fa      	bmi.n	e1e <RxChainCalibration+0x76>
    {
    }

    // Restore context
    SX1276Write( REG_PACONFIG, regPaConfigInitVal );
     e28:	4629      	mov	r1, r5
     e2a:	2009      	movs	r0, #9
     e2c:	f007 fe5e 	bl	8aec <SX1276Write>
    SX1276SetChannel( initialFreq );
     e30:	4620      	mov	r0, r4
}
     e32:	e8bd 4070 	ldmia.w	sp!, {r4, r5, r6, lr}
    SX1276SetChannel( initialFreq );
     e36:	f7ff bf8f 	b.w	d58 <SX1276SetChannel>
     e3a:	bf00      	nop
     e3c:	f3af 8000 	nop.w
     e40:	00000000 	.word	0x00000000
     e44:	404e8480 	.word	0x404e8480
     e48:	33bca100 	.word	0x33bca100
     e4c:	00000000 	.word	0x00000000

00000e50 <SX1276GetTimeOnAir>:
        break;
    }
}

uint32_t SX1276GetTimeOnAir( RadioModems_t modem, uint8_t pktLen )
{
     e50:	e92d 4ff8 	stmdb	sp!, {r3, r4, r5, r6, r7, r8, r9, sl, fp, lr}
     e54:	4688      	mov	r8, r1
    uint32_t airTime = 0;

    switch( modem )
     e56:	b120      	cbz	r0, e62 <SX1276GetTimeOnAir+0x12>
     e58:	2801      	cmp	r0, #1
     e5a:	d055      	beq.n	f08 <SX1276GetTimeOnAir+0xb8>
     e5c:	2000      	movs	r0, #0
            airTime = floor( tOnAir * 1000 + 0.999 );
        }
        break;
    }
    return airTime;
}
     e5e:	e8bd 8ff8 	ldmia.w	sp!, {r3, r4, r5, r6, r7, r8, r9, sl, fp, pc}
            airTime = round( ( 8 * ( SX1276.Settings.Fsk.PreambleLen +
     e62:	4c71      	ldr	r4, [pc, #452]	; (1028 <SX1276GetTimeOnAir+0x1d8>)
                                     ( ( SX1276Read( REG_SYNCCONFIG ) & ~RF_SYNCCONFIG_SYNCSIZE_MASK ) + 1 ) +
     e64:	2027      	movs	r0, #39	; 0x27
            airTime = round( ( 8 * ( SX1276.Settings.Fsk.PreambleLen +
     e66:	f8b4 50fc 	ldrh.w	r5, [r4, #252]	; 0xfc
                                     ( ( SX1276Read( REG_SYNCCONFIG ) & ~RF_SYNCCONFIG_SYNCSIZE_MASK ) + 1 ) +
     e6a:	f007 fe4a 	bl	8b02 <SX1276Read>
            airTime = round( ( 8 * ( SX1276.Settings.Fsk.PreambleLen +
     e6e:	3501      	adds	r5, #1
                                     ( ( SX1276Read( REG_SYNCCONFIG ) & ~RF_SYNCCONFIG_SYNCSIZE_MASK ) + 1 ) +
     e70:	f020 00f8 	bic.w	r0, r0, #248	; 0xf8
     e74:	4428      	add	r0, r5
     e76:	f7ff fa95 	bl	3a4 <__aeabi_i2d>
                                     ( ( SX1276.Settings.Fsk.FixLen == 0x01 ) ? 0.0 : 1.0 ) +
     e7a:	f894 30fe 	ldrb.w	r3, [r4, #254]	; 0xfe
     e7e:	2200      	movs	r2, #0
     e80:	2b00      	cmp	r3, #0
     e82:	d13c      	bne.n	efe <SX1276GetTimeOnAir+0xae>
     e84:	4b69      	ldr	r3, [pc, #420]	; (102c <SX1276GetTimeOnAir+0x1dc>)
                                     ( ( SX1276Read( REG_SYNCCONFIG ) & ~RF_SYNCCONFIG_SYNCSIZE_MASK ) + 1 ) +
     e86:	f7ff f941 	bl	10c <__adddf3>
     e8a:	4606      	mov	r6, r0
                                     ( ( ( SX1276Read( REG_PACKETCONFIG1 ) & ~RF_PACKETCONFIG1_ADDRSFILTERING_MASK ) != 0x00 ) ? 1.0 : 0 ) +
     e8c:	2030      	movs	r0, #48	; 0x30
                                     ( ( SX1276Read( REG_SYNCCONFIG ) & ~RF_SYNCCONFIG_SYNCSIZE_MASK ) + 1 ) +
     e8e:	460f      	mov	r7, r1
                                     ( ( ( SX1276Read( REG_PACKETCONFIG1 ) & ~RF_PACKETCONFIG1_ADDRSFILTERING_MASK ) != 0x00 ) ? 1.0 : 0 ) +
     e90:	f007 fe37 	bl	8b02 <SX1276Read>
     e94:	f030 03f9 	bics.w	r3, r0, #249	; 0xf9
     e98:	bf14      	ite	ne
     e9a:	4b64      	ldrne	r3, [pc, #400]	; (102c <SX1276GetTimeOnAir+0x1dc>)
     e9c:	2300      	moveq	r3, #0
     e9e:	2200      	movs	r2, #0
                                     ( ( SX1276.Settings.Fsk.FixLen == 0x01 ) ? 0.0 : 1.0 ) +
     ea0:	4630      	mov	r0, r6
     ea2:	4639      	mov	r1, r7
     ea4:	f7ff f932 	bl	10c <__adddf3>
     ea8:	4606      	mov	r6, r0
                                     ( ( ( SX1276Read( REG_PACKETCONFIG1 ) & ~RF_PACKETCONFIG1_ADDRSFILTERING_MASK ) != 0x00 ) ? 1.0 : 0 ) +
     eaa:	4640      	mov	r0, r8
                                     ( ( SX1276.Settings.Fsk.FixLen == 0x01 ) ? 0.0 : 1.0 ) +
     eac:	460f      	mov	r7, r1
                                     ( ( ( SX1276Read( REG_PACKETCONFIG1 ) & ~RF_PACKETCONFIG1_ADDRSFILTERING_MASK ) != 0x00 ) ? 1.0 : 0 ) +
     eae:	f7ff fa79 	bl	3a4 <__aeabi_i2d>
     eb2:	4602      	mov	r2, r0
     eb4:	460b      	mov	r3, r1
     eb6:	4630      	mov	r0, r6
     eb8:	4639      	mov	r1, r7
     eba:	f7ff f927 	bl	10c <__adddf3>
                                     ( ( SX1276.Settings.Fsk.CrcOn == 0x01 ) ? 2.0 : 0 ) ) /
     ebe:	f894 3100 	ldrb.w	r3, [r4, #256]	; 0x100
     ec2:	2200      	movs	r2, #0
     ec4:	b9eb      	cbnz	r3, f02 <SX1276GetTimeOnAir+0xb2>
     ec6:	2300      	movs	r3, #0
                                     pktLen +
     ec8:	f7ff f920 	bl	10c <__adddf3>
            airTime = round( ( 8 * ( SX1276.Settings.Fsk.PreambleLen +
     ecc:	4b58      	ldr	r3, [pc, #352]	; (1030 <SX1276GetTimeOnAir+0x1e0>)
     ece:	2200      	movs	r2, #0
     ed0:	f7ff fad2 	bl	478 <__aeabi_dmul>
     ed4:	4606      	mov	r6, r0
                                     ( ( SX1276.Settings.Fsk.CrcOn == 0x01 ) ? 2.0 : 0 ) ) /
     ed6:	f8d4 00f8 	ldr.w	r0, [r4, #248]	; 0xf8
            airTime = round( ( 8 * ( SX1276.Settings.Fsk.PreambleLen +
     eda:	460f      	mov	r7, r1
                                     ( ( SX1276.Settings.Fsk.CrcOn == 0x01 ) ? 2.0 : 0 ) ) /
     edc:	f7ff fa52 	bl	384 <__aeabi_ui2d>
     ee0:	4602      	mov	r2, r0
     ee2:	460b      	mov	r3, r1
     ee4:	4630      	mov	r0, r6
     ee6:	4639      	mov	r1, r7
     ee8:	f7ff fbf0 	bl	6cc <__aeabi_ddiv>
            airTime = round( ( 8 * ( SX1276.Settings.Fsk.PreambleLen +
     eec:	4b51      	ldr	r3, [pc, #324]	; (1034 <SX1276GetTimeOnAir+0x1e4>)
     eee:	2200      	movs	r2, #0
     ef0:	f7ff fac2 	bl	478 <__aeabi_dmul>
     ef4:	f006 fec4 	bl	7c80 <round>
            airTime = floor( tOnAir * 1000 + 0.999 );
     ef8:	f7ff fd80 	bl	9fc <__aeabi_d2uiz>
    return airTime;
     efc:	e7af      	b.n	e5e <SX1276GetTimeOnAir+0xe>
                                     ( ( SX1276.Settings.Fsk.FixLen == 0x01 ) ? 0.0 : 1.0 ) +
     efe:	2300      	movs	r3, #0
     f00:	e7c1      	b.n	e86 <SX1276GetTimeOnAir+0x36>
                                     ( ( SX1276.Settings.Fsk.CrcOn == 0x01 ) ? 2.0 : 0 ) ) /
     f02:	f04f 4380 	mov.w	r3, #1073741824	; 0x40000000
     f06:	e7df      	b.n	ec8 <SX1276GetTimeOnAir+0x78>
            switch( SX1276.Settings.LoRa.Bandwidth )
     f08:	4a47      	ldr	r2, [pc, #284]	; (1028 <SX1276GetTimeOnAir+0x1d8>)
     f0a:	f8d2 3120 	ldr.w	r3, [r2, #288]	; 0x120
     f0e:	3b07      	subs	r3, #7
     f10:	2b02      	cmp	r3, #2
     f12:	4692      	mov	sl, r2
     f14:	d87f      	bhi.n	1016 <SX1276GetTimeOnAir+0x1c6>
     f16:	4a48      	ldr	r2, [pc, #288]	; (1038 <SX1276GetTimeOnAir+0x1e8>)
     f18:	eb02 03c3 	add.w	r3, r2, r3, lsl #3
     f1c:	e9d3 4500 	ldrd	r4, r5, [r3]
            double rs = bw / ( 1 << SX1276.Settings.LoRa.Datarate );
     f20:	f8da b124 	ldr.w	fp, [sl, #292]	; 0x124
     f24:	2001      	movs	r0, #1
     f26:	fa00 f00b 	lsl.w	r0, r0, fp
     f2a:	f7ff fa3b 	bl	3a4 <__aeabi_i2d>
     f2e:	4602      	mov	r2, r0
     f30:	460b      	mov	r3, r1
     f32:	4620      	mov	r0, r4
     f34:	4629      	mov	r1, r5
     f36:	f7ff fbc9 	bl	6cc <__aeabi_ddiv>
     f3a:	4602      	mov	r2, r0
     f3c:	460b      	mov	r3, r1
            double ts = 1 / rs;
     f3e:	2000      	movs	r0, #0
     f40:	493a      	ldr	r1, [pc, #232]	; (102c <SX1276GetTimeOnAir+0x1dc>)
     f42:	f7ff fbc3 	bl	6cc <__aeabi_ddiv>
     f46:	4604      	mov	r4, r0
            double tPreamble = ( SX1276.Settings.LoRa.PreambleLen + 4.25 ) * ts;
     f48:	f8ba 012a 	ldrh.w	r0, [sl, #298]	; 0x12a
            double ts = 1 / rs;
     f4c:	460d      	mov	r5, r1
            double tPreamble = ( SX1276.Settings.LoRa.PreambleLen + 4.25 ) * ts;
     f4e:	f7ff fa29 	bl	3a4 <__aeabi_i2d>
     f52:	4b3a      	ldr	r3, [pc, #232]	; (103c <SX1276GetTimeOnAir+0x1ec>)
     f54:	2200      	movs	r2, #0
     f56:	f7ff f8d9 	bl	10c <__adddf3>
     f5a:	4622      	mov	r2, r4
     f5c:	462b      	mov	r3, r5
     f5e:	f7ff fa8b 	bl	478 <__aeabi_dmul>
                                 ( SX1276.Settings.LoRa.FixLen ? 20 : 0 ) ) /
     f62:	f89a 212c 	ldrb.w	r2, [sl, #300]	; 0x12c
                                 28 + 16 * SX1276.Settings.LoRa.CrcOn -
     f66:	f89a 312e 	ldrb.w	r3, [sl, #302]	; 0x12e
            double tPreamble = ( SX1276.Settings.LoRa.PreambleLen + 4.25 ) * ts;
     f6a:	460f      	mov	r7, r1
            double tmp = ceil( ( 8 * pktLen - 4 * SX1276.Settings.LoRa.Datarate +
     f6c:	ea4f 018b 	mov.w	r1, fp, lsl #2
     f70:	f1c1 011c 	rsb	r1, r1, #28
                                 ( SX1276.Settings.LoRa.FixLen ? 20 : 0 ) ) /
     f74:	2a00      	cmp	r2, #0
     f76:	eb01 1303 	add.w	r3, r1, r3, lsl #4
                                 28 + 16 * SX1276.Settings.LoRa.CrcOn -
     f7a:	eb03 03c8 	add.w	r3, r3, r8, lsl #3
            double tPreamble = ( SX1276.Settings.LoRa.PreambleLen + 4.25 ) * ts;
     f7e:	4606      	mov	r6, r0
                                 ( SX1276.Settings.LoRa.FixLen ? 20 : 0 ) ) /
     f80:	bf14      	ite	ne
     f82:	2014      	movne	r0, #20
     f84:	2000      	moveq	r0, #0
            double tmp = ceil( ( 8 * pktLen - 4 * SX1276.Settings.LoRa.Datarate +
     f86:	1a18      	subs	r0, r3, r0
     f88:	f7ff f9fc 	bl	384 <__aeabi_ui2d>
                                 ( ( SX1276.Settings.LoRa.LowDatarateOptimize > 0 ) ? 2 : 0 ) ) ) ) *
     f8c:	f89a 3128 	ldrb.w	r3, [sl, #296]	; 0x128
     f90:	2b00      	cmp	r3, #0
            double tmp = ceil( ( 8 * pktLen - 4 * SX1276.Settings.LoRa.Datarate +
     f92:	4680      	mov	r8, r0
                                 ( ( SX1276.Settings.LoRa.LowDatarateOptimize > 0 ) ? 2 : 0 ) ) ) ) *
     f94:	bf14      	ite	ne
     f96:	2002      	movne	r0, #2
     f98:	2000      	moveq	r0, #0
                                 ( double )( 4 * ( SX1276.Settings.LoRa.Datarate -
     f9a:	ebab 0000 	sub.w	r0, fp, r0
     f9e:	0080      	lsls	r0, r0, #2
            double tmp = ceil( ( 8 * pktLen - 4 * SX1276.Settings.LoRa.Datarate +
     fa0:	4689      	mov	r9, r1
                                 ( double )( 4 * ( SX1276.Settings.LoRa.Datarate -
     fa2:	f7ff f9ef 	bl	384 <__aeabi_ui2d>
     fa6:	4602      	mov	r2, r0
     fa8:	460b      	mov	r3, r1
            double tmp = ceil( ( 8 * pktLen - 4 * SX1276.Settings.LoRa.Datarate +
     faa:	4640      	mov	r0, r8
     fac:	4649      	mov	r1, r9
     fae:	f7ff fb8d 	bl	6cc <__aeabi_ddiv>
     fb2:	f000 fb61 	bl	1678 <ceil>
     fb6:	4680      	mov	r8, r0
                                 ( SX1276.Settings.LoRa.Coderate + 4 );
     fb8:	f89a 0129 	ldrb.w	r0, [sl, #297]	; 0x129
            double tmp = ceil( ( 8 * pktLen - 4 * SX1276.Settings.LoRa.Datarate +
     fbc:	4689      	mov	r9, r1
                                 ( ( SX1276.Settings.LoRa.LowDatarateOptimize > 0 ) ? 2 : 0 ) ) ) ) *
     fbe:	3004      	adds	r0, #4
     fc0:	f7ff f9f0 	bl	3a4 <__aeabi_i2d>
            double tmp = ceil( ( 8 * pktLen - 4 * SX1276.Settings.LoRa.Datarate +
     fc4:	4642      	mov	r2, r8
     fc6:	464b      	mov	r3, r9
     fc8:	f7ff fa56 	bl	478 <__aeabi_dmul>
            double nPayload = 8 + ( ( tmp > 0 ) ? tmp : 0 );
     fcc:	2200      	movs	r2, #0
     fce:	2300      	movs	r3, #0
            double tmp = ceil( ( 8 * pktLen - 4 * SX1276.Settings.LoRa.Datarate +
     fd0:	4680      	mov	r8, r0
     fd2:	4689      	mov	r9, r1
            double nPayload = 8 + ( ( tmp > 0 ) ? tmp : 0 );
     fd4:	f7ff fce0 	bl	998 <__aeabi_dcmpgt>
     fd8:	b918      	cbnz	r0, fe2 <SX1276GetTimeOnAir+0x192>
     fda:	f04f 0800 	mov.w	r8, #0
     fde:	f04f 0900 	mov.w	r9, #0
     fe2:	4b13      	ldr	r3, [pc, #76]	; (1030 <SX1276GetTimeOnAir+0x1e0>)
     fe4:	2200      	movs	r2, #0
     fe6:	4640      	mov	r0, r8
     fe8:	4649      	mov	r1, r9
     fea:	f7ff f88f 	bl	10c <__adddf3>
            double tPayload = nPayload * ts;
     fee:	4622      	mov	r2, r4
     ff0:	462b      	mov	r3, r5
     ff2:	f7ff fa41 	bl	478 <__aeabi_dmul>
            double tOnAir = tPreamble + tPayload;
     ff6:	4632      	mov	r2, r6
     ff8:	463b      	mov	r3, r7
     ffa:	f7ff f887 	bl	10c <__adddf3>
            airTime = floor( tOnAir * 1000 + 0.999 );
     ffe:	4b0d      	ldr	r3, [pc, #52]	; (1034 <SX1276GetTimeOnAir+0x1e4>)
    1000:	2200      	movs	r2, #0
    1002:	f7ff fa39 	bl	478 <__aeabi_dmul>
    1006:	a306      	add	r3, pc, #24	; (adr r3, 1020 <SX1276GetTimeOnAir+0x1d0>)
    1008:	e9d3 2300 	ldrd	r2, r3, [r3]
    100c:	f7ff f87e 	bl	10c <__adddf3>
    1010:	f000 fc1a 	bl	1848 <floor>
    1014:	e770      	b.n	ef8 <SX1276GetTimeOnAir+0xa8>
            switch( SX1276.Settings.LoRa.Bandwidth )
    1016:	2400      	movs	r4, #0
    1018:	2500      	movs	r5, #0
    101a:	e781      	b.n	f20 <SX1276GetTimeOnAir+0xd0>
    101c:	f3af 8000 	nop.w
    1020:	d916872b 	.word	0xd916872b
    1024:	3feff7ce 	.word	0x3feff7ce
    1028:	20000734 	.word	0x20000734
    102c:	3ff00000 	.word	0x3ff00000
    1030:	40200000 	.word	0x40200000
    1034:	408f4000 	.word	0x408f4000
    1038:	00009438 	.word	0x00009438
    103c:	40110000 	.word	0x40110000

00001040 <SX1276SetRxConfig>:
{
    1040:	e92d 4ff0 	stmdb	sp!, {r4, r5, r6, r7, r8, r9, sl, fp, lr}
    1044:	b089      	sub	sp, #36	; 0x24
    1046:	4699      	mov	r9, r3
    1048:	9b12      	ldr	r3, [sp, #72]	; 0x48
    104a:	9304      	str	r3, [sp, #16]
    104c:	f8bd 3050 	ldrh.w	r3, [sp, #80]	; 0x50
    1050:	9301      	str	r3, [sp, #4]
    1052:	f89d 3064 	ldrb.w	r3, [sp, #100]	; 0x64
    1056:	9302      	str	r3, [sp, #8]
    1058:	4683      	mov	fp, r0
    105a:	f89d 306c 	ldrb.w	r3, [sp, #108]	; 0x6c
    105e:	9305      	str	r3, [sp, #20]
    1060:	460c      	mov	r4, r1
    1062:	4690      	mov	r8, r2
    1064:	f89d 1060 	ldrb.w	r1, [sp, #96]	; 0x60
    1068:	f89d 2068 	ldrb.w	r2, [sp, #104]	; 0x68
    106c:	9206      	str	r2, [sp, #24]
    106e:	f8bd 604c 	ldrh.w	r6, [sp, #76]	; 0x4c
    1072:	f89d 5054 	ldrb.w	r5, [sp, #84]	; 0x54
    1076:	f89d 7058 	ldrb.w	r7, [sp, #88]	; 0x58
    107a:	f89d a05c 	ldrb.w	sl, [sp, #92]	; 0x5c
    107e:	9107      	str	r1, [sp, #28]
    SX1276SetModem( modem );
    1080:	f004 fa3e 	bl	5500 <SX1276SetModem>
    switch( modem )
    1084:	e9dd 3205 	ldrd	r3, r2, [sp, #20]
    1088:	f1bb 0f00 	cmp.w	fp, #0
    108c:	d007      	beq.n	109e <SX1276SetRxConfig+0x5e>
    108e:	f1bb 0f01 	cmp.w	fp, #1
    1092:	9907      	ldr	r1, [sp, #28]
    1094:	f000 8089 	beq.w	11aa <SX1276SetRxConfig+0x16a>
}
    1098:	b009      	add	sp, #36	; 0x24
    109a:	e8bd 8ff0 	ldmia.w	sp!, {r4, r5, r6, r7, r8, r9, sl, fp, pc}
            SX1276.Settings.Fsk.Bandwidth = bandwidth;
    109e:	f8df b29c 	ldr.w	fp, [pc, #668]	; 133c <SX1276SetRxConfig+0x2fc>
            SX1276.Settings.Fsk.BandwidthAfc = bandwidthAfc;
    10a2:	9904      	ldr	r1, [sp, #16]
            SX1276.Settings.Fsk.Datarate = datarate;
    10a4:	f8cb 80f8 	str.w	r8, [fp, #248]	; 0xf8
            SX1276.Settings.Fsk.IqInverted = iqInverted;
    10a8:	f88b 2101 	strb.w	r2, [fp, #257]	; 0x101
            SX1276.Settings.Fsk.RxContinuous = rxContinuous;
    10ac:	f88b 3102 	strb.w	r3, [fp, #258]	; 0x102
            SX1276.Settings.Fsk.RxSingleTimeout = ( uint32_t )( symbTimeout * ( ( 1.0 / ( double )datarate ) * 8.0 ) * 1000 );
    10b0:	4640      	mov	r0, r8
            SX1276.Settings.Fsk.Bandwidth = bandwidth;
    10b2:	f8cb 40f0 	str.w	r4, [fp, #240]	; 0xf0
            SX1276.Settings.Fsk.BandwidthAfc = bandwidthAfc;
    10b6:	f8cb 10f4 	str.w	r1, [fp, #244]	; 0xf4
            SX1276.Settings.Fsk.FixLen = fixLen;
    10ba:	f88b 50fe 	strb.w	r5, [fp, #254]	; 0xfe
            SX1276.Settings.Fsk.PayloadLen = payloadLen;
    10be:	f88b 70ff 	strb.w	r7, [fp, #255]	; 0xff
            SX1276.Settings.Fsk.CrcOn = crcOn;
    10c2:	f88b a100 	strb.w	sl, [fp, #256]	; 0x100
            SX1276.Settings.Fsk.PreambleLen = preambleLen;
    10c6:	f8ab 60fc 	strh.w	r6, [fp, #252]	; 0xfc
            SX1276.Settings.Fsk.RxSingleTimeout = ( uint32_t )( symbTimeout * ( ( 1.0 / ( double )datarate ) * 8.0 ) * 1000 );
    10ca:	f7ff f95b 	bl	384 <__aeabi_ui2d>
    10ce:	4680      	mov	r8, r0
    10d0:	4602      	mov	r2, r0
    10d2:	460b      	mov	r3, r1
    10d4:	4689      	mov	r9, r1
    10d6:	2000      	movs	r0, #0
    10d8:	4995      	ldr	r1, [pc, #596]	; (1330 <SX1276SetRxConfig+0x2f0>)
    10da:	f7ff faf7 	bl	6cc <__aeabi_ddiv>
    10de:	4b95      	ldr	r3, [pc, #596]	; (1334 <SX1276SetRxConfig+0x2f4>)
    10e0:	2200      	movs	r2, #0
    10e2:	f7ff f9c9 	bl	478 <__aeabi_dmul>
    10e6:	e9cd 0102 	strd	r0, r1, [sp, #8]
    10ea:	9801      	ldr	r0, [sp, #4]
    10ec:	f7ff f95a 	bl	3a4 <__aeabi_i2d>
    10f0:	4602      	mov	r2, r0
    10f2:	460b      	mov	r3, r1
    10f4:	e9dd 0102 	ldrd	r0, r1, [sp, #8]
    10f8:	f7ff f9be 	bl	478 <__aeabi_dmul>
    10fc:	4b8e      	ldr	r3, [pc, #568]	; (1338 <SX1276SetRxConfig+0x2f8>)
    10fe:	2200      	movs	r2, #0
    1100:	f7ff f9ba 	bl	478 <__aeabi_dmul>
    1104:	f7ff fc7a 	bl	9fc <__aeabi_d2uiz>
            datarate = ( uint16_t )( ( double )XTAL_FREQ / ( double )datarate );
    1108:	4642      	mov	r2, r8
    110a:	464b      	mov	r3, r9
            SX1276.Settings.Fsk.RxSingleTimeout = ( uint32_t )( symbTimeout * ( ( 1.0 / ( double )datarate ) * 8.0 ) * 1000 );
    110c:	f8cb 0108 	str.w	r0, [fp, #264]	; 0x108
            datarate = ( uint16_t )( ( double )XTAL_FREQ / ( double )datarate );
    1110:	a185      	add	r1, pc, #532	; (adr r1, 1328 <SX1276SetRxConfig+0x2e8>)
    1112:	e9d1 0100 	ldrd	r0, r1, [r1]
    1116:	f7ff fad9 	bl	6cc <__aeabi_ddiv>
    111a:	f7ff fc6f 	bl	9fc <__aeabi_d2uiz>
            SX1276Write( REG_BITRATEMSB, ( uint8_t )( datarate >> 8 ) );
    111e:	f3c0 2107 	ubfx	r1, r0, #8, #8
            datarate = ( uint16_t )( ( double )XTAL_FREQ / ( double )datarate );
    1122:	fa1f f880 	uxth.w	r8, r0
            SX1276Write( REG_BITRATEMSB, ( uint8_t )( datarate >> 8 ) );
    1126:	2002      	movs	r0, #2
    1128:	f007 fce0 	bl	8aec <SX1276Write>
            SX1276Write( REG_BITRATELSB, ( uint8_t )( datarate & 0xFF ) );
    112c:	fa5f f188 	uxtb.w	r1, r8
    1130:	2003      	movs	r0, #3
    1132:	f007 fcdb 	bl	8aec <SX1276Write>
            SX1276Write( REG_RXBW, GetFskBandwidthRegValue( bandwidth ) );
    1136:	4620      	mov	r0, r4
    1138:	f003 fff8 	bl	512c <GetFskBandwidthRegValue>
    113c:	4601      	mov	r1, r0
    113e:	2012      	movs	r0, #18
    1140:	f007 fcd4 	bl	8aec <SX1276Write>
            SX1276Write( REG_AFCBW, GetFskBandwidthRegValue( bandwidthAfc ) );
    1144:	9804      	ldr	r0, [sp, #16]
    1146:	f003 fff1 	bl	512c <GetFskBandwidthRegValue>
    114a:	4601      	mov	r1, r0
    114c:	2013      	movs	r0, #19
    114e:	f007 fccd 	bl	8aec <SX1276Write>
            SX1276Write( REG_PREAMBLEMSB, ( uint8_t )( ( preambleLen >> 8 ) & 0xFF ) );
    1152:	0a31      	lsrs	r1, r6, #8
    1154:	2025      	movs	r0, #37	; 0x25
    1156:	f007 fcc9 	bl	8aec <SX1276Write>
            SX1276Write( REG_PREAMBLELSB, ( uint8_t )( preambleLen & 0xFF ) );
    115a:	b2f1      	uxtb	r1, r6
    115c:	2026      	movs	r0, #38	; 0x26
    115e:	f007 fcc5 	bl	8aec <SX1276Write>
            if( fixLen == 1 )
    1162:	b305      	cbz	r5, 11a6 <SX1276SetRxConfig+0x166>
                SX1276Write( REG_PAYLOADLENGTH, payloadLen );
    1164:	4639      	mov	r1, r7
                SX1276Write( REG_PAYLOADLENGTH, 0xFF ); // Set payload length to the maximum
    1166:	2032      	movs	r0, #50	; 0x32
    1168:	f007 fcc0 	bl	8aec <SX1276Write>
                         ( SX1276Read( REG_PACKETCONFIG1 ) &
    116c:	2030      	movs	r0, #48	; 0x30
    116e:	f007 fcc8 	bl	8b02 <SX1276Read>
                           RF_PACKETCONFIG1_PACKETFORMAT_MASK ) |
    1172:	2d00      	cmp	r5, #0
                           RF_PACKETCONFIG1_CRC_MASK &
    1174:	f000 016f 	and.w	r1, r0, #111	; 0x6f
                           ( ( fixLen == 1 ) ? RF_PACKETCONFIG1_PACKETFORMAT_FIXED : RF_PACKETCONFIG1_PACKETFORMAT_VARIABLE ) |
    1178:	ea41 110a 	orr.w	r1, r1, sl, lsl #4
                           RF_PACKETCONFIG1_PACKETFORMAT_MASK ) |
    117c:	bf14      	ite	ne
    117e:	2000      	movne	r0, #0
    1180:	f06f 007f 	mvneq.w	r0, #127	; 0x7f
                           ( ( fixLen == 1 ) ? RF_PACKETCONFIG1_PACKETFORMAT_FIXED : RF_PACKETCONFIG1_PACKETFORMAT_VARIABLE ) |
    1184:	4301      	orrs	r1, r0
            SX1276Write( REG_PACKETCONFIG1,
    1186:	b2c9      	uxtb	r1, r1
    1188:	2030      	movs	r0, #48	; 0x30
    118a:	f007 fcaf 	bl	8aec <SX1276Write>
            SX1276Write( REG_PACKETCONFIG2, ( SX1276Read( REG_PACKETCONFIG2 ) | RF_PACKETCONFIG2_DATAMODE_PACKET ) );
    118e:	2031      	movs	r0, #49	; 0x31
    1190:	f007 fcb7 	bl	8b02 <SX1276Read>
    1194:	f040 0140 	orr.w	r1, r0, #64	; 0x40
    1198:	b2c9      	uxtb	r1, r1
    119a:	2031      	movs	r0, #49	; 0x31
}
    119c:	b009      	add	sp, #36	; 0x24
    119e:	e8bd 4ff0 	ldmia.w	sp!, {r4, r5, r6, r7, r8, r9, sl, fp, lr}
                SX1276Write( REG_LR_DETECTIONTHRESHOLD,
    11a2:	f007 bca3 	b.w	8aec <SX1276Write>
                SX1276Write( REG_PAYLOADLENGTH, 0xFF ); // Set payload length to the maximum
    11a6:	21ff      	movs	r1, #255	; 0xff
    11a8:	e7dd      	b.n	1166 <SX1276SetRxConfig+0x126>
            if( bandwidth > 2 )
    11aa:	2c02      	cmp	r4, #2
    11ac:	d900      	bls.n	11b0 <SX1276SetRxConfig+0x170>
                while( 1 );
    11ae:	e7fe      	b.n	11ae <SX1276SetRxConfig+0x16e>
            bandwidth += 7;
    11b0:	f104 0b07 	add.w	fp, r4, #7
            SX1276.Settings.LoRa.Bandwidth = bandwidth;
    11b4:	4c61      	ldr	r4, [pc, #388]	; (133c <SX1276SetRxConfig+0x2fc>)
            SX1276.Settings.LoRa.FreqHopOn = freqHopOn;
    11b6:	f884 112f 	strb.w	r1, [r4, #303]	; 0x12f
            SX1276.Settings.LoRa.HopPeriod = hopPeriod;
    11ba:	9902      	ldr	r1, [sp, #8]
    11bc:	f884 1130 	strb.w	r1, [r4, #304]	; 0x130
    11c0:	4641      	mov	r1, r8
    11c2:	2906      	cmp	r1, #6
    11c4:	bf38      	it	cc
    11c6:	2106      	movcc	r1, #6
    11c8:	290c      	cmp	r1, #12
            SX1276.Settings.LoRa.IqInverted = iqInverted;
    11ca:	f884 2131 	strb.w	r2, [r4, #305]	; 0x131
    11ce:	460a      	mov	r2, r1
    11d0:	bf28      	it	cs
    11d2:	220c      	movcs	r2, #12
            if( ( ( bandwidth == 7 ) && ( ( datarate == 11 ) || ( datarate == 12 ) ) ) ||
    11d4:	f1bb 0f07 	cmp.w	fp, #7
            SX1276.Settings.LoRa.Datarate = datarate;
    11d8:	e9c4 b848 	strd	fp, r8, [r4, #288]	; 0x120
            SX1276.Settings.LoRa.Coderate = coderate;
    11dc:	f884 9129 	strb.w	r9, [r4, #297]	; 0x129
            SX1276.Settings.LoRa.PreambleLen = preambleLen;
    11e0:	f8a4 612a 	strh.w	r6, [r4, #298]	; 0x12a
            SX1276.Settings.LoRa.FixLen = fixLen;
    11e4:	f884 512c 	strb.w	r5, [r4, #300]	; 0x12c
            SX1276.Settings.LoRa.PayloadLen = payloadLen;
    11e8:	f884 712d 	strb.w	r7, [r4, #301]	; 0x12d
            SX1276.Settings.LoRa.CrcOn = crcOn;
    11ec:	f884 a12e 	strb.w	sl, [r4, #302]	; 0x12e
            SX1276.Settings.LoRa.RxContinuous = rxContinuous;
    11f0:	f884 3132 	strb.w	r3, [r4, #306]	; 0x132
            if( ( ( bandwidth == 7 ) && ( ( datarate == 11 ) || ( datarate == 12 ) ) ) ||
    11f4:	d178      	bne.n	12e8 <SX1276SetRxConfig+0x2a8>
    11f6:	f1a2 030b 	sub.w	r3, r2, #11
    11fa:	2b01      	cmp	r3, #1
    11fc:	bf8c      	ite	hi
    11fe:	2300      	movhi	r3, #0
    1200:	2301      	movls	r3, #1
                         ( SX1276Read( REG_LR_MODEMCONFIG1 ) &
    1202:	201d      	movs	r0, #29
    1204:	9204      	str	r2, [sp, #16]
    1206:	f884 3128 	strb.w	r3, [r4, #296]	; 0x128
    120a:	f007 fc7a 	bl	8b02 <SX1276Read>
                           ( bandwidth << 4 ) | ( coderate << 1 ) |
    120e:	ea45 0149 	orr.w	r1, r5, r9, lsl #1
    1212:	ea41 110b 	orr.w	r1, r1, fp, lsl #4
            SX1276Write( REG_LR_MODEMCONFIG1,
    1216:	b2c9      	uxtb	r1, r1
    1218:	201d      	movs	r0, #29
    121a:	f007 fc67 	bl	8aec <SX1276Write>
                         ( SX1276Read( REG_LR_MODEMCONFIG2 ) &
    121e:	201e      	movs	r0, #30
    1220:	f007 fc6f 	bl	8b02 <SX1276Read>
                           ( ( symbTimeout >> 8 ) & ~RFLR_MODEMCONFIG2_SYMBTIMEOUTMSB_MASK ) );
    1224:	9b01      	ldr	r3, [sp, #4]
            SX1276Write( REG_LR_MODEMCONFIG2,
    1226:	9a04      	ldr	r2, [sp, #16]
                           ( ( symbTimeout >> 8 ) & ~RFLR_MODEMCONFIG2_SYMBTIMEOUTMSB_MASK ) );
    1228:	f3c3 2101 	ubfx	r1, r3, #8, #2
            SX1276Write( REG_LR_MODEMCONFIG2,
    122c:	ea41 018a 	orr.w	r1, r1, sl, lsl #2
    1230:	ea41 1102 	orr.w	r1, r1, r2, lsl #4
                           RFLR_MODEMCONFIG2_RXPAYLOADCRC_MASK &
    1234:	f000 0008 	and.w	r0, r0, #8
            SX1276Write( REG_LR_MODEMCONFIG2,
    1238:	4301      	orrs	r1, r0
    123a:	b2c9      	uxtb	r1, r1
    123c:	201e      	movs	r0, #30
    123e:	f007 fc55 	bl	8aec <SX1276Write>
                         ( SX1276Read( REG_LR_MODEMCONFIG3 ) &
    1242:	2026      	movs	r0, #38	; 0x26
    1244:	f007 fc5d 	bl	8b02 <SX1276Read>
                           ( SX1276.Settings.LoRa.LowDatarateOptimize << 3 ) );
    1248:	f894 3128 	ldrb.w	r3, [r4, #296]	; 0x128
                         ( SX1276Read( REG_LR_MODEMCONFIG3 ) &
    124c:	f020 0108 	bic.w	r1, r0, #8
                           RFLR_MODEMCONFIG3_LOWDATARATEOPTIMIZE_MASK ) |
    1250:	ea41 01c3 	orr.w	r1, r1, r3, lsl #3
            SX1276Write( REG_LR_MODEMCONFIG3,
    1254:	b2c9      	uxtb	r1, r1
    1256:	2026      	movs	r0, #38	; 0x26
    1258:	f007 fc48 	bl	8aec <SX1276Write>
            SX1276Write( REG_LR_SYMBTIMEOUTLSB, ( uint8_t )( symbTimeout & 0xFF ) );
    125c:	f89d 1004 	ldrb.w	r1, [sp, #4]
    1260:	201f      	movs	r0, #31
    1262:	f007 fc43 	bl	8aec <SX1276Write>
            SX1276Write( REG_LR_PREAMBLEMSB, ( uint8_t )( ( preambleLen >> 8 ) & 0xFF ) );
    1266:	0a31      	lsrs	r1, r6, #8
    1268:	2020      	movs	r0, #32
    126a:	f007 fc3f 	bl	8aec <SX1276Write>
            SX1276Write( REG_LR_PREAMBLELSB, ( uint8_t )( preambleLen & 0xFF ) );
    126e:	b2f1      	uxtb	r1, r6
    1270:	2021      	movs	r0, #33	; 0x21
    1272:	f007 fc3b 	bl	8aec <SX1276Write>
            if( fixLen == 1 )
    1276:	b11d      	cbz	r5, 1280 <SX1276SetRxConfig+0x240>
                SX1276Write( REG_LR_PAYLOADLENGTH, payloadLen );
    1278:	4639      	mov	r1, r7
    127a:	2022      	movs	r0, #34	; 0x22
    127c:	f007 fc36 	bl	8aec <SX1276Write>
            if( SX1276.Settings.LoRa.FreqHopOn == true )
    1280:	f894 312f 	ldrb.w	r3, [r4, #303]	; 0x12f
    1284:	b16b      	cbz	r3, 12a2 <SX1276SetRxConfig+0x262>
                SX1276Write( REG_LR_PLLHOP, ( SX1276Read( REG_LR_PLLHOP ) & RFLR_PLLHOP_FASTHOP_MASK ) | RFLR_PLLHOP_FASTHOP_ON );
    1286:	2044      	movs	r0, #68	; 0x44
    1288:	f007 fc3b 	bl	8b02 <SX1276Read>
    128c:	f060 017f 	orn	r1, r0, #127	; 0x7f
    1290:	b2c9      	uxtb	r1, r1
    1292:	2044      	movs	r0, #68	; 0x44
    1294:	f007 fc2a 	bl	8aec <SX1276Write>
                SX1276Write( REG_LR_HOPPERIOD, SX1276.Settings.LoRa.HopPeriod );
    1298:	f894 1130 	ldrb.w	r1, [r4, #304]	; 0x130
    129c:	2024      	movs	r0, #36	; 0x24
    129e:	f007 fc25 	bl	8aec <SX1276Write>
            if( ( bandwidth == 9 ) && ( SX1276.Settings.Channel > RF_MID_BAND_THRESH ) )
    12a2:	f1bb 0f09 	cmp.w	fp, #9
    12a6:	d12e      	bne.n	1306 <SX1276SetRxConfig+0x2c6>
    12a8:	f8d4 20e4 	ldr.w	r2, [r4, #228]	; 0xe4
    12ac:	4b24      	ldr	r3, [pc, #144]	; (1340 <SX1276SetRxConfig+0x300>)
    12ae:	429a      	cmp	r2, r3
                SX1276Write( REG_LR_HIGHBWOPTIMIZE1, 0x02 );
    12b0:	f04f 0102 	mov.w	r1, #2
    12b4:	f04f 0036 	mov.w	r0, #54	; 0x36
            if( ( bandwidth == 9 ) && ( SX1276.Settings.Channel > RF_MID_BAND_THRESH ) )
    12b8:	d921      	bls.n	12fe <SX1276SetRxConfig+0x2be>
                SX1276Write( REG_LR_HIGHBWOPTIMIZE1, 0x02 );
    12ba:	f007 fc17 	bl	8aec <SX1276Write>
                SX1276Write( REG_LR_HIGHBWOPTIMIZE2, 0x64 );
    12be:	2164      	movs	r1, #100	; 0x64
                SX1276Write( REG_LR_HIGHBWOPTIMIZE2, 0x7F );
    12c0:	203a      	movs	r0, #58	; 0x3a
                SX1276Write( REG_LR_HIGHBWOPTIMIZE1, 0x03 );
    12c2:	f007 fc13 	bl	8aec <SX1276Write>
            if( datarate == 6 )
    12c6:	f1b8 0f06 	cmp.w	r8, #6
                             ( SX1276Read( REG_LR_DETECTOPTIMIZE ) &
    12ca:	f04f 0031 	mov.w	r0, #49	; 0x31
            if( datarate == 6 )
    12ce:	d81d      	bhi.n	130c <SX1276SetRxConfig+0x2cc>
                             ( SX1276Read( REG_LR_DETECTOPTIMIZE ) &
    12d0:	f007 fc17 	bl	8b02 <SX1276Read>
                               RFLR_DETECTIONOPTIMIZE_MASK ) |
    12d4:	f000 01f8 	and.w	r1, r0, #248	; 0xf8
                SX1276Write( REG_LR_DETECTOPTIMIZE,
    12d8:	f041 0105 	orr.w	r1, r1, #5
    12dc:	2031      	movs	r0, #49	; 0x31
    12de:	f007 fc05 	bl	8aec <SX1276Write>
                SX1276Write( REG_LR_DETECTIONTHRESHOLD,
    12e2:	210c      	movs	r1, #12
                SX1276Write( REG_LR_DETECTIONTHRESHOLD,
    12e4:	2037      	movs	r0, #55	; 0x37
    12e6:	e759      	b.n	119c <SX1276SetRxConfig+0x15c>
            if( ( ( bandwidth == 7 ) && ( ( datarate == 11 ) || ( datarate == 12 ) ) ) ||
    12e8:	f1bb 0f08 	cmp.w	fp, #8
    12ec:	d105      	bne.n	12fa <SX1276SetRxConfig+0x2ba>
                ( ( bandwidth == 8 ) && ( datarate == 12 ) ) )
    12ee:	f1b8 0f0b 	cmp.w	r8, #11
    12f2:	bf94      	ite	ls
    12f4:	2300      	movls	r3, #0
    12f6:	2301      	movhi	r3, #1
    12f8:	e783      	b.n	1202 <SX1276SetRxConfig+0x1c2>
                SX1276.Settings.LoRa.LowDatarateOptimize = 0x00;
    12fa:	2300      	movs	r3, #0
    12fc:	e781      	b.n	1202 <SX1276SetRxConfig+0x1c2>
                SX1276Write( REG_LR_HIGHBWOPTIMIZE1, 0x02 );
    12fe:	f007 fbf5 	bl	8aec <SX1276Write>
                SX1276Write( REG_LR_HIGHBWOPTIMIZE2, 0x7F );
    1302:	217f      	movs	r1, #127	; 0x7f
    1304:	e7dc      	b.n	12c0 <SX1276SetRxConfig+0x280>
                SX1276Write( REG_LR_HIGHBWOPTIMIZE1, 0x03 );
    1306:	2103      	movs	r1, #3
    1308:	2036      	movs	r0, #54	; 0x36
    130a:	e7da      	b.n	12c2 <SX1276SetRxConfig+0x282>
                             ( SX1276Read( REG_LR_DETECTOPTIMIZE ) &
    130c:	f007 fbf9 	bl	8b02 <SX1276Read>
                             RFLR_DETECTIONOPTIMIZE_MASK ) |
    1310:	f000 01f8 	and.w	r1, r0, #248	; 0xf8
                SX1276Write( REG_LR_DETECTOPTIMIZE,
    1314:	f041 0103 	orr.w	r1, r1, #3
    1318:	2031      	movs	r0, #49	; 0x31
    131a:	f007 fbe7 	bl	8aec <SX1276Write>
                SX1276Write( REG_LR_DETECTIONTHRESHOLD,
    131e:	210a      	movs	r1, #10
    1320:	e7e0      	b.n	12e4 <SX1276SetRxConfig+0x2a4>
    1322:	bf00      	nop
    1324:	f3af 8000 	nop.w
    1328:	00000000 	.word	0x00000000
    132c:	417e8480 	.word	0x417e8480
    1330:	3ff00000 	.word	0x3ff00000
    1334:	40200000 	.word	0x40200000
    1338:	408f4000 	.word	0x408f4000
    133c:	20000734 	.word	0x20000734
    1340:	1f4add40 	.word	0x1f4add40
    1344:	00000000 	.word	0x00000000

00001348 <SX1276SetTxConfig>:
{
    1348:	e92d 4ff0 	stmdb	sp!, {r4, r5, r6, r7, r8, r9, sl, fp, lr}
    134c:	b087      	sub	sp, #28
    134e:	461d      	mov	r5, r3
    1350:	f89d 3058 	ldrb.w	r3, [sp, #88]	; 0x58
    1354:	9302      	str	r3, [sp, #8]
    1356:	4689      	mov	r9, r1
    1358:	f89d 305c 	ldrb.w	r3, [sp, #92]	; 0x5c
    135c:	9918      	ldr	r1, [sp, #96]	; 0x60
    135e:	9304      	str	r3, [sp, #16]
    1360:	4692      	mov	sl, r2
    1362:	f89d 2054 	ldrb.w	r2, [sp, #84]	; 0x54
    1366:	9205      	str	r2, [sp, #20]
    1368:	9103      	str	r1, [sp, #12]
    136a:	9001      	str	r0, [sp, #4]
    136c:	9f10      	ldr	r7, [sp, #64]	; 0x40
    136e:	f89d b044 	ldrb.w	fp, [sp, #68]	; 0x44
    1372:	f8bd 8048 	ldrh.w	r8, [sp, #72]	; 0x48
    1376:	f89d 604c 	ldrb.w	r6, [sp, #76]	; 0x4c
    137a:	f89d 4050 	ldrb.w	r4, [sp, #80]	; 0x50
    SX1276SetModem( modem );
    137e:	f004 f8bf 	bl	5500 <SX1276SetModem>
    SX1276SetRfTxPower( power );
    1382:	4648      	mov	r0, r9
    1384:	f003 fe68 	bl	5058 <SX1276SetRfTxPower>
    switch( modem )
    1388:	9a01      	ldr	r2, [sp, #4]
    138a:	e9dd 1303 	ldrd	r1, r3, [sp, #12]
    138e:	b12a      	cbz	r2, 139c <SX1276SetTxConfig+0x54>
    1390:	2a01      	cmp	r2, #1
    1392:	9a05      	ldr	r2, [sp, #20]
    1394:	d064      	beq.n	1460 <SX1276SetTxConfig+0x118>
}
    1396:	b007      	add	sp, #28
    1398:	e8bd 8ff0 	ldmia.w	sp!, {r4, r5, r6, r7, r8, r9, sl, fp, pc}
            SX1276.Settings.Fsk.Power = power;
    139c:	4a7e      	ldr	r2, [pc, #504]	; (1598 <SX1276SetTxConfig+0x250>)
            fdev = ( uint16_t )( ( double )fdev / ( double )FREQ_STEP );
    139e:	4650      	mov	r0, sl
            SX1276.Settings.Fsk.Bandwidth = bandwidth;
    13a0:	e9c2 a53b 	strd	sl, r5, [r2, #236]	; 0xec
            SX1276.Settings.Fsk.CrcOn = crcOn;
    13a4:	f882 4100 	strb.w	r4, [r2, #256]	; 0x100
            SX1276.Settings.Fsk.Power = power;
    13a8:	f882 90e8 	strb.w	r9, [r2, #232]	; 0xe8
            SX1276.Settings.Fsk.Datarate = datarate;
    13ac:	f8c2 70f8 	str.w	r7, [r2, #248]	; 0xf8
            SX1276.Settings.Fsk.PreambleLen = preambleLen;
    13b0:	f8a2 80fc 	strh.w	r8, [r2, #252]	; 0xfc
            SX1276.Settings.Fsk.FixLen = fixLen;
    13b4:	f882 60fe 	strb.w	r6, [r2, #254]	; 0xfe
            SX1276.Settings.Fsk.IqInverted = iqInverted;
    13b8:	f882 3101 	strb.w	r3, [r2, #257]	; 0x101
            SX1276.Settings.Fsk.TxTimeout = timeout;
    13bc:	f8c2 1104 	str.w	r1, [r2, #260]	; 0x104
            fdev = ( uint16_t )( ( double )fdev / ( double )FREQ_STEP );
    13c0:	f7fe ffe0 	bl	384 <__aeabi_ui2d>
    13c4:	a370      	add	r3, pc, #448	; (adr r3, 1588 <SX1276SetTxConfig+0x240>)
    13c6:	e9d3 2300 	ldrd	r2, r3, [r3]
    13ca:	f7ff f97f 	bl	6cc <__aeabi_ddiv>
    13ce:	f7ff fb15 	bl	9fc <__aeabi_d2uiz>
    13d2:	b285      	uxth	r5, r0
            SX1276Write( REG_FDEVMSB, ( uint8_t )( fdev >> 8 ) );
    13d4:	f3c0 2107 	ubfx	r1, r0, #8, #8
    13d8:	2004      	movs	r0, #4
    13da:	f007 fb87 	bl	8aec <SX1276Write>
            SX1276Write( REG_FDEVLSB, ( uint8_t )( fdev & 0xFF ) );
    13de:	b2e9      	uxtb	r1, r5
    13e0:	2005      	movs	r0, #5
    13e2:	f007 fb83 	bl	8aec <SX1276Write>
            datarate = ( uint16_t )( ( double )XTAL_FREQ / ( double )datarate );
    13e6:	4638      	mov	r0, r7
    13e8:	f7fe ffcc 	bl	384 <__aeabi_ui2d>
    13ec:	4602      	mov	r2, r0
    13ee:	460b      	mov	r3, r1
    13f0:	a167      	add	r1, pc, #412	; (adr r1, 1590 <SX1276SetTxConfig+0x248>)
    13f2:	e9d1 0100 	ldrd	r0, r1, [r1]
    13f6:	f7ff f969 	bl	6cc <__aeabi_ddiv>
    13fa:	f7ff faff 	bl	9fc <__aeabi_d2uiz>
            SX1276Write( REG_BITRATEMSB, ( uint8_t )( datarate >> 8 ) );
    13fe:	f3c0 2107 	ubfx	r1, r0, #8, #8
            datarate = ( uint16_t )( ( double )XTAL_FREQ / ( double )datarate );
    1402:	b285      	uxth	r5, r0
            SX1276Write( REG_BITRATEMSB, ( uint8_t )( datarate >> 8 ) );
    1404:	2002      	movs	r0, #2
    1406:	f007 fb71 	bl	8aec <SX1276Write>
            SX1276Write( REG_BITRATELSB, ( uint8_t )( datarate & 0xFF ) );
    140a:	b2e9      	uxtb	r1, r5
    140c:	2003      	movs	r0, #3
    140e:	f007 fb6d 	bl	8aec <SX1276Write>
            SX1276Write( REG_PREAMBLEMSB, ( preambleLen >> 8 ) & 0x00FF );
    1412:	ea4f 2118 	mov.w	r1, r8, lsr #8
    1416:	2025      	movs	r0, #37	; 0x25
    1418:	f007 fb68 	bl	8aec <SX1276Write>
            SX1276Write( REG_PREAMBLELSB, preambleLen & 0xFF );
    141c:	fa5f f188 	uxtb.w	r1, r8
    1420:	2026      	movs	r0, #38	; 0x26
    1422:	f007 fb63 	bl	8aec <SX1276Write>
                         ( SX1276Read( REG_PACKETCONFIG1 ) &
    1426:	2030      	movs	r0, #48	; 0x30
    1428:	f007 fb6b 	bl	8b02 <SX1276Read>
                           RF_PACKETCONFIG1_PACKETFORMAT_MASK ) |
    142c:	2e00      	cmp	r6, #0
                           RF_PACKETCONFIG1_CRC_MASK &
    142e:	f000 006f 	and.w	r0, r0, #111	; 0x6f
                           RF_PACKETCONFIG1_PACKETFORMAT_MASK ) |
    1432:	bf14      	ite	ne
    1434:	2100      	movne	r1, #0
    1436:	f06f 017f 	mvneq.w	r1, #127	; 0x7f
                           ( ( fixLen == 1 ) ? RF_PACKETCONFIG1_PACKETFORMAT_FIXED : RF_PACKETCONFIG1_PACKETFORMAT_VARIABLE ) |
    143a:	ea40 1404 	orr.w	r4, r0, r4, lsl #4
    143e:	4321      	orrs	r1, r4
            SX1276Write( REG_PACKETCONFIG1,
    1440:	b2c9      	uxtb	r1, r1
    1442:	2030      	movs	r0, #48	; 0x30
    1444:	f007 fb52 	bl	8aec <SX1276Write>
            SX1276Write( REG_PACKETCONFIG2, ( SX1276Read( REG_PACKETCONFIG2 ) | RF_PACKETCONFIG2_DATAMODE_PACKET ) );
    1448:	2031      	movs	r0, #49	; 0x31
    144a:	f007 fb5a 	bl	8b02 <SX1276Read>
    144e:	f040 0140 	orr.w	r1, r0, #64	; 0x40
    1452:	b2c9      	uxtb	r1, r1
    1454:	2031      	movs	r0, #49	; 0x31
}
    1456:	b007      	add	sp, #28
    1458:	e8bd 4ff0 	ldmia.w	sp!, {r4, r5, r6, r7, r8, r9, sl, fp, lr}
                SX1276Write( REG_LR_DETECTIONTHRESHOLD,
    145c:	f007 bb46 	b.w	8aec <SX1276Write>
            SX1276.Settings.LoRa.Power = power;
    1460:	484d      	ldr	r0, [pc, #308]	; (1598 <SX1276SetTxConfig+0x250>)
            if( bandwidth > 2 )
    1462:	2d02      	cmp	r5, #2
            SX1276.Settings.LoRa.Power = power;
    1464:	f880 911c 	strb.w	r9, [r0, #284]	; 0x11c
            if( bandwidth > 2 )
    1468:	4681      	mov	r9, r0
    146a:	d900      	bls.n	146e <SX1276SetTxConfig+0x126>
                while( 1 );
    146c:	e7fe      	b.n	146c <SX1276SetTxConfig+0x124>
            bandwidth += 7;
    146e:	2f06      	cmp	r7, #6
    1470:	46ba      	mov	sl, r7
    1472:	bf38      	it	cc
    1474:	f04f 0a06 	movcc.w	sl, #6
    1478:	3507      	adds	r5, #7
            SX1276.Settings.LoRa.Bandwidth = bandwidth;
    147a:	f1ba 0f0c 	cmp.w	sl, #12
            SX1276.Settings.LoRa.Datarate = datarate;
    147e:	e9c0 5748 	strd	r5, r7, [r0, #288]	; 0x120
            SX1276.Settings.LoRa.Coderate = coderate;
    1482:	f880 b129 	strb.w	fp, [r0, #297]	; 0x129
            SX1276.Settings.LoRa.PreambleLen = preambleLen;
    1486:	f8a0 812a 	strh.w	r8, [r0, #298]	; 0x12a
            SX1276.Settings.LoRa.FixLen = fixLen;
    148a:	f880 612c 	strb.w	r6, [r0, #300]	; 0x12c
            SX1276.Settings.LoRa.FreqHopOn = freqHopOn;
    148e:	f880 212f 	strb.w	r2, [r0, #303]	; 0x12f
            SX1276.Settings.LoRa.HopPeriod = hopPeriod;
    1492:	bf28      	it	cs
    1494:	f04f 0a0c 	movcs.w	sl, #12
    1498:	9802      	ldr	r0, [sp, #8]
    149a:	f889 0130 	strb.w	r0, [r9, #304]	; 0x130
            if( ( ( bandwidth == 7 ) && ( ( datarate == 11 ) || ( datarate == 12 ) ) ) ||
    149e:	2d07      	cmp	r5, #7
            SX1276.Settings.LoRa.CrcOn = crcOn;
    14a0:	f889 412e 	strb.w	r4, [r9, #302]	; 0x12e
            SX1276.Settings.LoRa.IqInverted = iqInverted;
    14a4:	f889 3131 	strb.w	r3, [r9, #305]	; 0x131
            SX1276.Settings.LoRa.TxTimeout = timeout;
    14a8:	f8c9 1134 	str.w	r1, [r9, #308]	; 0x134
            if( ( ( bandwidth == 7 ) && ( ( datarate == 11 ) || ( datarate == 12 ) ) ) ||
    14ac:	d157      	bne.n	155e <SX1276SetTxConfig+0x216>
    14ae:	f1aa 030b 	sub.w	r3, sl, #11
    14b2:	2b01      	cmp	r3, #1
    14b4:	bf8c      	ite	hi
    14b6:	2300      	movhi	r3, #0
    14b8:	2301      	movls	r3, #1
    14ba:	f889 3128 	strb.w	r3, [r9, #296]	; 0x128
            if( SX1276.Settings.LoRa.FreqHopOn == true )
    14be:	b16a      	cbz	r2, 14dc <SX1276SetTxConfig+0x194>
                SX1276Write( REG_LR_PLLHOP, ( SX1276Read( REG_LR_PLLHOP ) & RFLR_PLLHOP_FASTHOP_MASK ) | RFLR_PLLHOP_FASTHOP_ON );
    14c0:	2044      	movs	r0, #68	; 0x44
    14c2:	f007 fb1e 	bl	8b02 <SX1276Read>
    14c6:	f060 017f 	orn	r1, r0, #127	; 0x7f
    14ca:	b2c9      	uxtb	r1, r1
    14cc:	2044      	movs	r0, #68	; 0x44
    14ce:	f007 fb0d 	bl	8aec <SX1276Write>
                SX1276Write( REG_LR_HOPPERIOD, SX1276.Settings.LoRa.HopPeriod );
    14d2:	f899 1130 	ldrb.w	r1, [r9, #304]	; 0x130
    14d6:	2024      	movs	r0, #36	; 0x24
    14d8:	f007 fb08 	bl	8aec <SX1276Write>
                           ( bandwidth << 4 ) | ( coderate << 1 ) |
    14dc:	ea46 064b 	orr.w	r6, r6, fp, lsl #1
                         ( SX1276Read( REG_LR_MODEMCONFIG1 ) &
    14e0:	201d      	movs	r0, #29
                           ( bandwidth << 4 ) | ( coderate << 1 ) |
    14e2:	ea46 1505 	orr.w	r5, r6, r5, lsl #4
                         ( SX1276Read( REG_LR_MODEMCONFIG1 ) &
    14e6:	f007 fb0c 	bl	8b02 <SX1276Read>
            SX1276Write( REG_LR_MODEMCONFIG1,
    14ea:	b2e9      	uxtb	r1, r5
    14ec:	201d      	movs	r0, #29
    14ee:	f007 fafd 	bl	8aec <SX1276Write>
                         ( SX1276Read( REG_LR_MODEMCONFIG2 ) &
    14f2:	201e      	movs	r0, #30
    14f4:	f007 fb05 	bl	8b02 <SX1276Read>
                           ( datarate << 4 ) | ( crcOn << 2 ) );
    14f8:	00a4      	lsls	r4, r4, #2
                           RFLR_MODEMCONFIG2_SF_MASK &
    14fa:	f000 000b 	and.w	r0, r0, #11
            SX1276Write( REG_LR_MODEMCONFIG2,
    14fe:	ea44 1a0a 	orr.w	sl, r4, sl, lsl #4
    1502:	ea4a 0a00 	orr.w	sl, sl, r0
    1506:	fa5f f18a 	uxtb.w	r1, sl
    150a:	201e      	movs	r0, #30
    150c:	f007 faee 	bl	8aec <SX1276Write>
                         ( SX1276Read( REG_LR_MODEMCONFIG3 ) &
    1510:	2026      	movs	r0, #38	; 0x26
    1512:	f007 faf6 	bl	8b02 <SX1276Read>
                           ( SX1276.Settings.LoRa.LowDatarateOptimize << 3 ) );
    1516:	f899 3128 	ldrb.w	r3, [r9, #296]	; 0x128
                         ( SX1276Read( REG_LR_MODEMCONFIG3 ) &
    151a:	f020 0108 	bic.w	r1, r0, #8
                           RFLR_MODEMCONFIG3_LOWDATARATEOPTIMIZE_MASK ) |
    151e:	ea41 01c3 	orr.w	r1, r1, r3, lsl #3
            SX1276Write( REG_LR_MODEMCONFIG3,
    1522:	b2c9      	uxtb	r1, r1
    1524:	2026      	movs	r0, #38	; 0x26
    1526:	f007 fae1 	bl	8aec <SX1276Write>
            SX1276Write( REG_LR_PREAMBLEMSB, ( preambleLen >> 8 ) & 0x00FF );
    152a:	ea4f 2118 	mov.w	r1, r8, lsr #8
    152e:	2020      	movs	r0, #32
    1530:	f007 fadc 	bl	8aec <SX1276Write>
            SX1276Write( REG_LR_PREAMBLELSB, preambleLen & 0xFF );
    1534:	2021      	movs	r0, #33	; 0x21
    1536:	fa5f f188 	uxtb.w	r1, r8
    153a:	f007 fad7 	bl	8aec <SX1276Write>
            if( datarate == 6 )
    153e:	2f06      	cmp	r7, #6
                             ( SX1276Read( REG_LR_DETECTOPTIMIZE ) &
    1540:	f04f 0031 	mov.w	r0, #49	; 0x31
            if( datarate == 6 )
    1544:	d814      	bhi.n	1570 <SX1276SetTxConfig+0x228>
                             ( SX1276Read( REG_LR_DETECTOPTIMIZE ) &
    1546:	f007 fadc 	bl	8b02 <SX1276Read>
                               RFLR_DETECTIONOPTIMIZE_MASK ) |
    154a:	f000 01f8 	and.w	r1, r0, #248	; 0xf8
                SX1276Write( REG_LR_DETECTOPTIMIZE,
    154e:	f041 0105 	orr.w	r1, r1, #5
    1552:	2031      	movs	r0, #49	; 0x31
    1554:	f007 faca 	bl	8aec <SX1276Write>
                SX1276Write( REG_LR_DETECTIONTHRESHOLD,
    1558:	210c      	movs	r1, #12
                SX1276Write( REG_LR_DETECTIONTHRESHOLD,
    155a:	2037      	movs	r0, #55	; 0x37
    155c:	e77b      	b.n	1456 <SX1276SetTxConfig+0x10e>
            if( ( ( bandwidth == 7 ) && ( ( datarate == 11 ) || ( datarate == 12 ) ) ) ||
    155e:	2d08      	cmp	r5, #8
    1560:	d104      	bne.n	156c <SX1276SetTxConfig+0x224>
                ( ( bandwidth == 8 ) && ( datarate == 12 ) ) )
    1562:	2f0b      	cmp	r7, #11
    1564:	bf94      	ite	ls
    1566:	2300      	movls	r3, #0
    1568:	2301      	movhi	r3, #1
    156a:	e7a6      	b.n	14ba <SX1276SetTxConfig+0x172>
                SX1276.Settings.LoRa.LowDatarateOptimize = 0x00;
    156c:	2300      	movs	r3, #0
    156e:	e7a4      	b.n	14ba <SX1276SetTxConfig+0x172>
                             ( SX1276Read( REG_LR_DETECTOPTIMIZE ) &
    1570:	f007 fac7 	bl	8b02 <SX1276Read>
                             RFLR_DETECTIONOPTIMIZE_MASK ) |
    1574:	f000 01f8 	and.w	r1, r0, #248	; 0xf8
                SX1276Write( REG_LR_DETECTOPTIMIZE,
    1578:	f041 0103 	orr.w	r1, r1, #3
    157c:	2031      	movs	r0, #49	; 0x31
    157e:	f007 fab5 	bl	8aec <SX1276Write>
                SX1276Write( REG_LR_DETECTIONTHRESHOLD,
    1582:	210a      	movs	r1, #10
    1584:	e7e9      	b.n	155a <SX1276SetTxConfig+0x212>
    1586:	bf00      	nop
    1588:	00000000 	.word	0x00000000
    158c:	404e8480 	.word	0x404e8480
    1590:	00000000 	.word	0x00000000
    1594:	417e8480 	.word	0x417e8480
    1598:	20000734 	.word	0x20000734
    159c:	00000000 	.word	0x00000000

000015a0 <SX1276OnDio2Irq>:
            break;
    }
}

void SX1276OnDio2Irq( void* context )
{
    15a0:	b570      	push	{r4, r5, r6, lr}
    switch( SX1276.Settings.State )
    15a2:	4b31      	ldr	r3, [pc, #196]	; (1668 <SX1276OnDio2Irq+0xc8>)
    15a4:	f893 10e0 	ldrb.w	r1, [r3, #224]	; 0xe0
    15a8:	2901      	cmp	r1, #1
    15aa:	461c      	mov	r4, r3
    15ac:	d002      	beq.n	15b4 <SX1276OnDio2Irq+0x14>
    15ae:	2902      	cmp	r1, #2
    15b0:	d04c      	beq.n	164c <SX1276OnDio2Irq+0xac>
            }
            break;
        default:
            break;
    }
}
    15b2:	bd70      	pop	{r4, r5, r6, pc}
            switch( SX1276.Settings.Modem )
    15b4:	f893 20e1 	ldrb.w	r2, [r3, #225]	; 0xe1
    15b8:	b1ca      	cbz	r2, 15ee <SX1276OnDio2Irq+0x4e>
    15ba:	2a01      	cmp	r2, #1
    15bc:	d1f9      	bne.n	15b2 <SX1276OnDio2Irq+0x12>
                if( SX1276.Settings.LoRa.FreqHopOn == true )
    15be:	f893 312f 	ldrb.w	r3, [r3, #303]	; 0x12f
    15c2:	2b00      	cmp	r3, #0
    15c4:	d0f5      	beq.n	15b2 <SX1276OnDio2Irq+0x12>
                    SX1276Write( REG_LR_IRQFLAGS, RFLR_IRQFLAGS_FHSSCHANGEDCHANNEL );
    15c6:	2102      	movs	r1, #2
                    SX1276Write( REG_LR_IRQFLAGS, RFLR_IRQFLAGS_FHSSCHANGEDCHANNEL );
    15c8:	2012      	movs	r0, #18
    15ca:	f007 fa8f 	bl	8aec <SX1276Write>
                    if( ( RadioEvents != NULL ) && ( RadioEvents->FhssChangeChannel != NULL ) )
    15ce:	4b27      	ldr	r3, [pc, #156]	; (166c <SX1276OnDio2Irq+0xcc>)
    15d0:	681b      	ldr	r3, [r3, #0]
    15d2:	2b00      	cmp	r3, #0
    15d4:	d0ed      	beq.n	15b2 <SX1276OnDio2Irq+0x12>
    15d6:	695c      	ldr	r4, [r3, #20]
    15d8:	2c00      	cmp	r4, #0
    15da:	d0ea      	beq.n	15b2 <SX1276OnDio2Irq+0x12>
                        RadioEvents->FhssChangeChannel( ( SX1276Read( REG_LR_HOPCHANNEL ) & RFLR_HOPCHANNEL_CHANNEL_MASK ) );
    15dc:	201c      	movs	r0, #28
    15de:	f007 fa90 	bl	8b02 <SX1276Read>
    15e2:	4623      	mov	r3, r4
    15e4:	f000 003f 	and.w	r0, r0, #63	; 0x3f
}
    15e8:	e8bd 4070 	ldmia.w	sp!, {r4, r5, r6, lr}
                        RadioEvents->FhssChangeChannel( ( SX1276Read( REG_LR_HOPCHANNEL ) & RFLR_HOPCHANNEL_CHANNEL_MASK ) );
    15ec:	4718      	bx	r3
                if( SX1276.DIO4.port == NULL )
    15ee:	6e9b      	ldr	r3, [r3, #104]	; 0x68
    15f0:	b90b      	cbnz	r3, 15f6 <SX1276OnDio2Irq+0x56>
                    SX1276.Settings.FskPacketHandler.PreambleDetected = true;
    15f2:	f884 110c 	strb.w	r1, [r4, #268]	; 0x10c
                if( ( SX1276.Settings.FskPacketHandler.PreambleDetected == true ) && ( SX1276.Settings.FskPacketHandler.SyncWordDetected == false ) )
    15f6:	f8b4 510c 	ldrh.w	r5, [r4, #268]	; 0x10c
    15fa:	2d01      	cmp	r5, #1
    15fc:	d1d9      	bne.n	15b2 <SX1276OnDio2Irq+0x12>
                    TimerStop( &RxTimeoutSyncWord );
    15fe:	481c      	ldr	r0, [pc, #112]	; (1670 <SX1276OnDio2Irq+0xd0>)
    1600:	f004 fbae 	bl	5d60 <TimerStop>
                    SX1276.Settings.FskPacketHandler.RssiValue = -( SX1276Read( REG_RSSIVALUE ) >> 1 );
    1604:	2011      	movs	r0, #17
                    SX1276.Settings.FskPacketHandler.SyncWordDetected = true;
    1606:	f884 510d 	strb.w	r5, [r4, #269]	; 0x10d
                    SX1276.Settings.FskPacketHandler.RssiValue = -( SX1276Read( REG_RSSIVALUE ) >> 1 );
    160a:	f007 fa7a 	bl	8b02 <SX1276Read>
    160e:	0840      	lsrs	r0, r0, #1
    1610:	4240      	negs	r0, r0
    1612:	f884 010e 	strb.w	r0, [r4, #270]	; 0x10e
                    SX1276.Settings.FskPacketHandler.AfcValue = ( int32_t )( double )( ( ( uint16_t )SX1276Read( REG_AFCMSB ) << 8 ) |
    1616:	201b      	movs	r0, #27
    1618:	f007 fa73 	bl	8b02 <SX1276Read>
    161c:	4605      	mov	r5, r0
                                                                           ( uint16_t )SX1276Read( REG_AFCLSB ) ) *
    161e:	201c      	movs	r0, #28
    1620:	f007 fa6f 	bl	8b02 <SX1276Read>
                    SX1276.Settings.FskPacketHandler.AfcValue = ( int32_t )( double )( ( ( uint16_t )SX1276Read( REG_AFCMSB ) << 8 ) |
    1624:	ea40 2005 	orr.w	r0, r0, r5, lsl #8
    1628:	f7fe febc 	bl	3a4 <__aeabi_i2d>
                                                                           ( uint16_t )SX1276Read( REG_AFCLSB ) ) *
    162c:	a30c      	add	r3, pc, #48	; (adr r3, 1660 <SX1276OnDio2Irq+0xc0>)
    162e:	e9d3 2300 	ldrd	r2, r3, [r3]
    1632:	f7fe ff21 	bl	478 <__aeabi_dmul>
                    SX1276.Settings.FskPacketHandler.AfcValue = ( int32_t )( double )( ( ( uint16_t )SX1276Read( REG_AFCMSB ) << 8 ) |
    1636:	f7ff f9b9 	bl	9ac <__aeabi_d2iz>
    163a:	f8c4 0110 	str.w	r0, [r4, #272]	; 0x110
                    SX1276.Settings.FskPacketHandler.RxGain = ( SX1276Read( REG_LNA ) >> 5 ) & 0x07;
    163e:	200c      	movs	r0, #12
    1640:	f007 fa5f 	bl	8b02 <SX1276Read>
    1644:	0940      	lsrs	r0, r0, #5
    1646:	f884 0114 	strb.w	r0, [r4, #276]	; 0x114
    164a:	e7b2      	b.n	15b2 <SX1276OnDio2Irq+0x12>
            switch( SX1276.Settings.Modem )
    164c:	f893 20e1 	ldrb.w	r2, [r3, #225]	; 0xe1
    1650:	2a01      	cmp	r2, #1
    1652:	d1ae      	bne.n	15b2 <SX1276OnDio2Irq+0x12>
                if( SX1276.Settings.LoRa.FreqHopOn == true )
    1654:	f893 312f 	ldrb.w	r3, [r3, #303]	; 0x12f
    1658:	2b00      	cmp	r3, #0
    165a:	d0aa      	beq.n	15b2 <SX1276OnDio2Irq+0x12>
    165c:	e7b4      	b.n	15c8 <SX1276OnDio2Irq+0x28>
    165e:	bf00      	nop
    1660:	00000000 	.word	0x00000000
    1664:	404e8480 	.word	0x404e8480
    1668:	20000734 	.word	0x20000734
    166c:	20000700 	.word	0x20000700
    1670:	20000704 	.word	0x20000704
    1674:	00000000 	.word	0x00000000

00001678 <ceil>:
    1678:	b580      	push	{r7, lr}
    167a:	b08c      	sub	sp, #48	; 0x30
    167c:	af00      	add	r7, sp, #0
    167e:	e9c7 0100 	strd	r0, r1, [r7]
    1682:	e9d7 2300 	ldrd	r2, r3, [r7]
    1686:	e9c7 2304 	strd	r2, r3, [r7, #16]
    168a:	697b      	ldr	r3, [r7, #20]
    168c:	62fb      	str	r3, [r7, #44]	; 0x2c
    168e:	693b      	ldr	r3, [r7, #16]
    1690:	62bb      	str	r3, [r7, #40]	; 0x28
    1692:	6afb      	ldr	r3, [r7, #44]	; 0x2c
    1694:	151b      	asrs	r3, r3, #20
    1696:	f3c3 030a 	ubfx	r3, r3, #0, #11
    169a:	f2a3 33ff 	subw	r3, r3, #1023	; 0x3ff
    169e:	627b      	str	r3, [r7, #36]	; 0x24
    16a0:	6a7b      	ldr	r3, [r7, #36]	; 0x24
    16a2:	2b13      	cmp	r3, #19
    16a4:	dc61      	bgt.n	176a <ceil+0xf2>
    16a6:	6a7b      	ldr	r3, [r7, #36]	; 0x24
    16a8:	2b00      	cmp	r3, #0
    16aa:	da28      	bge.n	16fe <ceil+0x86>
    16ac:	a162      	add	r1, pc, #392	; (adr r1, 1838 <ceil+0x1c0>)
    16ae:	e9d1 0100 	ldrd	r0, r1, [r1]
    16b2:	e9d7 2300 	ldrd	r2, r3, [r7]
    16b6:	f7fe fd29 	bl	10c <__adddf3>
    16ba:	4602      	mov	r2, r0
    16bc:	460b      	mov	r3, r1
    16be:	4610      	mov	r0, r2
    16c0:	4619      	mov	r1, r3
    16c2:	f04f 0200 	mov.w	r2, #0
    16c6:	f04f 0300 	mov.w	r3, #0
    16ca:	f7ff f965 	bl	998 <__aeabi_dcmpgt>
    16ce:	4603      	mov	r3, r0
    16d0:	2b00      	cmp	r3, #0
    16d2:	f000 80a0 	beq.w	1816 <ceil+0x19e>
    16d6:	6afb      	ldr	r3, [r7, #44]	; 0x2c
    16d8:	2b00      	cmp	r3, #0
    16da:	da05      	bge.n	16e8 <ceil+0x70>
    16dc:	f04f 4300 	mov.w	r3, #2147483648	; 0x80000000
    16e0:	62fb      	str	r3, [r7, #44]	; 0x2c
    16e2:	2300      	movs	r3, #0
    16e4:	62bb      	str	r3, [r7, #40]	; 0x28
    16e6:	e096      	b.n	1816 <ceil+0x19e>
    16e8:	6afa      	ldr	r2, [r7, #44]	; 0x2c
    16ea:	6abb      	ldr	r3, [r7, #40]	; 0x28
    16ec:	4313      	orrs	r3, r2
    16ee:	2b00      	cmp	r3, #0
    16f0:	f000 8091 	beq.w	1816 <ceil+0x19e>
    16f4:	4b52      	ldr	r3, [pc, #328]	; (1840 <ceil+0x1c8>)
    16f6:	62fb      	str	r3, [r7, #44]	; 0x2c
    16f8:	2300      	movs	r3, #0
    16fa:	62bb      	str	r3, [r7, #40]	; 0x28
    16fc:	e08b      	b.n	1816 <ceil+0x19e>
    16fe:	4a51      	ldr	r2, [pc, #324]	; (1844 <ceil+0x1cc>)
    1700:	6a7b      	ldr	r3, [r7, #36]	; 0x24
    1702:	fa42 f303 	asr.w	r3, r2, r3
    1706:	623b      	str	r3, [r7, #32]
    1708:	6afa      	ldr	r2, [r7, #44]	; 0x2c
    170a:	6a3b      	ldr	r3, [r7, #32]
    170c:	401a      	ands	r2, r3
    170e:	6abb      	ldr	r3, [r7, #40]	; 0x28
    1710:	4313      	orrs	r3, r2
    1712:	2b00      	cmp	r3, #0
    1714:	d102      	bne.n	171c <ceil+0xa4>
    1716:	e9d7 2300 	ldrd	r2, r3, [r7]
    171a:	e086      	b.n	182a <ceil+0x1b2>
    171c:	a146      	add	r1, pc, #280	; (adr r1, 1838 <ceil+0x1c0>)
    171e:	e9d1 0100 	ldrd	r0, r1, [r1]
    1722:	e9d7 2300 	ldrd	r2, r3, [r7]
    1726:	f7fe fcf1 	bl	10c <__adddf3>
    172a:	4602      	mov	r2, r0
    172c:	460b      	mov	r3, r1
    172e:	4610      	mov	r0, r2
    1730:	4619      	mov	r1, r3
    1732:	f04f 0200 	mov.w	r2, #0
    1736:	f04f 0300 	mov.w	r3, #0
    173a:	f7ff f92d 	bl	998 <__aeabi_dcmpgt>
    173e:	4603      	mov	r3, r0
    1740:	2b00      	cmp	r3, #0
    1742:	d068      	beq.n	1816 <ceil+0x19e>
    1744:	6afb      	ldr	r3, [r7, #44]	; 0x2c
    1746:	2b00      	cmp	r3, #0
    1748:	dd07      	ble.n	175a <ceil+0xe2>
    174a:	f44f 1280 	mov.w	r2, #1048576	; 0x100000
    174e:	6a7b      	ldr	r3, [r7, #36]	; 0x24
    1750:	fa42 f303 	asr.w	r3, r2, r3
    1754:	6afa      	ldr	r2, [r7, #44]	; 0x2c
    1756:	4413      	add	r3, r2
    1758:	62fb      	str	r3, [r7, #44]	; 0x2c
    175a:	6a3b      	ldr	r3, [r7, #32]
    175c:	43da      	mvns	r2, r3
    175e:	6afb      	ldr	r3, [r7, #44]	; 0x2c
    1760:	4013      	ands	r3, r2
    1762:	62fb      	str	r3, [r7, #44]	; 0x2c
    1764:	2300      	movs	r3, #0
    1766:	62bb      	str	r3, [r7, #40]	; 0x28
    1768:	e055      	b.n	1816 <ceil+0x19e>
    176a:	6a7b      	ldr	r3, [r7, #36]	; 0x24
    176c:	2b33      	cmp	r3, #51	; 0x33
    176e:	dd0f      	ble.n	1790 <ceil+0x118>
    1770:	6a7b      	ldr	r3, [r7, #36]	; 0x24
    1772:	f5b3 6f80 	cmp.w	r3, #1024	; 0x400
    1776:	d108      	bne.n	178a <ceil+0x112>
    1778:	e9d7 0100 	ldrd	r0, r1, [r7]
    177c:	4602      	mov	r2, r0
    177e:	460b      	mov	r3, r1
    1780:	f7fe fcc4 	bl	10c <__adddf3>
    1784:	4602      	mov	r2, r0
    1786:	460b      	mov	r3, r1
    1788:	e04f      	b.n	182a <ceil+0x1b2>
    178a:	e9d7 2300 	ldrd	r2, r3, [r7]
    178e:	e04c      	b.n	182a <ceil+0x1b2>
    1790:	6a7b      	ldr	r3, [r7, #36]	; 0x24
    1792:	3b14      	subs	r3, #20
    1794:	f04f 32ff 	mov.w	r2, #4294967295	; 0xffffffff
    1798:	fa22 f303 	lsr.w	r3, r2, r3
    179c:	623b      	str	r3, [r7, #32]
    179e:	6aba      	ldr	r2, [r7, #40]	; 0x28
    17a0:	6a3b      	ldr	r3, [r7, #32]
    17a2:	4013      	ands	r3, r2
    17a4:	2b00      	cmp	r3, #0
    17a6:	d102      	bne.n	17ae <ceil+0x136>
    17a8:	e9d7 2300 	ldrd	r2, r3, [r7]
    17ac:	e03d      	b.n	182a <ceil+0x1b2>
    17ae:	a122      	add	r1, pc, #136	; (adr r1, 1838 <ceil+0x1c0>)
    17b0:	e9d1 0100 	ldrd	r0, r1, [r1]
    17b4:	e9d7 2300 	ldrd	r2, r3, [r7]
    17b8:	f7fe fca8 	bl	10c <__adddf3>
    17bc:	4602      	mov	r2, r0
    17be:	460b      	mov	r3, r1
    17c0:	4610      	mov	r0, r2
    17c2:	4619      	mov	r1, r3
    17c4:	f04f 0200 	mov.w	r2, #0
    17c8:	f04f 0300 	mov.w	r3, #0
    17cc:	f7ff f8e4 	bl	998 <__aeabi_dcmpgt>
    17d0:	4603      	mov	r3, r0
    17d2:	2b00      	cmp	r3, #0
    17d4:	d01f      	beq.n	1816 <ceil+0x19e>
    17d6:	6afb      	ldr	r3, [r7, #44]	; 0x2c
    17d8:	2b00      	cmp	r3, #0
    17da:	dd17      	ble.n	180c <ceil+0x194>
    17dc:	6a7b      	ldr	r3, [r7, #36]	; 0x24
    17de:	2b14      	cmp	r3, #20
    17e0:	d103      	bne.n	17ea <ceil+0x172>
    17e2:	6afb      	ldr	r3, [r7, #44]	; 0x2c
    17e4:	3301      	adds	r3, #1
    17e6:	62fb      	str	r3, [r7, #44]	; 0x2c
    17e8:	e010      	b.n	180c <ceil+0x194>
    17ea:	6a7b      	ldr	r3, [r7, #36]	; 0x24
    17ec:	f1c3 0334 	rsb	r3, r3, #52	; 0x34
    17f0:	2201      	movs	r2, #1
    17f2:	409a      	lsls	r2, r3
    17f4:	6abb      	ldr	r3, [r7, #40]	; 0x28
    17f6:	4413      	add	r3, r2
    17f8:	61fb      	str	r3, [r7, #28]
    17fa:	6abb      	ldr	r3, [r7, #40]	; 0x28
    17fc:	69fa      	ldr	r2, [r7, #28]
    17fe:	429a      	cmp	r2, r3
    1800:	d202      	bcs.n	1808 <ceil+0x190>
    1802:	6afb      	ldr	r3, [r7, #44]	; 0x2c
    1804:	3301      	adds	r3, #1
    1806:	62fb      	str	r3, [r7, #44]	; 0x2c
    1808:	69fb      	ldr	r3, [r7, #28]
    180a:	62bb      	str	r3, [r7, #40]	; 0x28
    180c:	6a3b      	ldr	r3, [r7, #32]
    180e:	43da      	mvns	r2, r3
    1810:	6abb      	ldr	r3, [r7, #40]	; 0x28
    1812:	4013      	ands	r3, r2
    1814:	62bb      	str	r3, [r7, #40]	; 0x28
    1816:	6afb      	ldr	r3, [r7, #44]	; 0x2c
    1818:	60fb      	str	r3, [r7, #12]
    181a:	6abb      	ldr	r3, [r7, #40]	; 0x28
    181c:	60bb      	str	r3, [r7, #8]
    181e:	e9d7 2302 	ldrd	r2, r3, [r7, #8]
    1822:	e9c7 2300 	strd	r2, r3, [r7]
    1826:	e9d7 2300 	ldrd	r2, r3, [r7]
    182a:	4610      	mov	r0, r2
    182c:	4619      	mov	r1, r3
    182e:	3730      	adds	r7, #48	; 0x30
    1830:	46bd      	mov	sp, r7
    1832:	bd80      	pop	{r7, pc}
    1834:	f3af 8000 	nop.w
    1838:	8800759c 	.word	0x8800759c
    183c:	7e37e43c 	.word	0x7e37e43c
    1840:	3ff00000 	.word	0x3ff00000
    1844:	000fffff 	.word	0x000fffff

00001848 <floor>:
    1848:	b580      	push	{r7, lr}
    184a:	b08c      	sub	sp, #48	; 0x30
    184c:	af00      	add	r7, sp, #0
    184e:	e9c7 0100 	strd	r0, r1, [r7]
    1852:	e9d7 2300 	ldrd	r2, r3, [r7]
    1856:	e9c7 2304 	strd	r2, r3, [r7, #16]
    185a:	697b      	ldr	r3, [r7, #20]
    185c:	62fb      	str	r3, [r7, #44]	; 0x2c
    185e:	693b      	ldr	r3, [r7, #16]
    1860:	62bb      	str	r3, [r7, #40]	; 0x28
    1862:	6afb      	ldr	r3, [r7, #44]	; 0x2c
    1864:	151b      	asrs	r3, r3, #20
    1866:	f3c3 030a 	ubfx	r3, r3, #0, #11
    186a:	f2a3 33ff 	subw	r3, r3, #1023	; 0x3ff
    186e:	627b      	str	r3, [r7, #36]	; 0x24
    1870:	6a7b      	ldr	r3, [r7, #36]	; 0x24
    1872:	2b13      	cmp	r3, #19
    1874:	dc62      	bgt.n	193c <floor+0xf4>
    1876:	6a7b      	ldr	r3, [r7, #36]	; 0x24
    1878:	2b00      	cmp	r3, #0
    187a:	da29      	bge.n	18d0 <floor+0x88>
    187c:	a162      	add	r1, pc, #392	; (adr r1, 1a08 <floor+0x1c0>)
    187e:	e9d1 0100 	ldrd	r0, r1, [r1]
    1882:	e9d7 2300 	ldrd	r2, r3, [r7]
    1886:	f7fe fc41 	bl	10c <__adddf3>
    188a:	4602      	mov	r2, r0
    188c:	460b      	mov	r3, r1
    188e:	4610      	mov	r0, r2
    1890:	4619      	mov	r1, r3
    1892:	f04f 0200 	mov.w	r2, #0
    1896:	f04f 0300 	mov.w	r3, #0
    189a:	f7ff f87d 	bl	998 <__aeabi_dcmpgt>
    189e:	4603      	mov	r3, r0
    18a0:	2b00      	cmp	r3, #0
    18a2:	f000 80a1 	beq.w	19e8 <floor+0x1a0>
    18a6:	6afb      	ldr	r3, [r7, #44]	; 0x2c
    18a8:	2b00      	cmp	r3, #0
    18aa:	db04      	blt.n	18b6 <floor+0x6e>
    18ac:	2300      	movs	r3, #0
    18ae:	62bb      	str	r3, [r7, #40]	; 0x28
    18b0:	6abb      	ldr	r3, [r7, #40]	; 0x28
    18b2:	62fb      	str	r3, [r7, #44]	; 0x2c
    18b4:	e098      	b.n	19e8 <floor+0x1a0>
    18b6:	6afb      	ldr	r3, [r7, #44]	; 0x2c
    18b8:	f023 4200 	bic.w	r2, r3, #2147483648	; 0x80000000
    18bc:	6abb      	ldr	r3, [r7, #40]	; 0x28
    18be:	4313      	orrs	r3, r2
    18c0:	2b00      	cmp	r3, #0
    18c2:	f000 8091 	beq.w	19e8 <floor+0x1a0>
    18c6:	4b52      	ldr	r3, [pc, #328]	; (1a10 <floor+0x1c8>)
    18c8:	62fb      	str	r3, [r7, #44]	; 0x2c
    18ca:	2300      	movs	r3, #0
    18cc:	62bb      	str	r3, [r7, #40]	; 0x28
    18ce:	e08b      	b.n	19e8 <floor+0x1a0>
    18d0:	4a50      	ldr	r2, [pc, #320]	; (1a14 <floor+0x1cc>)
    18d2:	6a7b      	ldr	r3, [r7, #36]	; 0x24
    18d4:	fa42 f303 	asr.w	r3, r2, r3
    18d8:	623b      	str	r3, [r7, #32]
    18da:	6afa      	ldr	r2, [r7, #44]	; 0x2c
    18dc:	6a3b      	ldr	r3, [r7, #32]
    18de:	401a      	ands	r2, r3
    18e0:	6abb      	ldr	r3, [r7, #40]	; 0x28
    18e2:	4313      	orrs	r3, r2
    18e4:	2b00      	cmp	r3, #0
    18e6:	d102      	bne.n	18ee <floor+0xa6>
    18e8:	e9d7 2300 	ldrd	r2, r3, [r7]
    18ec:	e086      	b.n	19fc <floor+0x1b4>
    18ee:	a146      	add	r1, pc, #280	; (adr r1, 1a08 <floor+0x1c0>)
    18f0:	e9d1 0100 	ldrd	r0, r1, [r1]
    18f4:	e9d7 2300 	ldrd	r2, r3, [r7]
    18f8:	f7fe fc08 	bl	10c <__adddf3>
    18fc:	4602      	mov	r2, r0
    18fe:	460b      	mov	r3, r1
    1900:	4610      	mov	r0, r2
    1902:	4619      	mov	r1, r3
    1904:	f04f 0200 	mov.w	r2, #0
    1908:	f04f 0300 	mov.w	r3, #0
    190c:	f7ff f844 	bl	998 <__aeabi_dcmpgt>
    1910:	4603      	mov	r3, r0
    1912:	2b00      	cmp	r3, #0
    1914:	d068      	beq.n	19e8 <floor+0x1a0>
    1916:	6afb      	ldr	r3, [r7, #44]	; 0x2c
    1918:	2b00      	cmp	r3, #0
    191a:	da07      	bge.n	192c <floor+0xe4>
    191c:	f44f 1280 	mov.w	r2, #1048576	; 0x100000
    1920:	6a7b      	ldr	r3, [r7, #36]	; 0x24
    1922:	fa42 f303 	asr.w	r3, r2, r3
    1926:	6afa      	ldr	r2, [r7, #44]	; 0x2c
    1928:	4413      	add	r3, r2
    192a:	62fb      	str	r3, [r7, #44]	; 0x2c
    192c:	6a3b      	ldr	r3, [r7, #32]
    192e:	43da      	mvns	r2, r3
    1930:	6afb      	ldr	r3, [r7, #44]	; 0x2c
    1932:	4013      	ands	r3, r2
    1934:	62fb      	str	r3, [r7, #44]	; 0x2c
    1936:	2300      	movs	r3, #0
    1938:	62bb      	str	r3, [r7, #40]	; 0x28
    193a:	e055      	b.n	19e8 <floor+0x1a0>
    193c:	6a7b      	ldr	r3, [r7, #36]	; 0x24
    193e:	2b33      	cmp	r3, #51	; 0x33
    1940:	dd0f      	ble.n	1962 <floor+0x11a>
    1942:	6a7b      	ldr	r3, [r7, #36]	; 0x24
    1944:	f5b3 6f80 	cmp.w	r3, #1024	; 0x400
    1948:	d108      	bne.n	195c <floor+0x114>
    194a:	e9d7 0100 	ldrd	r0, r1, [r7]
    194e:	4602      	mov	r2, r0
    1950:	460b      	mov	r3, r1
    1952:	f7fe fbdb 	bl	10c <__adddf3>
    1956:	4602      	mov	r2, r0
    1958:	460b      	mov	r3, r1
    195a:	e04f      	b.n	19fc <floor+0x1b4>
    195c:	e9d7 2300 	ldrd	r2, r3, [r7]
    1960:	e04c      	b.n	19fc <floor+0x1b4>
    1962:	6a7b      	ldr	r3, [r7, #36]	; 0x24
    1964:	3b14      	subs	r3, #20
    1966:	f04f 32ff 	mov.w	r2, #4294967295	; 0xffffffff
    196a:	fa22 f303 	lsr.w	r3, r2, r3
    196e:	623b      	str	r3, [r7, #32]
    1970:	6aba      	ldr	r2, [r7, #40]	; 0x28
    1972:	6a3b      	ldr	r3, [r7, #32]
    1974:	4013      	ands	r3, r2
    1976:	2b00      	cmp	r3, #0
    1978:	d102      	bne.n	1980 <floor+0x138>
    197a:	e9d7 2300 	ldrd	r2, r3, [r7]
    197e:	e03d      	b.n	19fc <floor+0x1b4>
    1980:	a121      	add	r1, pc, #132	; (adr r1, 1a08 <floor+0x1c0>)
    1982:	e9d1 0100 	ldrd	r0, r1, [r1]
    1986:	e9d7 2300 	ldrd	r2, r3, [r7]
    198a:	f7fe fbbf 	bl	10c <__adddf3>
    198e:	4602      	mov	r2, r0
    1990:	460b      	mov	r3, r1
    1992:	4610      	mov	r0, r2
    1994:	4619      	mov	r1, r3
    1996:	f04f 0200 	mov.w	r2, #0
    199a:	f04f 0300 	mov.w	r3, #0
    199e:	f7fe fffb 	bl	998 <__aeabi_dcmpgt>
    19a2:	4603      	mov	r3, r0
    19a4:	2b00      	cmp	r3, #0
    19a6:	d01f      	beq.n	19e8 <floor+0x1a0>
    19a8:	6afb      	ldr	r3, [r7, #44]	; 0x2c
    19aa:	2b00      	cmp	r3, #0
    19ac:	da17      	bge.n	19de <floor+0x196>
    19ae:	6a7b      	ldr	r3, [r7, #36]	; 0x24
    19b0:	2b14      	cmp	r3, #20
    19b2:	d103      	bne.n	19bc <floor+0x174>
    19b4:	6afb      	ldr	r3, [r7, #44]	; 0x2c
    19b6:	3301      	adds	r3, #1
    19b8:	62fb      	str	r3, [r7, #44]	; 0x2c
    19ba:	e010      	b.n	19de <floor+0x196>
    19bc:	6a7b      	ldr	r3, [r7, #36]	; 0x24
    19be:	f1c3 0334 	rsb	r3, r3, #52	; 0x34
    19c2:	2201      	movs	r2, #1
    19c4:	409a      	lsls	r2, r3
    19c6:	6abb      	ldr	r3, [r7, #40]	; 0x28
    19c8:	4413      	add	r3, r2
    19ca:	61fb      	str	r3, [r7, #28]
    19cc:	6abb      	ldr	r3, [r7, #40]	; 0x28
    19ce:	69fa      	ldr	r2, [r7, #28]
    19d0:	429a      	cmp	r2, r3
    19d2:	d202      	bcs.n	19da <floor+0x192>
    19d4:	6afb      	ldr	r3, [r7, #44]	; 0x2c
    19d6:	3301      	adds	r3, #1
    19d8:	62fb      	str	r3, [r7, #44]	; 0x2c
    19da:	69fb      	ldr	r3, [r7, #28]
    19dc:	62bb      	str	r3, [r7, #40]	; 0x28
    19de:	6a3b      	ldr	r3, [r7, #32]
    19e0:	43da      	mvns	r2, r3
    19e2:	6abb      	ldr	r3, [r7, #40]	; 0x28
    19e4:	4013      	ands	r3, r2
    19e6:	62bb      	str	r3, [r7, #40]	; 0x28
    19e8:	6afb      	ldr	r3, [r7, #44]	; 0x2c
    19ea:	60fb      	str	r3, [r7, #12]
    19ec:	6abb      	ldr	r3, [r7, #40]	; 0x28
    19ee:	60bb      	str	r3, [r7, #8]
    19f0:	e9d7 2302 	ldrd	r2, r3, [r7, #8]
    19f4:	e9c7 2300 	strd	r2, r3, [r7]
    19f8:	e9d7 2300 	ldrd	r2, r3, [r7]
    19fc:	4610      	mov	r0, r2
    19fe:	4619      	mov	r1, r3
    1a00:	3730      	adds	r7, #48	; 0x30
    1a02:	46bd      	mov	sp, r7
    1a04:	bd80      	pop	{r7, pc}
    1a06:	bf00      	nop
    1a08:	8800759c 	.word	0x8800759c
    1a0c:	7e37e43c 	.word	0x7e37e43c
    1a10:	bff00000 	.word	0xbff00000
    1a14:	000fffff 	.word	0x000fffff

00001a18 <main>:
#include <logging/log.h>
LOG_MODULE_REGISTER(lora_receive);
struct lora_modem_config config;

void main(void)
{
    1a18:	e92d 4ff0 	stmdb	sp!, {r4, r5, r6, r7, r8, r9, sl, fp, lr}
    1a1c:	b0c7      	sub	sp, #284	; 0x11c
	const struct device *lora_dev;
	int len;
	uint8_t data[MAX_DATA_LEN] = {0};
    1a1e:	2100      	movs	r1, #0
    1a20:	22fb      	movs	r2, #251	; 0xfb
    1a22:	a807      	add	r0, sp, #28
    1a24:	9106      	str	r1, [sp, #24]
    1a26:	f007 fb81 	bl	912c <memset>
	if (z_syscall_trap()) {
		return (const struct device *) arch_syscall_invoke1(*(uintptr_t *)&name, K_SYSCALL_DEVICE_GET_BINDING);
	}
#endif
	compiler_barrier();
	return z_impl_device_get_binding(name);
    1a2a:	4831      	ldr	r0, [pc, #196]	; (1af0 <main+0xd8>)
    1a2c:	4d31      	ldr	r5, [pc, #196]	; (1af4 <main+0xdc>)
    1a2e:	f004 fe83 	bl	6738 <z_impl_device_get_binding>
	int16_t rssi;
	int8_t snr;

	lora_dev = device_get_binding(DEFAULT_RADIO);
	if (!lora_dev) {
    1a32:	4b31      	ldr	r3, [pc, #196]	; (1af8 <main+0xe0>)
    1a34:	1aed      	subs	r5, r5, r3
    1a36:	08ed      	lsrs	r5, r5, #3
    1a38:	4607      	mov	r7, r0
    1a3a:	01ad      	lsls	r5, r5, #6
    1a3c:	b940      	cbnz	r0, 1a50 <main+0x38>
		LOG_ERR("%s Device not found", DEFAULT_RADIO);
    1a3e:	492c      	ldr	r1, [pc, #176]	; (1af0 <main+0xd8>)
    1a40:	482e      	ldr	r0, [pc, #184]	; (1afc <main+0xe4>)
    1a42:	f045 0201 	orr.w	r2, r5, #1
    1a46:	f006 fafa 	bl	803e <log_1>
		LOG_INF("Received data: %s (RSSI:%ddBm, SNR:%ddBm)",
			log_strdup(data), rssi, snr);

		
	}
    1a4a:	b047      	add	sp, #284	; 0x11c
    1a4c:	e8bd 8ff0 	ldmia.w	sp!, {r4, r5, r6, r7, r8, r9, sl, fp, pc}
    1a50:	4c2b      	ldr	r4, [pc, #172]	; (1b00 <main+0xe8>)
			config.frequency = frequencies[0];
    1a52:	f8df b0c0 	ldr.w	fp, [pc, #192]	; 1b14 <main+0xfc>
	bool sixEight = true;
    1a56:	2601      	movs	r6, #1
		if(sixEight) {
    1a58:	b356      	cbz	r6, 1ab0 <main+0x98>
			config.bandwidth = BW_125_KHZ;
    1a5a:	f44f 6320 	mov.w	r3, #2560	; 0xa00
    1a5e:	80a3      	strh	r3, [r4, #4]
			config.coding_rate = CR_4_5;
    1a60:	2301      	movs	r3, #1
    1a62:	71a3      	strb	r3, [r4, #6]
			config.preamble_len = 8;
    1a64:	4b27      	ldr	r3, [pc, #156]	; (1b04 <main+0xec>)
    1a66:	60a3      	str	r3, [r4, #8]
			      struct lora_modem_config *config)
{
	const struct lora_driver_api *api =
		(const struct lora_driver_api *)dev->api;

	return api->config(dev, config);
    1a68:	68bb      	ldr	r3, [r7, #8]
			config.frequency = frequencies[0];
    1a6a:	f8c4 b000 	str.w	fp, [r4]
    1a6e:	681b      	ldr	r3, [r3, #0]
    1a70:	4621      	mov	r1, r4
    1a72:	4638      	mov	r0, r7
    1a74:	4798      	blx	r3
			sixEight = false;
    1a76:	2600      	movs	r6, #0
			    k_timeout_t timeout, int16_t *rssi, int8_t *snr)
{
	const struct lora_driver_api *api =
		(const struct lora_driver_api *)dev->api;

	return api->recv(dev, data, size, timeout, rssi, snr);
    1a78:	f04f 30ff 	mov.w	r0, #4294967295	; 0xffffffff
    1a7c:	f04f 31ff 	mov.w	r1, #4294967295	; 0xffffffff
    1a80:	68bb      	ldr	r3, [r7, #8]
    1a82:	e9cd 0100 	strd	r0, r1, [sp]
    1a86:	f10d 0915 	add.w	r9, sp, #21
    1a8a:	f10d 0816 	add.w	r8, sp, #22
    1a8e:	f8cd 900c 	str.w	r9, [sp, #12]
    1a92:	f8cd 8008 	str.w	r8, [sp, #8]
    1a96:	689b      	ldr	r3, [r3, #8]
    1a98:	22ff      	movs	r2, #255	; 0xff
    1a9a:	a906      	add	r1, sp, #24
    1a9c:	4638      	mov	r0, r7
    1a9e:	4798      	blx	r3
		if (len < 0) {
    1aa0:	2800      	cmp	r0, #0
    1aa2:	da14      	bge.n	1ace <main+0xb6>
			LOG_ERR("LoRa receive failed");
    1aa4:	4818      	ldr	r0, [pc, #96]	; (1b08 <main+0xf0>)
    1aa6:	f045 0101 	orr.w	r1, r5, #1
    1aaa:	f006 fabb 	bl	8024 <log_0>
			return;
    1aae:	e7cc      	b.n	1a4a <main+0x32>
			config.frequency = frequencies[7];
    1ab0:	4a16      	ldr	r2, [pc, #88]	; (1b0c <main+0xf4>)
    1ab2:	6022      	str	r2, [r4, #0]
			config.bandwidth = BW_125_KHZ;
    1ab4:	f44f 6220 	mov.w	r2, #2560	; 0xa00
    1ab8:	68bb      	ldr	r3, [r7, #8]
    1aba:	80a2      	strh	r2, [r4, #4]
			config.coding_rate = CR_4_5;
    1abc:	2601      	movs	r6, #1
			config.preamble_len = 8;
    1abe:	4a11      	ldr	r2, [pc, #68]	; (1b04 <main+0xec>)
			config.coding_rate = CR_4_5;
    1ac0:	71a6      	strb	r6, [r4, #6]
			config.preamble_len = 8;
    1ac2:	60a2      	str	r2, [r4, #8]
	return api->config(dev, config);
    1ac4:	681b      	ldr	r3, [r3, #0]
    1ac6:	4621      	mov	r1, r4
    1ac8:	4638      	mov	r0, r7
    1aca:	4798      	blx	r3
    1acc:	e7d4      	b.n	1a78 <main+0x60>
		LOG_INF("Received data: %s (RSSI:%ddBm, SNR:%ddBm)",
    1ace:	a806      	add	r0, sp, #24
    1ad0:	f000 fe20 	bl	2714 <log_strdup>
    1ad4:	f045 0a03 	orr.w	sl, r5, #3
    1ad8:	f8ad a000 	strh.w	sl, [sp]
    1adc:	4601      	mov	r1, r0
    1ade:	f999 3000 	ldrsb.w	r3, [r9]
    1ae2:	f9b8 2000 	ldrsh.w	r2, [r8]
    1ae6:	480a      	ldr	r0, [pc, #40]	; (1b10 <main+0xf8>)
    1ae8:	f006 fad6 	bl	8098 <log_3>
    1aec:	e7b4      	b.n	1a58 <main+0x40>
    1aee:	bf00      	nop
    1af0:	000096f4 	.word	0x000096f4
    1af4:	00009394 	.word	0x00009394
    1af8:	00009384 	.word	0x00009384
    1afc:	000096fb 	.word	0x000096fb
    1b00:	20000410 	.word	0x20000410
    1b04:	00050008 	.word	0x00050008
    1b08:	0000970f 	.word	0x0000970f
    1b0c:	33d38460 	.word	0x33d38460
    1b10:	00009723 	.word	0x00009723
    1b14:	33be27a0 	.word	0x33be27a0

00001b18 <__printk_hook_install>:
 *
 * @return N/A
 */
void __printk_hook_install(int (*fn)(int))
{
	_char_out = fn;
    1b18:	4b01      	ldr	r3, [pc, #4]	; (1b20 <__printk_hook_install+0x8>)
    1b1a:	6018      	str	r0, [r3, #0]
}
    1b1c:	4770      	bx	lr
    1b1e:	bf00      	nop
    1b20:	20000000 	.word	0x20000000

00001b24 <vsnprintk>:

	return ret;
}

int vsnprintk(char *str, size_t size, const char *fmt, va_list ap)
{
    1b24:	b530      	push	{r4, r5, lr}
    1b26:	b085      	sub	sp, #20
	struct str_context ctx = { str, size, 0 };
    1b28:	e9cd 0101 	strd	r0, r1, [sp, #4]
{
    1b2c:	4604      	mov	r4, r0
	struct str_context ctx = { str, size, 0 };
    1b2e:	2500      	movs	r5, #0

	cbvprintf(str_out, &ctx, fmt, ap);
    1b30:	a901      	add	r1, sp, #4
    1b32:	4805      	ldr	r0, [pc, #20]	; (1b48 <vsnprintk+0x24>)
	struct str_context ctx = { str, size, 0 };
    1b34:	9503      	str	r5, [sp, #12]
	cbvprintf(str_out, &ctx, fmt, ap);
    1b36:	f000 f955 	bl	1de4 <cbvprintf>

	if (ctx.count < ctx.max) {
    1b3a:	e9dd 3002 	ldrd	r3, r0, [sp, #8]
    1b3e:	4298      	cmp	r0, r3
		str[ctx.count] = '\0';
    1b40:	bfb8      	it	lt
    1b42:	5425      	strblt	r5, [r4, r0]
	}

	return ctx.count;
}
    1b44:	b005      	add	sp, #20
    1b46:	bd30      	pop	{r4, r5, pc}
    1b48:	00007ded 	.word	0x00007ded

00001b4c <process_event>:
 * regions.
 */
static void process_event(struct onoff_manager *mgr,
			  int evt,
			  k_spinlock_key_t key)
{
    1b4c:	e92d 4ff8 	stmdb	sp!, {r3, r4, r5, r6, r7, r8, r9, sl, fp, lr}
	sys_slist_t clients;
	uint32_t state = mgr->flags & ONOFF_STATE_MASK;
    1b50:	f8b0 9018 	ldrh.w	r9, [r0, #24]
	__ASSERT_NO_MSG(evt != EVT_NOP);

	/* If this is a nested call record the event for processing in
	 * the top invocation.
	 */
	if (processing) {
    1b54:	f019 0808 	ands.w	r8, r9, #8
{
    1b58:	4604      	mov	r4, r0
    1b5a:	4693      	mov	fp, r2
	if (processing) {
    1b5c:	d00d      	beq.n	1b7a <process_event+0x2e>
		if (evt == EVT_COMPLETE) {
    1b5e:	2901      	cmp	r1, #1
			mgr->flags |= ONOFF_FLAG_COMPLETE;
    1b60:	bf0c      	ite	eq
    1b62:	f049 0910 	orreq.w	r9, r9, #16
		} else {
			__ASSERT_NO_MSG(evt == EVT_RECHECK);

			mgr->flags |= ONOFF_FLAG_RECHECK;
    1b66:	f049 0920 	orrne.w	r9, r9, #32
    1b6a:	f8a0 9018 	strh.w	r9, [r0, #24]
	__asm__ volatile(
		"cpsie i;"
		"isb"
		: : : "memory");
#elif defined(CONFIG_ARMV7_M_ARMV8_M_MAINLINE)
	__asm__ volatile(
    1b6e:	f38b 8811 	msr	BASEPRI, fp
    1b72:	f3bf 8f6f 	isb	sy
		state = mgr->flags & ONOFF_STATE_MASK;
	} while (evt != EVT_NOP);

out:
	k_spin_unlock(&mgr->lock, key);
}
    1b76:	e8bd 8ff8 	ldmia.w	sp!, {r3, r4, r5, r6, r7, r8, r9, sl, fp, pc}
	uint32_t state = mgr->flags & ONOFF_STATE_MASK;
    1b7a:	f009 0907 	and.w	r9, r9, #7
		if (evt == EVT_RECHECK) {
    1b7e:	2902      	cmp	r1, #2
    1b80:	d107      	bne.n	1b92 <process_event+0x46>
			evt = process_recheck(mgr);
    1b82:	4620      	mov	r0, r4
    1b84:	f006 f95f 	bl	7e46 <process_recheck>
		if (evt == EVT_NOP) {
    1b88:	2800      	cmp	r0, #0
    1b8a:	d0f0      	beq.n	1b6e <process_event+0x22>
		if (evt == EVT_COMPLETE) {
    1b8c:	2801      	cmp	r0, #1
    1b8e:	8b23      	ldrh	r3, [r4, #24]
    1b90:	d150      	bne.n	1c34 <process_event+0xe8>
			res = mgr->last_res;
    1b92:	6967      	ldr	r7, [r4, #20]
	uint32_t state = mgr->flags & ONOFF_STATE_MASK;
    1b94:	8b21      	ldrh	r1, [r4, #24]
	if (res < 0) {
    1b96:	2f00      	cmp	r7, #0
    1b98:	da15      	bge.n	1bc6 <process_event+0x7a>
		*clients = mgr->clients;
    1b9a:	6825      	ldr	r5, [r4, #0]
		     | (mgr->flags & ~ONOFF_STATE_MASK);
    1b9c:	f021 0107 	bic.w	r1, r1, #7
 * @param list A pointer on the list to initialize
 */
static inline void sys_slist_init(sys_slist_t *list)
{
	list->head = NULL;
	list->tail = NULL;
    1ba0:	e9c4 8800 	strd	r8, r8, [r4]
    1ba4:	f041 0101 	orr.w	r1, r1, #1
	mgr->flags = (state & ONOFF_STATE_MASK)
    1ba8:	8321      	strh	r1, [r4, #24]
		onoff_transition_fn transit = NULL;
    1baa:	2600      	movs	r6, #0
		bool do_monitors = (state != (mgr->flags & ONOFF_STATE_MASK))
    1bac:	8b21      	ldrh	r1, [r4, #24]
    1bae:	f001 0a07 	and.w	sl, r1, #7
				   && !sys_slist_is_empty(&mgr->monitors);
    1bb2:	45ca      	cmp	sl, r9
    1bb4:	d002      	beq.n	1bbc <process_event+0x70>
		if (do_monitors
    1bb6:	68a3      	ldr	r3, [r4, #8]
    1bb8:	2b00      	cmp	r3, #0
    1bba:	d15c      	bne.n	1c76 <process_event+0x12a>
		    || !sys_slist_is_empty(&clients)
    1bbc:	b90d      	cbnz	r5, 1bc2 <process_event+0x76>
		    || (transit != NULL)) {
    1bbe:	2e00      	cmp	r6, #0
    1bc0:	d074      	beq.n	1cac <process_event+0x160>
    1bc2:	2300      	movs	r3, #0
    1bc4:	e058      	b.n	1c78 <process_event+0x12c>
	uint32_t state = mgr->flags & ONOFF_STATE_MASK;
    1bc6:	f001 0307 	and.w	r3, r1, #7
		   || (state == ONOFF_STATE_RESETTING)) {
    1bca:	1f5a      	subs	r2, r3, #5
	} else if ((state == ONOFF_STATE_TO_ON)
    1bcc:	2a01      	cmp	r2, #1
    1bce:	d820      	bhi.n	1c12 <process_event+0xc6>
		*clients = mgr->clients;
    1bd0:	f021 0107 	bic.w	r1, r1, #7
		if (state == ONOFF_STATE_TO_ON) {
    1bd4:	2b06      	cmp	r3, #6
		*clients = mgr->clients;
    1bd6:	6825      	ldr	r5, [r4, #0]
	list->head = NULL;
    1bd8:	b289      	uxth	r1, r1
	list->tail = NULL;
    1bda:	e9c4 8800 	strd	r8, r8, [r4]
		if (state == ONOFF_STATE_TO_ON) {
    1bde:	d10c      	bne.n	1bfa <process_event+0xae>
 *
 * @return A pointer on the first node of the list (or NULL if none)
 */
static inline sys_snode_t *sys_slist_peek_head(sys_slist_t *list)
{
	return list->head;
    1be0:	2d00      	cmp	r5, #0
    1be2:	462b      	mov	r3, r5
    1be4:	bf38      	it	cc
    1be6:	2300      	movcc	r3, #0
			SYS_SLIST_FOR_EACH_CONTAINER(clients, cp, node) {
    1be8:	b12b      	cbz	r3, 1bf6 <process_event+0xaa>
				mgr->refs += 1U;
    1bea:	8b62      	ldrh	r2, [r4, #26]
 *
 * @return a pointer on the next node (or NULL if none)
 */
static inline sys_snode_t *sys_slist_peek_next_no_check(sys_snode_t *node);

Z_GENLIST_PEEK_NEXT_NO_CHECK(slist, snode)
    1bec:	681b      	ldr	r3, [r3, #0]
    1bee:	3201      	adds	r2, #1
    1bf0:	8362      	strh	r2, [r4, #26]
			SYS_SLIST_FOR_EACH_CONTAINER(clients, cp, node) {
    1bf2:	2b00      	cmp	r3, #0
    1bf4:	d1f8      	bne.n	1be8 <process_event+0x9c>
		     | (mgr->flags & ~ONOFF_STATE_MASK);
    1bf6:	f041 0102 	orr.w	r1, r1, #2
	mgr->flags = (state & ONOFF_STATE_MASK)
    1bfa:	8321      	strh	r1, [r4, #24]
		if (process_recheck(mgr) != EVT_NOP) {
    1bfc:	4620      	mov	r0, r4
    1bfe:	f006 f922 	bl	7e46 <process_recheck>
    1c02:	4606      	mov	r6, r0
    1c04:	2800      	cmp	r0, #0
    1c06:	d0d1      	beq.n	1bac <process_event+0x60>
			mgr->flags |= ONOFF_FLAG_RECHECK;
    1c08:	8b23      	ldrh	r3, [r4, #24]
    1c0a:	f043 0320 	orr.w	r3, r3, #32
    1c0e:	8323      	strh	r3, [r4, #24]
    1c10:	e7cb      	b.n	1baa <process_event+0x5e>
	} else if (state == ONOFF_STATE_TO_OFF) {
    1c12:	2b04      	cmp	r3, #4
    1c14:	d10c      	bne.n	1c30 <process_event+0xe4>
		     | (mgr->flags & ~ONOFF_STATE_MASK);
    1c16:	f021 0107 	bic.w	r1, r1, #7
    1c1a:	b289      	uxth	r1, r1
	mgr->flags = (state & ONOFF_STATE_MASK)
    1c1c:	8321      	strh	r1, [r4, #24]
		if (process_recheck(mgr) != EVT_NOP) {
    1c1e:	4620      	mov	r0, r4
    1c20:	f006 f911 	bl	7e46 <process_recheck>
    1c24:	4605      	mov	r5, r0
    1c26:	2800      	cmp	r0, #0
    1c28:	d0bf      	beq.n	1baa <process_event+0x5e>
			mgr->flags |= ONOFF_FLAG_RECHECK;
    1c2a:	f041 0120 	orr.w	r1, r1, #32
    1c2e:	8321      	strh	r1, [r4, #24]
    1c30:	2500      	movs	r5, #0
    1c32:	e7ba      	b.n	1baa <process_event+0x5e>
		} else if (evt == EVT_START) {
    1c34:	2803      	cmp	r0, #3
    1c36:	d109      	bne.n	1c4c <process_event+0x100>
			transit = mgr->transitions->start;
    1c38:	6922      	ldr	r2, [r4, #16]
		     | (mgr->flags & ~ONOFF_STATE_MASK);
    1c3a:	f023 0307 	bic.w	r3, r3, #7
			transit = mgr->transitions->start;
    1c3e:	6816      	ldr	r6, [r2, #0]
		     | (mgr->flags & ~ONOFF_STATE_MASK);
    1c40:	f043 0306 	orr.w	r3, r3, #6
	mgr->flags = (state & ONOFF_STATE_MASK)
    1c44:	8323      	strh	r3, [r4, #24]
}
    1c46:	2500      	movs	r5, #0
		res = 0;
    1c48:	462f      	mov	r7, r5
    1c4a:	e7af      	b.n	1bac <process_event+0x60>
		} else if (evt == EVT_STOP) {
    1c4c:	2804      	cmp	r0, #4
    1c4e:	d106      	bne.n	1c5e <process_event+0x112>
			transit = mgr->transitions->stop;
    1c50:	6922      	ldr	r2, [r4, #16]
		     | (mgr->flags & ~ONOFF_STATE_MASK);
    1c52:	f023 0307 	bic.w	r3, r3, #7
			transit = mgr->transitions->stop;
    1c56:	6856      	ldr	r6, [r2, #4]
		     | (mgr->flags & ~ONOFF_STATE_MASK);
    1c58:	f043 0304 	orr.w	r3, r3, #4
    1c5c:	e7f2      	b.n	1c44 <process_event+0xf8>
		} else if (evt == EVT_RESET) {
    1c5e:	2805      	cmp	r0, #5
    1c60:	d106      	bne.n	1c70 <process_event+0x124>
			transit = mgr->transitions->reset;
    1c62:	6922      	ldr	r2, [r4, #16]
		     | (mgr->flags & ~ONOFF_STATE_MASK);
    1c64:	f023 0307 	bic.w	r3, r3, #7
			transit = mgr->transitions->reset;
    1c68:	6896      	ldr	r6, [r2, #8]
		     | (mgr->flags & ~ONOFF_STATE_MASK);
    1c6a:	f043 0305 	orr.w	r3, r3, #5
    1c6e:	e7e9      	b.n	1c44 <process_event+0xf8>
    1c70:	2500      	movs	r5, #0
		onoff_transition_fn transit = NULL;
    1c72:	462e      	mov	r6, r5
    1c74:	e7e8      	b.n	1c48 <process_event+0xfc>
				   && !sys_slist_is_empty(&mgr->monitors);
    1c76:	2301      	movs	r3, #1
			uint32_t flags = mgr->flags | ONOFF_FLAG_PROCESSING;
    1c78:	f041 0108 	orr.w	r1, r1, #8
			mgr->flags = flags;
    1c7c:	8321      	strh	r1, [r4, #24]
    1c7e:	f38b 8811 	msr	BASEPRI, fp
    1c82:	f3bf 8f6f 	isb	sy
			if (do_monitors) {
    1c86:	bb03      	cbnz	r3, 1cca <process_event+0x17e>
	while (!sys_slist_is_empty(list)) {
    1c88:	2d00      	cmp	r5, #0
    1c8a:	d133      	bne.n	1cf4 <process_event+0x1a8>
			if (transit != NULL) {
    1c8c:	b116      	cbz	r6, 1c94 <process_event+0x148>
				transit(mgr, transition_complete);
    1c8e:	4921      	ldr	r1, [pc, #132]	; (1d14 <process_event+0x1c8>)
    1c90:	4620      	mov	r0, r4
    1c92:	47b0      	blx	r6
	__asm__ volatile(
    1c94:	f04f 0320 	mov.w	r3, #32
    1c98:	f3ef 8b11 	mrs	fp, BASEPRI
    1c9c:	f383 8811 	msr	BASEPRI, r3
    1ca0:	f3bf 8f6f 	isb	sy
			mgr->flags &= ~ONOFF_FLAG_PROCESSING;
    1ca4:	8b23      	ldrh	r3, [r4, #24]
    1ca6:	f023 0308 	bic.w	r3, r3, #8
    1caa:	8323      	strh	r3, [r4, #24]
		if ((mgr->flags & ONOFF_FLAG_COMPLETE) != 0) {
    1cac:	8b23      	ldrh	r3, [r4, #24]
    1cae:	06da      	lsls	r2, r3, #27
    1cb0:	d528      	bpl.n	1d04 <process_event+0x1b8>
			mgr->flags &= ~ONOFF_FLAG_COMPLETE;
    1cb2:	f023 0310 	bic.w	r3, r3, #16
    1cb6:	8323      	strh	r3, [r4, #24]
			evt = EVT_COMPLETE;
    1cb8:	2101      	movs	r1, #1
		state = mgr->flags & ONOFF_STATE_MASK;
    1cba:	f8b4 9018 	ldrh.w	r9, [r4, #24]
    1cbe:	f009 0907 	and.w	r9, r9, #7
	} while (evt != EVT_NOP);
    1cc2:	2900      	cmp	r1, #0
    1cc4:	f47f af5b 	bne.w	1b7e <process_event+0x32>
out:
    1cc8:	e751      	b.n	1b6e <process_event+0x22>
	SYS_SLIST_FOR_EACH_CONTAINER_SAFE(mlist, mon, tmp, node) {
    1cca:	68a1      	ldr	r1, [r4, #8]
    1ccc:	2900      	cmp	r1, #0
    1cce:	d0db      	beq.n	1c88 <process_event+0x13c>
	return node->next;
    1cd0:	680b      	ldr	r3, [r1, #0]
		mon->callback(mgr, mon, state, res);
    1cd2:	f8d1 b004 	ldr.w	fp, [r1, #4]
    1cd6:	2b00      	cmp	r3, #0
    1cd8:	bf38      	it	cc
    1cda:	2300      	movcc	r3, #0
    1cdc:	4699      	mov	r9, r3
    1cde:	4652      	mov	r2, sl
    1ce0:	463b      	mov	r3, r7
    1ce2:	4620      	mov	r0, r4
    1ce4:	47d8      	blx	fp
	SYS_SLIST_FOR_EACH_CONTAINER_SAFE(mlist, mon, tmp, node) {
    1ce6:	f1b9 0f00 	cmp.w	r9, #0
    1cea:	d0cd      	beq.n	1c88 <process_event+0x13c>
    1cec:	f8d9 3000 	ldr.w	r3, [r9]
Z_GENLIST_PEEK_NEXT_NO_CHECK(slist, snode)
    1cf0:	4649      	mov	r1, r9
    1cf2:	e7ee      	b.n	1cd2 <process_event+0x186>
 *
 * @return A pointer to the first node of the list
 */
static inline sys_snode_t *sys_slist_get_not_empty(sys_slist_t *list);

Z_GENLIST_GET_NOT_EMPTY(slist, snode)
    1cf4:	4629      	mov	r1, r5
		notify_one(mgr, cli, state, res);
    1cf6:	463b      	mov	r3, r7
    1cf8:	4652      	mov	r2, sl
    1cfa:	4620      	mov	r0, r4
    1cfc:	682d      	ldr	r5, [r5, #0]
    1cfe:	f006 f8be 	bl	7e7e <notify_one>
    1d02:	e7c1      	b.n	1c88 <process_event+0x13c>
		} else if ((mgr->flags & ONOFF_FLAG_RECHECK) != 0) {
    1d04:	f013 0120 	ands.w	r1, r3, #32
			mgr->flags &= ~ONOFF_FLAG_RECHECK;
    1d08:	bf1e      	ittt	ne
    1d0a:	f023 0320 	bicne.w	r3, r3, #32
    1d0e:	8323      	strhne	r3, [r4, #24]
			evt = EVT_RECHECK;
    1d10:	2102      	movne	r1, #2
    1d12:	e7d2      	b.n	1cba <process_event+0x16e>
    1d14:	00007eab 	.word	0x00007eab

00001d18 <extract_decimal>:
 * the referenced text.
 *
 * @return the decoded integer value.
 */
static size_t extract_decimal(const char **str)
{
    1d18:	b5f0      	push	{r4, r5, r6, r7, lr}
	const char *sp = *str;
	size_t val = 0;

	while (isdigit((int)(unsigned char)*sp)) {
    1d1a:	4e09      	ldr	r6, [pc, #36]	; (1d40 <extract_decimal+0x28>)
    1d1c:	6801      	ldr	r1, [r0, #0]
{
    1d1e:	4602      	mov	r2, r0
		val = 10U * val + *sp++ - '0';
    1d20:	270a      	movs	r7, #10
	size_t val = 0;
    1d22:	2000      	movs	r0, #0
    1d24:	460c      	mov	r4, r1
	while (isdigit((int)(unsigned char)*sp)) {
    1d26:	3101      	adds	r1, #1
    1d28:	7823      	ldrb	r3, [r4, #0]
    1d2a:	5d9d      	ldrb	r5, [r3, r6]
    1d2c:	076d      	lsls	r5, r5, #29
    1d2e:	d401      	bmi.n	1d34 <extract_decimal+0x1c>
	}
	*str = sp;
    1d30:	6014      	str	r4, [r2, #0]
	return val;
}
    1d32:	bdf0      	pop	{r4, r5, r6, r7, pc}
		val = 10U * val + *sp++ - '0';
    1d34:	fb07 3300 	mla	r3, r7, r0, r3
    1d38:	f1a3 0030 	sub.w	r0, r3, #48	; 0x30
    1d3c:	e7f2      	b.n	1d24 <extract_decimal+0xc>
    1d3e:	bf00      	nop
    1d40:	0000a0bb 	.word	0x0000a0bb

00001d44 <encode_uint>:
 */
static char *encode_uint(uint_value_type value,
			 struct conversion *conv,
			 char *bps,
			 const char *bpe)
{
    1d44:	e92d 4ff7 	stmdb	sp!, {r0, r1, r2, r4, r5, r6, r7, r8, r9, sl, fp, lr}
    1d48:	4614      	mov	r4, r2
    1d4a:	4699      	mov	r9, r3
	bool upcase = isupper((int)conv->specifier);
    1d4c:	78d3      	ldrb	r3, [r2, #3]
    1d4e:	4a24      	ldr	r2, [pc, #144]	; (1de0 <encode_uint+0x9c>)
    1d50:	f813 a002 	ldrb.w	sl, [r3, r2]
	switch (specifier) {
    1d54:	2b6f      	cmp	r3, #111	; 0x6f
    1d56:	f00a 0203 	and.w	r2, sl, #3
{
    1d5a:	4606      	mov	r6, r0
    1d5c:	460f      	mov	r7, r1
    1d5e:	9201      	str	r2, [sp, #4]
	switch (specifier) {
    1d60:	d02d      	beq.n	1dbe <encode_uint+0x7a>
    1d62:	d828      	bhi.n	1db6 <encode_uint+0x72>
		return 16;
    1d64:	2b58      	cmp	r3, #88	; 0x58
    1d66:	bf14      	ite	ne
    1d68:	250a      	movne	r5, #10
    1d6a:	2510      	moveq	r5, #16
	const unsigned int radix = conversion_radix(conv->specifier);
	char *bp = bps + (bpe - bps);
    1d6c:	f8dd 8030 	ldr.w	r8, [sp, #48]	; 0x30

	do {
		unsigned int lsv = (unsigned int)(value % radix);
    1d70:	46aa      	mov	sl, r5
    1d72:	f04f 0b00 	mov.w	fp, #0
    1d76:	4652      	mov	r2, sl
    1d78:	465b      	mov	r3, fp
    1d7a:	4630      	mov	r0, r6
    1d7c:	4639      	mov	r1, r7
    1d7e:	f7fe fe5d 	bl	a3c <__aeabi_uldivmod>

		*--bp = (lsv <= 9) ? ('0' + lsv)
    1d82:	2a09      	cmp	r2, #9
    1d84:	b2d3      	uxtb	r3, r2
    1d86:	d81f      	bhi.n	1dc8 <encode_uint+0x84>
    1d88:	3330      	adds	r3, #48	; 0x30
			: upcase ? ('A' + lsv - 10) : ('a' + lsv - 10);
		value /= radix;
	} while ((value != 0) && (bps < bp));
    1d8a:	455f      	cmp	r7, fp
		*--bp = (lsv <= 9) ? ('0' + lsv)
    1d8c:	b2db      	uxtb	r3, r3
	} while ((value != 0) && (bps < bp));
    1d8e:	bf08      	it	eq
    1d90:	4556      	cmpeq	r6, sl
		*--bp = (lsv <= 9) ? ('0' + lsv)
    1d92:	f808 3d01 	strb.w	r3, [r8, #-1]!
	} while ((value != 0) && (bps < bp));
    1d96:	d301      	bcc.n	1d9c <encode_uint+0x58>
    1d98:	45c8      	cmp	r8, r9
    1d9a:	d812      	bhi.n	1dc2 <encode_uint+0x7e>

	/* Record required alternate forms.  This can be determined
	 * from the radix without re-checking specifier.
	 */
	if (conv->flag_hash) {
    1d9c:	7823      	ldrb	r3, [r4, #0]
    1d9e:	069b      	lsls	r3, r3, #26
    1da0:	d505      	bpl.n	1dae <encode_uint+0x6a>
		if (radix == 8) {
    1da2:	2d08      	cmp	r5, #8
    1da4:	d116      	bne.n	1dd4 <encode_uint+0x90>
			conv->altform_0 = true;
    1da6:	78a3      	ldrb	r3, [r4, #2]
    1da8:	f043 0308 	orr.w	r3, r3, #8
		} else if (radix == 16) {
			conv->altform_0c = true;
    1dac:	70a3      	strb	r3, [r4, #2]
		}
	}

	return bp;
}
    1dae:	4640      	mov	r0, r8
    1db0:	b003      	add	sp, #12
    1db2:	e8bd 8ff0 	ldmia.w	sp!, {r4, r5, r6, r7, r8, r9, sl, fp, pc}
	switch (specifier) {
    1db6:	f003 03f7 	and.w	r3, r3, #247	; 0xf7
		return 16;
    1dba:	2b70      	cmp	r3, #112	; 0x70
    1dbc:	e7d3      	b.n	1d66 <encode_uint+0x22>
	switch (specifier) {
    1dbe:	2508      	movs	r5, #8
    1dc0:	e7d4      	b.n	1d6c <encode_uint+0x28>
		value /= radix;
    1dc2:	4606      	mov	r6, r0
    1dc4:	460f      	mov	r7, r1
    1dc6:	e7d6      	b.n	1d76 <encode_uint+0x32>
		*--bp = (lsv <= 9) ? ('0' + lsv)
    1dc8:	9a01      	ldr	r2, [sp, #4]
    1dca:	2a01      	cmp	r2, #1
    1dcc:	bf0c      	ite	eq
    1dce:	3337      	addeq	r3, #55	; 0x37
    1dd0:	3357      	addne	r3, #87	; 0x57
    1dd2:	e7da      	b.n	1d8a <encode_uint+0x46>
		} else if (radix == 16) {
    1dd4:	2d10      	cmp	r5, #16
    1dd6:	d1ea      	bne.n	1dae <encode_uint+0x6a>
			conv->altform_0c = true;
    1dd8:	78a3      	ldrb	r3, [r4, #2]
    1dda:	f043 0310 	orr.w	r3, r3, #16
    1dde:	e7e5      	b.n	1dac <encode_uint+0x68>
    1de0:	0000a0bb 	.word	0x0000a0bb

00001de4 <cbvprintf>:

	return (int)count;
}

int cbvprintf(cbprintf_cb out, void *ctx, const char *fp, va_list ap)
{
    1de4:	e92d 4ff0 	stmdb	sp!, {r4, r5, r6, r7, r8, r9, sl, fp, lr}
    1de8:	4682      	mov	sl, r0
    1dea:	b093      	sub	sp, #76	; 0x4c
    1dec:	468b      	mov	fp, r1
    1dee:	4691      	mov	r9, r2
    1df0:	461c      	mov	r4, r3
	char buf[CONVERTED_BUFLEN];
	size_t count = 0;
    1df2:	2500      	movs	r5, #0
		return rc; \
	} \
	count += rc; \
} while (false)

	while (*fp != 0) {
    1df4:	f899 0000 	ldrb.w	r0, [r9]
    1df8:	b908      	cbnz	r0, 1dfe <cbvprintf+0x1a>
			OUTC(' ');
			--width;
		}
	}

	return count;
    1dfa:	4628      	mov	r0, r5
    1dfc:	e33a      	b.n	2474 <cbvprintf+0x690>
		if (*fp != '%') {
    1dfe:	f109 0301 	add.w	r3, r9, #1
    1e02:	2825      	cmp	r0, #37	; 0x25
    1e04:	9302      	str	r3, [sp, #8]
    1e06:	d006      	beq.n	1e16 <cbvprintf+0x32>
			OUTC('%');
    1e08:	4659      	mov	r1, fp
    1e0a:	47d0      	blx	sl
    1e0c:	2800      	cmp	r0, #0
    1e0e:	f2c0 8331 	blt.w	2474 <cbvprintf+0x690>
    1e12:	3501      	adds	r5, #1
			break;
    1e14:	e1f1      	b.n	21fa <cbvprintf+0x416>
		} state = {
    1e16:	2218      	movs	r2, #24
    1e18:	2100      	movs	r1, #0
    1e1a:	a80c      	add	r0, sp, #48	; 0x30
    1e1c:	f007 f986 	bl	912c <memset>
	if (*sp == '%') {
    1e20:	f899 3001 	ldrb.w	r3, [r9, #1]
    1e24:	2b25      	cmp	r3, #37	; 0x25
    1e26:	d059      	beq.n	1edc <cbvprintf+0xf8>
    1e28:	9a02      	ldr	r2, [sp, #8]
    1e2a:	4616      	mov	r6, r2
		switch (*sp) {
    1e2c:	f812 3b01 	ldrb.w	r3, [r2], #1
    1e30:	2b2b      	cmp	r3, #43	; 0x2b
    1e32:	f000 808b 	beq.w	1f4c <cbvprintf+0x168>
    1e36:	d879      	bhi.n	1f2c <cbvprintf+0x148>
    1e38:	2b20      	cmp	r3, #32
    1e3a:	f000 808c 	beq.w	1f56 <cbvprintf+0x172>
    1e3e:	2b23      	cmp	r3, #35	; 0x23
    1e40:	f000 808e 	beq.w	1f60 <cbvprintf+0x17c>
	if (conv->flag_zero && conv->flag_dash) {
    1e44:	f89d 3038 	ldrb.w	r3, [sp, #56]	; 0x38
    1e48:	f003 0244 	and.w	r2, r3, #68	; 0x44
    1e4c:	2a44      	cmp	r2, #68	; 0x44
    1e4e:	d103      	bne.n	1e58 <cbvprintf+0x74>
		conv->flag_zero = false;
    1e50:	f36f 1386 	bfc	r3, #6, #1
    1e54:	f88d 3038 	strb.w	r3, [sp, #56]	; 0x38
	conv->width_present = true;
    1e58:	f89d 3038 	ldrb.w	r3, [sp, #56]	; 0x38
    1e5c:	9605      	str	r6, [sp, #20]
    1e5e:	f043 0380 	orr.w	r3, r3, #128	; 0x80
    1e62:	f88d 3038 	strb.w	r3, [sp, #56]	; 0x38
	if (*sp == '*') {
    1e66:	7833      	ldrb	r3, [r6, #0]
    1e68:	2b2a      	cmp	r3, #42	; 0x2a
    1e6a:	d17e      	bne.n	1f6a <cbvprintf+0x186>
		conv->width_star = true;
    1e6c:	f89d 3039 	ldrb.w	r3, [sp, #57]	; 0x39
    1e70:	f043 0301 	orr.w	r3, r3, #1
    1e74:	f88d 3039 	strb.w	r3, [sp, #57]	; 0x39
		return ++sp;
    1e78:	1c73      	adds	r3, r6, #1
	sp = extract_prec(conv, sp);
    1e7a:	9305      	str	r3, [sp, #20]
	conv->prec_present = (*sp == '.');
    1e7c:	781a      	ldrb	r2, [r3, #0]
    1e7e:	2a2e      	cmp	r2, #46	; 0x2e
    1e80:	f89d 2039 	ldrb.w	r2, [sp, #57]	; 0x39
    1e84:	bf0c      	ite	eq
    1e86:	2101      	moveq	r1, #1
    1e88:	2100      	movne	r1, #0
    1e8a:	f361 0241 	bfi	r2, r1, #1, #1
    1e8e:	f88d 2039 	strb.w	r2, [sp, #57]	; 0x39
	if (!conv->prec_present) {
    1e92:	d10b      	bne.n	1eac <cbvprintf+0xc8>
	++sp;
    1e94:	1c5a      	adds	r2, r3, #1
    1e96:	9205      	str	r2, [sp, #20]
	if (*sp == '*') {
    1e98:	785a      	ldrb	r2, [r3, #1]
    1e9a:	2a2a      	cmp	r2, #42	; 0x2a
    1e9c:	d17b      	bne.n	1f96 <cbvprintf+0x1b2>
		conv->prec_star = true;
    1e9e:	f89d 2039 	ldrb.w	r2, [sp, #57]	; 0x39
    1ea2:	f042 0204 	orr.w	r2, r2, #4
    1ea6:	f88d 2039 	strb.w	r2, [sp, #57]	; 0x39
		return ++sp;
    1eaa:	3302      	adds	r3, #2
	switch (*sp) {
    1eac:	4619      	mov	r1, r3
    1eae:	f811 0b01 	ldrb.w	r0, [r1], #1
    1eb2:	286c      	cmp	r0, #108	; 0x6c
    1eb4:	f000 80b6 	beq.w	2024 <cbvprintf+0x240>
    1eb8:	d87d      	bhi.n	1fb6 <cbvprintf+0x1d2>
    1eba:	2868      	cmp	r0, #104	; 0x68
    1ebc:	f000 8084 	beq.w	1fc8 <cbvprintf+0x1e4>
    1ec0:	286a      	cmp	r0, #106	; 0x6a
    1ec2:	f000 80b9 	beq.w	2038 <cbvprintf+0x254>
    1ec6:	284c      	cmp	r0, #76	; 0x4c
    1ec8:	f000 80bd 	beq.w	2046 <cbvprintf+0x262>
		conv->length_mod = LENGTH_NONE;
    1ecc:	f89d 2039 	ldrb.w	r2, [sp, #57]	; 0x39
    1ed0:	f36f 02c6 	bfc	r2, #3, #4
    1ed4:	f88d 2039 	strb.w	r2, [sp, #57]	; 0x39
		break;
    1ed8:	4619      	mov	r1, r3
    1eda:	e080      	b.n	1fde <cbvprintf+0x1fa>
		conv->specifier = *sp++;
    1edc:	f109 0202 	add.w	r2, r9, #2
    1ee0:	9202      	str	r2, [sp, #8]
    1ee2:	f88d 303b 	strb.w	r3, [sp, #59]	; 0x3b
		if (conv->width_star) {
    1ee6:	f89d 3039 	ldrb.w	r3, [sp, #57]	; 0x39
    1eea:	07d9      	lsls	r1, r3, #31
    1eec:	f140 8149 	bpl.w	2182 <cbvprintf+0x39e>
			width = va_arg(ap, int);
    1ef0:	f854 8b04 	ldr.w	r8, [r4], #4
			if (width < 0) {
    1ef4:	f1b8 0f00 	cmp.w	r8, #0
    1ef8:	da07      	bge.n	1f0a <cbvprintf+0x126>
				conv->flag_dash = true;
    1efa:	f89d 2038 	ldrb.w	r2, [sp, #56]	; 0x38
    1efe:	f042 0204 	orr.w	r2, r2, #4
    1f02:	f88d 2038 	strb.w	r2, [sp, #56]	; 0x38
				width = -width;
    1f06:	f1c8 0800 	rsb	r8, r8, #0
		if (conv->prec_star) {
    1f0a:	075a      	lsls	r2, r3, #29
    1f0c:	f140 8142 	bpl.w	2194 <cbvprintf+0x3b0>
			int arg = va_arg(ap, int);
    1f10:	f854 7b04 	ldr.w	r7, [r4], #4
			if (arg < 0) {
    1f14:	2f00      	cmp	r7, #0
    1f16:	f280 8141 	bge.w	219c <cbvprintf+0x3b8>
				conv->prec_present = false;
    1f1a:	f89d 3039 	ldrb.w	r3, [sp, #57]	; 0x39
    1f1e:	f36f 0341 	bfc	r3, #1, #1
    1f22:	f88d 3039 	strb.w	r3, [sp, #57]	; 0x39
		int precision = -1;
    1f26:	f04f 37ff 	mov.w	r7, #4294967295	; 0xffffffff
    1f2a:	e137      	b.n	219c <cbvprintf+0x3b8>
		switch (*sp) {
    1f2c:	2b2d      	cmp	r3, #45	; 0x2d
    1f2e:	d006      	beq.n	1f3e <cbvprintf+0x15a>
    1f30:	2b30      	cmp	r3, #48	; 0x30
    1f32:	d187      	bne.n	1e44 <cbvprintf+0x60>
			conv->flag_zero = true;
    1f34:	f89d 3038 	ldrb.w	r3, [sp, #56]	; 0x38
    1f38:	f043 0340 	orr.w	r3, r3, #64	; 0x40
    1f3c:	e003      	b.n	1f46 <cbvprintf+0x162>
			conv->flag_dash = true;
    1f3e:	f89d 3038 	ldrb.w	r3, [sp, #56]	; 0x38
    1f42:	f043 0304 	orr.w	r3, r3, #4
			conv->flag_zero = true;
    1f46:	f88d 3038 	strb.w	r3, [sp, #56]	; 0x38
			break;
    1f4a:	e76e      	b.n	1e2a <cbvprintf+0x46>
			conv->flag_plus = true;
    1f4c:	f89d 3038 	ldrb.w	r3, [sp, #56]	; 0x38
    1f50:	f043 0308 	orr.w	r3, r3, #8
    1f54:	e7f7      	b.n	1f46 <cbvprintf+0x162>
			conv->flag_space = true;
    1f56:	f89d 3038 	ldrb.w	r3, [sp, #56]	; 0x38
    1f5a:	f043 0310 	orr.w	r3, r3, #16
    1f5e:	e7f2      	b.n	1f46 <cbvprintf+0x162>
			conv->flag_hash = true;
    1f60:	f89d 3038 	ldrb.w	r3, [sp, #56]	; 0x38
    1f64:	f043 0320 	orr.w	r3, r3, #32
    1f68:	e7ed      	b.n	1f46 <cbvprintf+0x162>
	size_t width = extract_decimal(&sp);
    1f6a:	a805      	add	r0, sp, #20
    1f6c:	f7ff fed4 	bl	1d18 <extract_decimal>
	if (sp != wp) {
    1f70:	9b05      	ldr	r3, [sp, #20]
    1f72:	42b3      	cmp	r3, r6
    1f74:	d081      	beq.n	1e7a <cbvprintf+0x96>
		conv->unsupported |= ((conv->width_value < 0)
    1f76:	f89d 1038 	ldrb.w	r1, [sp, #56]	; 0x38
		conv->width_value = width;
    1f7a:	900f      	str	r0, [sp, #60]	; 0x3c
		conv->unsupported |= ((conv->width_value < 0)
    1f7c:	f3c1 0240 	ubfx	r2, r1, #1, #1
    1f80:	ea42 72d0 	orr.w	r2, r2, r0, lsr #31
    1f84:	0052      	lsls	r2, r2, #1
    1f86:	f062 027f 	orn	r2, r2, #127	; 0x7f
    1f8a:	f001 017d 	and.w	r1, r1, #125	; 0x7d
    1f8e:	430a      	orrs	r2, r1
    1f90:	f88d 2038 	strb.w	r2, [sp, #56]	; 0x38
    1f94:	e771      	b.n	1e7a <cbvprintf+0x96>
	size_t prec = extract_decimal(&sp);
    1f96:	a805      	add	r0, sp, #20
    1f98:	f7ff febe 	bl	1d18 <extract_decimal>
	conv->unsupported |= ((conv->prec_value < 0)
    1f9c:	f89d 3038 	ldrb.w	r3, [sp, #56]	; 0x38
	conv->prec_value = prec;
    1fa0:	9010      	str	r0, [sp, #64]	; 0x40
	conv->unsupported |= ((conv->prec_value < 0)
    1fa2:	f3c3 0240 	ubfx	r2, r3, #1, #1
    1fa6:	ea42 70d0 	orr.w	r0, r2, r0, lsr #31
    1faa:	f360 0341 	bfi	r3, r0, #1, #1
    1fae:	f88d 3038 	strb.w	r3, [sp, #56]	; 0x38
	return sp;
    1fb2:	9b05      	ldr	r3, [sp, #20]
    1fb4:	e77a      	b.n	1eac <cbvprintf+0xc8>
	switch (*sp) {
    1fb6:	2874      	cmp	r0, #116	; 0x74
    1fb8:	f89d 2039 	ldrb.w	r2, [sp, #57]	; 0x39
    1fbc:	d040      	beq.n	2040 <cbvprintf+0x25c>
    1fbe:	287a      	cmp	r0, #122	; 0x7a
    1fc0:	d184      	bne.n	1ecc <cbvprintf+0xe8>
		conv->length_mod = LENGTH_Z;
    1fc2:	4613      	mov	r3, r2
    1fc4:	2206      	movs	r2, #6
    1fc6:	e028      	b.n	201a <cbvprintf+0x236>
		if (*++sp == 'h') {
    1fc8:	785a      	ldrb	r2, [r3, #1]
    1fca:	2a68      	cmp	r2, #104	; 0x68
    1fcc:	f89d 2039 	ldrb.w	r2, [sp, #57]	; 0x39
    1fd0:	d121      	bne.n	2016 <cbvprintf+0x232>
			conv->length_mod = LENGTH_HH;
    1fd2:	2101      	movs	r1, #1
			conv->length_mod = LENGTH_LL;
    1fd4:	f361 02c6 	bfi	r2, r1, #3, #4
    1fd8:	f88d 2039 	strb.w	r2, [sp, #57]	; 0x39
			++sp;
    1fdc:	1c99      	adds	r1, r3, #2
	conv->specifier = *sp++;
    1fde:	460b      	mov	r3, r1
    1fe0:	f813 2b01 	ldrb.w	r2, [r3], #1
    1fe4:	9302      	str	r3, [sp, #8]
	switch (conv->specifier) {
    1fe6:	2a78      	cmp	r2, #120	; 0x78
    1fe8:	f89d 3039 	ldrb.w	r3, [sp, #57]	; 0x39
	conv->specifier = *sp++;
    1fec:	f88d 203b 	strb.w	r2, [sp, #59]	; 0x3b
	switch (conv->specifier) {
    1ff0:	f200 80bf 	bhi.w	2172 <cbvprintf+0x38e>
    1ff4:	2a57      	cmp	r2, #87	; 0x57
    1ff6:	d833      	bhi.n	2060 <cbvprintf+0x27c>
    1ff8:	2a41      	cmp	r2, #65	; 0x41
    1ffa:	d003      	beq.n	2004 <cbvprintf+0x220>
    1ffc:	3a45      	subs	r2, #69	; 0x45
    1ffe:	2a02      	cmp	r2, #2
    2000:	f200 80b7 	bhi.w	2172 <cbvprintf+0x38e>
		conv->specifier_cat = SPECIFIER_FP;
    2004:	f89d 303a 	ldrb.w	r3, [sp, #58]	; 0x3a
    2008:	2204      	movs	r2, #4
    200a:	f362 0302 	bfi	r3, r2, #0, #3
    200e:	f88d 303a 	strb.w	r3, [sp, #58]	; 0x3a
			unsupported = true;
    2012:	2301      	movs	r3, #1
			break;
    2014:	e084      	b.n	2120 <cbvprintf+0x33c>
			conv->length_mod = LENGTH_H;
    2016:	4613      	mov	r3, r2
    2018:	2202      	movs	r2, #2
			conv->length_mod = LENGTH_L;
    201a:	f362 03c6 	bfi	r3, r2, #3, #4
    201e:	f88d 3039 	strb.w	r3, [sp, #57]	; 0x39
    2022:	e7dc      	b.n	1fde <cbvprintf+0x1fa>
		if (*++sp == 'l') {
    2024:	785a      	ldrb	r2, [r3, #1]
    2026:	2a6c      	cmp	r2, #108	; 0x6c
    2028:	f89d 2039 	ldrb.w	r2, [sp, #57]	; 0x39
    202c:	d101      	bne.n	2032 <cbvprintf+0x24e>
			conv->length_mod = LENGTH_LL;
    202e:	2104      	movs	r1, #4
    2030:	e7d0      	b.n	1fd4 <cbvprintf+0x1f0>
			conv->length_mod = LENGTH_L;
    2032:	4613      	mov	r3, r2
    2034:	2203      	movs	r2, #3
    2036:	e7f0      	b.n	201a <cbvprintf+0x236>
		conv->length_mod = LENGTH_J;
    2038:	f89d 3039 	ldrb.w	r3, [sp, #57]	; 0x39
    203c:	2205      	movs	r2, #5
    203e:	e7ec      	b.n	201a <cbvprintf+0x236>
		conv->length_mod = LENGTH_T;
    2040:	4613      	mov	r3, r2
    2042:	2207      	movs	r2, #7
    2044:	e7e9      	b.n	201a <cbvprintf+0x236>
		conv->unsupported = true;
    2046:	f8bd 3038 	ldrh.w	r3, [sp, #56]	; 0x38
    204a:	f423 43f0 	bic.w	r3, r3, #30720	; 0x7800
    204e:	f023 0302 	bic.w	r3, r3, #2
    2052:	f443 4380 	orr.w	r3, r3, #16384	; 0x4000
    2056:	f043 0302 	orr.w	r3, r3, #2
    205a:	f8ad 3038 	strh.w	r3, [sp, #56]	; 0x38
		break;
    205e:	e7be      	b.n	1fde <cbvprintf+0x1fa>
    2060:	f1a2 0158 	sub.w	r1, r2, #88	; 0x58
    2064:	2920      	cmp	r1, #32
    2066:	f200 8084 	bhi.w	2172 <cbvprintf+0x38e>
    206a:	a001      	add	r0, pc, #4	; (adr r0, 2070 <cbvprintf+0x28c>)
    206c:	f850 f021 	ldr.w	pc, [r0, r1, lsl #2]
    2070:	00002135 	.word	0x00002135
    2074:	00002173 	.word	0x00002173
    2078:	00002173 	.word	0x00002173
    207c:	00002173 	.word	0x00002173
    2080:	00002173 	.word	0x00002173
    2084:	00002173 	.word	0x00002173
    2088:	00002173 	.word	0x00002173
    208c:	00002173 	.word	0x00002173
    2090:	00002173 	.word	0x00002173
    2094:	00002005 	.word	0x00002005
    2098:	00002173 	.word	0x00002173
    209c:	00002135 	.word	0x00002135
    20a0:	000020f5 	.word	0x000020f5
    20a4:	00002005 	.word	0x00002005
    20a8:	00002005 	.word	0x00002005
    20ac:	00002005 	.word	0x00002005
    20b0:	00002173 	.word	0x00002173
    20b4:	000020f5 	.word	0x000020f5
    20b8:	00002173 	.word	0x00002173
    20bc:	00002173 	.word	0x00002173
    20c0:	00002173 	.word	0x00002173
    20c4:	00002173 	.word	0x00002173
    20c8:	0000213d 	.word	0x0000213d
    20cc:	00002135 	.word	0x00002135
    20d0:	00002159 	.word	0x00002159
    20d4:	00002173 	.word	0x00002173
    20d8:	00002173 	.word	0x00002173
    20dc:	00002159 	.word	0x00002159
    20e0:	00002173 	.word	0x00002173
    20e4:	00002135 	.word	0x00002135
    20e8:	00002173 	.word	0x00002173
    20ec:	00002173 	.word	0x00002173
    20f0:	00002135 	.word	0x00002135
		conv->specifier_cat = SPECIFIER_SINT;
    20f4:	f89d 103a 	ldrb.w	r1, [sp, #58]	; 0x3a
    20f8:	2001      	movs	r0, #1
		if (conv->length_mod == LENGTH_UPPER_L) {
    20fa:	f003 0378 	and.w	r3, r3, #120	; 0x78
		conv->specifier_cat = SPECIFIER_UINT;
    20fe:	f360 0102 	bfi	r1, r0, #0, #3
		if (conv->length_mod == LENGTH_UPPER_L) {
    2102:	2b40      	cmp	r3, #64	; 0x40
		conv->specifier_cat = SPECIFIER_UINT;
    2104:	f88d 103a 	strb.w	r1, [sp, #58]	; 0x3a
			conv->invalid = true;
    2108:	bf02      	ittt	eq
    210a:	f89d 1038 	ldrbeq.w	r1, [sp, #56]	; 0x38
    210e:	f041 0101 	orreq.w	r1, r1, #1
    2112:	f88d 1038 	strbeq.w	r1, [sp, #56]	; 0x38
		if (conv->specifier == 'c') {
    2116:	2a63      	cmp	r2, #99	; 0x63
    2118:	d131      	bne.n	217e <cbvprintf+0x39a>
			unsupported = (conv->length_mod != LENGTH_NONE);
    211a:	3b00      	subs	r3, #0
    211c:	bf18      	it	ne
    211e:	2301      	movne	r3, #1
	conv->unsupported |= unsupported;
    2120:	f89d 2038 	ldrb.w	r2, [sp, #56]	; 0x38
    2124:	f3c2 0140 	ubfx	r1, r2, #1, #1
    2128:	430b      	orrs	r3, r1
    212a:	f363 0241 	bfi	r2, r3, #1, #1
    212e:	f88d 2038 	strb.w	r2, [sp, #56]	; 0x38
	return sp;
    2132:	e6d8      	b.n	1ee6 <cbvprintf+0x102>
		conv->specifier_cat = SPECIFIER_UINT;
    2134:	f89d 103a 	ldrb.w	r1, [sp, #58]	; 0x3a
    2138:	2002      	movs	r0, #2
    213a:	e7de      	b.n	20fa <cbvprintf+0x316>
		conv->specifier_cat = SPECIFIER_PTR;
    213c:	f89d 203a 	ldrb.w	r2, [sp, #58]	; 0x3a
		if (conv->length_mod == LENGTH_UPPER_L) {
    2140:	f003 0378 	and.w	r3, r3, #120	; 0x78
    2144:	f1a3 0040 	sub.w	r0, r3, #64	; 0x40
		conv->specifier_cat = SPECIFIER_PTR;
    2148:	2103      	movs	r1, #3
    214a:	f361 0202 	bfi	r2, r1, #0, #3
		if (conv->length_mod == LENGTH_UPPER_L) {
    214e:	4243      	negs	r3, r0
		conv->specifier_cat = SPECIFIER_PTR;
    2150:	f88d 203a 	strb.w	r2, [sp, #58]	; 0x3a
		if (conv->length_mod == LENGTH_UPPER_L) {
    2154:	4143      	adcs	r3, r0
    2156:	e7e3      	b.n	2120 <cbvprintf+0x33c>
		conv->specifier_cat = SPECIFIER_PTR;
    2158:	f89d 203a 	ldrb.w	r2, [sp, #58]	; 0x3a
    215c:	2103      	movs	r1, #3
		if (conv->length_mod != LENGTH_NONE) {
    215e:	f013 0f78 	tst.w	r3, #120	; 0x78
		conv->specifier_cat = SPECIFIER_PTR;
    2162:	f361 0202 	bfi	r2, r1, #0, #3
    2166:	f88d 203a 	strb.w	r2, [sp, #58]	; 0x3a
		if (conv->length_mod != LENGTH_NONE) {
    216a:	bf14      	ite	ne
    216c:	2301      	movne	r3, #1
    216e:	2300      	moveq	r3, #0
    2170:	e7d6      	b.n	2120 <cbvprintf+0x33c>
		conv->invalid = true;
    2172:	f89d 3038 	ldrb.w	r3, [sp, #56]	; 0x38
    2176:	f043 0301 	orr.w	r3, r3, #1
    217a:	f88d 3038 	strb.w	r3, [sp, #56]	; 0x38
	bool unsupported = false;
    217e:	2300      	movs	r3, #0
    2180:	e7ce      	b.n	2120 <cbvprintf+0x33c>
		} else if (conv->width_present) {
    2182:	f99d 2038 	ldrsb.w	r2, [sp, #56]	; 0x38
    2186:	2a00      	cmp	r2, #0
			width = conv->width_value;
    2188:	bfb4      	ite	lt
    218a:	f8dd 803c 	ldrlt.w	r8, [sp, #60]	; 0x3c
		int width = -1;
    218e:	f04f 38ff 	movge.w	r8, #4294967295	; 0xffffffff
    2192:	e6ba      	b.n	1f0a <cbvprintf+0x126>
		} else if (conv->prec_present) {
    2194:	079f      	lsls	r7, r3, #30
    2196:	f57f aec6 	bpl.w	1f26 <cbvprintf+0x142>
			precision = conv->prec_value;
    219a:	9f10      	ldr	r7, [sp, #64]	; 0x40
			= (enum length_mod_enum)conv->length_mod;
    219c:	f89d 1039 	ldrb.w	r1, [sp, #57]	; 0x39
		conv->pad0_value = 0;
    21a0:	2300      	movs	r3, #0
		conv->pad0_pre_exp = 0;
    21a2:	e9cd 330f 	strd	r3, r3, [sp, #60]	; 0x3c
			= (enum specifier_cat_enum)conv->specifier_cat;
    21a6:	f89d 303a 	ldrb.w	r3, [sp, #58]	; 0x3a
		enum specifier_cat_enum specifier_cat
    21aa:	f003 0307 	and.w	r3, r3, #7
		if (specifier_cat == SPECIFIER_SINT) {
    21ae:	2b01      	cmp	r3, #1
			= (enum length_mod_enum)conv->length_mod;
    21b0:	f3c1 01c3 	ubfx	r1, r1, #3, #4
		if (specifier_cat == SPECIFIER_SINT) {
    21b4:	d137      	bne.n	2226 <cbvprintf+0x442>
			switch (length_mod) {
    21b6:	1ecb      	subs	r3, r1, #3
    21b8:	2b04      	cmp	r3, #4
    21ba:	d821      	bhi.n	2200 <cbvprintf+0x41c>
    21bc:	e8df f003 	tbb	[pc, r3]
    21c0:	20070703 	.word	0x20070703
    21c4:	20          	.byte	0x20
    21c5:	00          	.byte	0x00
					value->sint = va_arg(ap, long);
    21c6:	f854 2b04 	ldr.w	r2, [r4], #4
				value->sint = (short)value->sint;
    21ca:	17d3      	asrs	r3, r2, #31
    21cc:	e004      	b.n	21d8 <cbvprintf+0x3f4>
					(sint_value_type)va_arg(ap, intmax_t);
    21ce:	3407      	adds	r4, #7
    21d0:	f024 0407 	bic.w	r4, r4, #7
				value->sint =
    21d4:	e8f4 2302 	ldrd	r2, r3, [r4], #8
				value->sint = (short)value->sint;
    21d8:	e9cd 230c 	strd	r2, r3, [sp, #48]	; 0x30
		if (conv->invalid || conv->unsupported) {
    21dc:	f89d 3038 	ldrb.w	r3, [sp, #56]	; 0x38
    21e0:	f013 0603 	ands.w	r6, r3, #3
    21e4:	d055      	beq.n	2292 <cbvprintf+0x4ae>
			OUTS(sp, fp);
    21e6:	9b02      	ldr	r3, [sp, #8]
    21e8:	464a      	mov	r2, r9
    21ea:	4659      	mov	r1, fp
    21ec:	4650      	mov	r0, sl
    21ee:	f005 fedf 	bl	7fb0 <outs>
    21f2:	2800      	cmp	r0, #0
    21f4:	f2c0 813e 	blt.w	2474 <cbvprintf+0x690>
    21f8:	4405      	add	r5, r0
			OUTS(bps, bpe);
    21fa:	f8dd 9008 	ldr.w	r9, [sp, #8]
    21fe:	e5f9      	b.n	1df4 <cbvprintf+0x10>
					(sint_value_type)va_arg(ap, ptrdiff_t);
    2200:	f854 2b04 	ldr.w	r2, [r4], #4
			if (length_mod == LENGTH_HH) {
    2204:	2901      	cmp	r1, #1
					(sint_value_type)va_arg(ap, ptrdiff_t);
    2206:	ea4f 73e2 	mov.w	r3, r2, asr #31
    220a:	e9cd 230c 	strd	r2, r3, [sp, #48]	; 0x30
			if (length_mod == LENGTH_HH) {
    220e:	d105      	bne.n	221c <cbvprintf+0x438>
				value->uint = (unsigned char)value->uint;
    2210:	f89d 3030 	ldrb.w	r3, [sp, #48]	; 0x30
				value->uint = (unsigned short)value->uint;
    2214:	930c      	str	r3, [sp, #48]	; 0x30
    2216:	2300      	movs	r3, #0
    2218:	930d      	str	r3, [sp, #52]	; 0x34
    221a:	e7df      	b.n	21dc <cbvprintf+0x3f8>
			} else if (length_mod == LENGTH_H) {
    221c:	2902      	cmp	r1, #2
    221e:	d1dd      	bne.n	21dc <cbvprintf+0x3f8>
				value->sint = (short)value->sint;
    2220:	f9bd 2030 	ldrsh.w	r2, [sp, #48]	; 0x30
    2224:	e7d1      	b.n	21ca <cbvprintf+0x3e6>
		} else if (specifier_cat == SPECIFIER_UINT) {
    2226:	2b02      	cmp	r3, #2
    2228:	d123      	bne.n	2272 <cbvprintf+0x48e>
			switch (length_mod) {
    222a:	1ecb      	subs	r3, r1, #3
    222c:	2b04      	cmp	r3, #4
    222e:	d813      	bhi.n	2258 <cbvprintf+0x474>
    2230:	e8df f003 	tbb	[pc, r3]
    2234:	120a0a03 	.word	0x120a0a03
    2238:	12          	.byte	0x12
    2239:	00          	.byte	0x00
					value->uint = (wchar_t)va_arg(ap,
    223a:	6822      	ldr	r2, [r4, #0]
    223c:	920c      	str	r2, [sp, #48]	; 0x30
    223e:	2300      	movs	r3, #0
    2240:	1d20      	adds	r0, r4, #4
    2242:	930d      	str	r3, [sp, #52]	; 0x34
					(uint_value_type)va_arg(ap, size_t);
    2244:	4604      	mov	r4, r0
    2246:	e7c9      	b.n	21dc <cbvprintf+0x3f8>
					(uint_value_type)va_arg(ap,
    2248:	3407      	adds	r4, #7
    224a:	f024 0007 	bic.w	r0, r4, #7
				value->uint =
    224e:	e8f0 2302 	ldrd	r2, r3, [r0], #8
    2252:	e9cd 230c 	strd	r2, r3, [sp, #48]	; 0x30
				break;
    2256:	e7f5      	b.n	2244 <cbvprintf+0x460>
					(uint_value_type)va_arg(ap, size_t);
    2258:	f854 3b04 	ldr.w	r3, [r4], #4
    225c:	930c      	str	r3, [sp, #48]	; 0x30
			if (length_mod == LENGTH_HH) {
    225e:	2901      	cmp	r1, #1
					(uint_value_type)va_arg(ap, size_t);
    2260:	f04f 0300 	mov.w	r3, #0
    2264:	930d      	str	r3, [sp, #52]	; 0x34
			if (length_mod == LENGTH_HH) {
    2266:	d0d3      	beq.n	2210 <cbvprintf+0x42c>
			} else if (length_mod == LENGTH_H) {
    2268:	2902      	cmp	r1, #2
    226a:	d1b7      	bne.n	21dc <cbvprintf+0x3f8>
				value->uint = (unsigned short)value->uint;
    226c:	f8bd 3030 	ldrh.w	r3, [sp, #48]	; 0x30
    2270:	e7d0      	b.n	2214 <cbvprintf+0x430>
		} else if (specifier_cat == SPECIFIER_FP) {
    2272:	2b04      	cmp	r3, #4
    2274:	d107      	bne.n	2286 <cbvprintf+0x4a2>
			if (length_mod == LENGTH_UPPER_L) {
    2276:	3407      	adds	r4, #7
    2278:	f024 0407 	bic.w	r4, r4, #7
    227c:	e8f4 2302 	ldrd	r2, r3, [r4], #8
				value->ldbl = va_arg(ap, long double);
    2280:	e9cd 230c 	strd	r2, r3, [sp, #48]	; 0x30
    2284:	e7aa      	b.n	21dc <cbvprintf+0x3f8>
		} else if (specifier_cat == SPECIFIER_PTR) {
    2286:	2b03      	cmp	r3, #3
			value->ptr = va_arg(ap, void *);
    2288:	bf04      	itt	eq
    228a:	f854 3b04 	ldreq.w	r3, [r4], #4
    228e:	930c      	streq	r3, [sp, #48]	; 0x30
    2290:	e7a4      	b.n	21dc <cbvprintf+0x3f8>
		switch (conv->specifier) {
    2292:	f89d 003b 	ldrb.w	r0, [sp, #59]	; 0x3b
    2296:	2878      	cmp	r0, #120	; 0x78
    2298:	d8af      	bhi.n	21fa <cbvprintf+0x416>
    229a:	2862      	cmp	r0, #98	; 0x62
    229c:	d820      	bhi.n	22e0 <cbvprintf+0x4fc>
    229e:	2825      	cmp	r0, #37	; 0x25
    22a0:	f43f adb2 	beq.w	1e08 <cbvprintf+0x24>
    22a4:	2858      	cmp	r0, #88	; 0x58
    22a6:	d1a8      	bne.n	21fa <cbvprintf+0x416>
			bps = encode_uint(value->uint, conv, buf, bpe);
    22a8:	f10d 032e 	add.w	r3, sp, #46	; 0x2e
    22ac:	9300      	str	r3, [sp, #0]
    22ae:	e9dd 010c 	ldrd	r0, r1, [sp, #48]	; 0x30
    22b2:	ab06      	add	r3, sp, #24
    22b4:	aa0e      	add	r2, sp, #56	; 0x38
    22b6:	f7ff fd45 	bl	1d44 <encode_uint>
    22ba:	4681      	mov	r9, r0
			if (precision >= 0) {
    22bc:	2f00      	cmp	r7, #0
    22be:	f10d 002e 	add.w	r0, sp, #46	; 0x2e
    22c2:	db0b      	blt.n	22dc <cbvprintf+0x4f8>
				conv->flag_zero = false;
    22c4:	f89d 2038 	ldrb.w	r2, [sp, #56]	; 0x38
				size_t len = bpe - bps;
    22c8:	eba0 0309 	sub.w	r3, r0, r9
				conv->flag_zero = false;
    22cc:	f36f 1286 	bfc	r2, #6, #1
				if (len < (size_t)precision) {
    22d0:	429f      	cmp	r7, r3
				conv->flag_zero = false;
    22d2:	f88d 2038 	strb.w	r2, [sp, #56]	; 0x38
				if (len < (size_t)precision) {
    22d6:	d901      	bls.n	22dc <cbvprintf+0x4f8>
					conv->pad0_value = precision - (int)len;
    22d8:	1aff      	subs	r7, r7, r3
    22da:	970f      	str	r7, [sp, #60]	; 0x3c
		const char *bpe = buf + sizeof(buf);
    22dc:	4607      	mov	r7, r0
    22de:	e03c      	b.n	235a <cbvprintf+0x576>
    22e0:	3863      	subs	r0, #99	; 0x63
    22e2:	2815      	cmp	r0, #21
    22e4:	d889      	bhi.n	21fa <cbvprintf+0x416>
    22e6:	a201      	add	r2, pc, #4	; (adr r2, 22ec <cbvprintf+0x508>)
    22e8:	f852 f020 	ldr.w	pc, [r2, r0, lsl #2]
    22ec:	0000236b 	.word	0x0000236b
    22f0:	000023cd 	.word	0x000023cd
    22f4:	000021fb 	.word	0x000021fb
    22f8:	000021fb 	.word	0x000021fb
    22fc:	000021fb 	.word	0x000021fb
    2300:	000021fb 	.word	0x000021fb
    2304:	000023cd 	.word	0x000023cd
    2308:	000021fb 	.word	0x000021fb
    230c:	000021fb 	.word	0x000021fb
    2310:	000021fb 	.word	0x000021fb
    2314:	000021fb 	.word	0x000021fb
    2318:	0000242b 	.word	0x0000242b
    231c:	000023f9 	.word	0x000023f9
    2320:	000023fd 	.word	0x000023fd
    2324:	000021fb 	.word	0x000021fb
    2328:	000021fb 	.word	0x000021fb
    232c:	00002345 	.word	0x00002345
    2330:	000021fb 	.word	0x000021fb
    2334:	000023f9 	.word	0x000023f9
    2338:	000021fb 	.word	0x000021fb
    233c:	000021fb 	.word	0x000021fb
    2340:	000023f9 	.word	0x000023f9
			if (precision >= 0) {
    2344:	2f00      	cmp	r7, #0
			bps = (const char *)value->ptr;
    2346:	f8dd 9030 	ldr.w	r9, [sp, #48]	; 0x30
			if (precision >= 0) {
    234a:	db0a      	blt.n	2362 <cbvprintf+0x57e>
				len = strnlen(bps, precision);
    234c:	4639      	mov	r1, r7
    234e:	4648      	mov	r0, r9
    2350:	f006 ff0f 	bl	9172 <strnlen>
			bpe = bps + len;
    2354:	eb09 0700 	add.w	r7, r9, r0
		char sign = 0;
    2358:	2600      	movs	r6, #0
		if (bps == NULL) {
    235a:	f1b9 0f00 	cmp.w	r9, #0
    235e:	d10c      	bne.n	237a <cbvprintf+0x596>
    2360:	e74b      	b.n	21fa <cbvprintf+0x416>
				len = strlen(bps);
    2362:	4648      	mov	r0, r9
    2364:	f7fe fcf0 	bl	d48 <strlen>
    2368:	e7f4      	b.n	2354 <cbvprintf+0x570>
			buf[0] = CHAR_IS_SIGNED ? value->sint : value->uint;
    236a:	9b0c      	ldr	r3, [sp, #48]	; 0x30
    236c:	f88d 3018 	strb.w	r3, [sp, #24]
			break;
    2370:	2600      	movs	r6, #0
			bpe = buf + 1;
    2372:	f10d 0719 	add.w	r7, sp, #25
			bps = buf;
    2376:	f10d 0918 	add.w	r9, sp, #24
		size_t nj_len = (bpe - bps);
    237a:	eba7 0309 	sub.w	r3, r7, r9
		if (sign != 0) {
    237e:	b106      	cbz	r6, 2382 <cbvprintf+0x59e>
			nj_len += 1U;
    2380:	3301      	adds	r3, #1
		if (conv->altform_0c) {
    2382:	f89d 203a 	ldrb.w	r2, [sp, #58]	; 0x3a
    2386:	06d0      	lsls	r0, r2, #27
    2388:	d569      	bpl.n	245e <cbvprintf+0x67a>
			nj_len += 2U;
    238a:	3302      	adds	r3, #2
		if (conv->pad_fp) {
    238c:	0652      	lsls	r2, r2, #25
		nj_len += conv->pad0_value;
    238e:	990f      	ldr	r1, [sp, #60]	; 0x3c
			nj_len += conv->pad0_pre_exp;
    2390:	bf48      	it	mi
    2392:	9a10      	ldrmi	r2, [sp, #64]	; 0x40
		nj_len += conv->pad0_value;
    2394:	440b      	add	r3, r1
			nj_len += conv->pad0_pre_exp;
    2396:	bf48      	it	mi
    2398:	189b      	addmi	r3, r3, r2
		if (width > 0) {
    239a:	f1b8 0f00 	cmp.w	r8, #0
    239e:	dd76      	ble.n	248e <cbvprintf+0x6aa>
			if (!conv->flag_dash) {
    23a0:	f89d 2038 	ldrb.w	r2, [sp, #56]	; 0x38
			width -= (int)nj_len;
    23a4:	eba8 0803 	sub.w	r8, r8, r3
			if (!conv->flag_dash) {
    23a8:	f3c2 0380 	ubfx	r3, r2, #2, #1
    23ac:	9303      	str	r3, [sp, #12]
    23ae:	0753      	lsls	r3, r2, #29
    23b0:	d46d      	bmi.n	248e <cbvprintf+0x6aa>
				if (conv->flag_zero) {
    23b2:	0650      	lsls	r0, r2, #25
    23b4:	d561      	bpl.n	247a <cbvprintf+0x696>
					if (sign != 0) {
    23b6:	b13e      	cbz	r6, 23c8 <cbvprintf+0x5e4>
						OUTC(sign);
    23b8:	4659      	mov	r1, fp
    23ba:	4630      	mov	r0, r6
    23bc:	47d0      	blx	sl
    23be:	2800      	cmp	r0, #0
    23c0:	db58      	blt.n	2474 <cbvprintf+0x690>
						sign = 0;
    23c2:	9b03      	ldr	r3, [sp, #12]
						OUTC(sign);
    23c4:	3501      	adds	r5, #1
						sign = 0;
    23c6:	461e      	mov	r6, r3
					pad = '0';
    23c8:	2330      	movs	r3, #48	; 0x30
    23ca:	e057      	b.n	247c <cbvprintf+0x698>
			if (conv->flag_plus) {
    23cc:	071e      	lsls	r6, r3, #28
    23ce:	d411      	bmi.n	23f4 <cbvprintf+0x610>
				sign = ' ';
    23d0:	f013 0610 	ands.w	r6, r3, #16
    23d4:	bf18      	it	ne
    23d6:	2620      	movne	r6, #32
			sint = value->sint;
    23d8:	e9dd 230c 	ldrd	r2, r3, [sp, #48]	; 0x30
			if (sint < 0) {
    23dc:	2a00      	cmp	r2, #0
    23de:	f173 0100 	sbcs.w	r1, r3, #0
    23e2:	f6bf af61 	bge.w	22a8 <cbvprintf+0x4c4>
				value->uint = (uint_value_type)-sint;
    23e6:	4252      	negs	r2, r2
    23e8:	eb63 0343 	sbc.w	r3, r3, r3, lsl #1
    23ec:	e9cd 230c 	strd	r2, r3, [sp, #48]	; 0x30
				sign = '-';
    23f0:	262d      	movs	r6, #45	; 0x2d
    23f2:	e759      	b.n	22a8 <cbvprintf+0x4c4>
				sign = '+';
    23f4:	262b      	movs	r6, #43	; 0x2b
    23f6:	e7ef      	b.n	23d8 <cbvprintf+0x5f4>
		switch (conv->specifier) {
    23f8:	2600      	movs	r6, #0
    23fa:	e755      	b.n	22a8 <cbvprintf+0x4c4>
			if (value->ptr != NULL) {
    23fc:	980c      	ldr	r0, [sp, #48]	; 0x30
    23fe:	b348      	cbz	r0, 2454 <cbvprintf+0x670>
				bps = encode_uint((uintptr_t)value->ptr, conv,
    2400:	f10d 032e 	add.w	r3, sp, #46	; 0x2e
    2404:	9300      	str	r3, [sp, #0]
    2406:	aa0e      	add	r2, sp, #56	; 0x38
    2408:	ab06      	add	r3, sp, #24
    240a:	2100      	movs	r1, #0
    240c:	f7ff fc9a 	bl	1d44 <encode_uint>
				conv->altform_0c = true;
    2410:	f8bd 303a 	ldrh.w	r3, [sp, #58]	; 0x3a
    2414:	f003 03ef 	and.w	r3, r3, #239	; 0xef
    2418:	f443 43f0 	orr.w	r3, r3, #30720	; 0x7800
    241c:	f043 0310 	orr.w	r3, r3, #16
				bps = encode_uint((uintptr_t)value->ptr, conv,
    2420:	4681      	mov	r9, r0
				conv->altform_0c = true;
    2422:	f8ad 303a 	strh.w	r3, [sp, #58]	; 0x3a
		char sign = 0;
    2426:	2600      	movs	r6, #0
				goto prec_int_pad0;
    2428:	e748      	b.n	22bc <cbvprintf+0x4d8>
				store_count(conv, value->ptr, count);
    242a:	9b0c      	ldr	r3, [sp, #48]	; 0x30
	switch ((enum length_mod_enum)conv->length_mod) {
    242c:	2907      	cmp	r1, #7
    242e:	f63f aee4 	bhi.w	21fa <cbvprintf+0x416>
    2432:	e8df f001 	tbb	[pc, r1]
    2436:	040d      	.short	0x040d
    2438:	08080d06 	.word	0x08080d06
    243c:	0d0d      	.short	0x0d0d
		*(signed char *)dp = (signed char)count;
    243e:	701d      	strb	r5, [r3, #0]
		break;
    2440:	e6db      	b.n	21fa <cbvprintf+0x416>
		*(short *)dp = (short)count;
    2442:	801d      	strh	r5, [r3, #0]
		break;
    2444:	e6d9      	b.n	21fa <cbvprintf+0x416>
		*(intmax_t *)dp = (intmax_t)count;
    2446:	4628      	mov	r0, r5
    2448:	17e9      	asrs	r1, r5, #31
    244a:	e9c3 0100 	strd	r0, r1, [r3]
		break;
    244e:	e6d4      	b.n	21fa <cbvprintf+0x416>
		*(ptrdiff_t *)dp = (ptrdiff_t)count;
    2450:	601d      	str	r5, [r3, #0]
		break;
    2452:	e6d2      	b.n	21fa <cbvprintf+0x416>
			bpe = bps + 5;
    2454:	4f2e      	ldr	r7, [pc, #184]	; (2510 <cbvprintf+0x72c>)
    2456:	4606      	mov	r6, r0
			bps = "(nil)";
    2458:	f1a7 0905 	sub.w	r9, r7, #5
    245c:	e78d      	b.n	237a <cbvprintf+0x596>
		} else if (conv->altform_0) {
    245e:	0711      	lsls	r1, r2, #28
			nj_len += 1U;
    2460:	bf48      	it	mi
    2462:	3301      	addmi	r3, #1
    2464:	e792      	b.n	238c <cbvprintf+0x5a8>
					OUTC(pad);
    2466:	4618      	mov	r0, r3
    2468:	4659      	mov	r1, fp
    246a:	9303      	str	r3, [sp, #12]
    246c:	47d0      	blx	sl
    246e:	2800      	cmp	r0, #0
    2470:	9b03      	ldr	r3, [sp, #12]
    2472:	da04      	bge.n	247e <cbvprintf+0x69a>
#undef OUTS
#undef OUTC
}
    2474:	b013      	add	sp, #76	; 0x4c
    2476:	e8bd 8ff0 	ldmia.w	sp!, {r4, r5, r6, r7, r8, r9, sl, fp, pc}
				char pad = ' ';
    247a:	2320      	movs	r3, #32
    247c:	4445      	add	r5, r8
    247e:	4642      	mov	r2, r8
				while (width-- > 0) {
    2480:	2a00      	cmp	r2, #0
    2482:	eba5 0108 	sub.w	r1, r5, r8
    2486:	f108 38ff 	add.w	r8, r8, #4294967295	; 0xffffffff
    248a:	dcec      	bgt.n	2466 <cbvprintf+0x682>
    248c:	460d      	mov	r5, r1
		if (sign != 0) {
    248e:	b12e      	cbz	r6, 249c <cbvprintf+0x6b8>
			OUTC(sign);
    2490:	4659      	mov	r1, fp
    2492:	4630      	mov	r0, r6
    2494:	47d0      	blx	sl
    2496:	2800      	cmp	r0, #0
    2498:	dbec      	blt.n	2474 <cbvprintf+0x690>
    249a:	3501      	adds	r5, #1
			if (conv->altform_0c | conv->altform_0) {
    249c:	f89d 303a 	ldrb.w	r3, [sp, #58]	; 0x3a
    24a0:	06d9      	lsls	r1, r3, #27
    24a2:	d401      	bmi.n	24a8 <cbvprintf+0x6c4>
    24a4:	071a      	lsls	r2, r3, #28
    24a6:	d505      	bpl.n	24b4 <cbvprintf+0x6d0>
				OUTC('0');
    24a8:	4659      	mov	r1, fp
    24aa:	2030      	movs	r0, #48	; 0x30
    24ac:	47d0      	blx	sl
    24ae:	2800      	cmp	r0, #0
    24b0:	dbe0      	blt.n	2474 <cbvprintf+0x690>
    24b2:	3501      	adds	r5, #1
			if (conv->altform_0c) {
    24b4:	f89d 303a 	ldrb.w	r3, [sp, #58]	; 0x3a
    24b8:	06db      	lsls	r3, r3, #27
    24ba:	d506      	bpl.n	24ca <cbvprintf+0x6e6>
				OUTC(conv->specifier);
    24bc:	f89d 003b 	ldrb.w	r0, [sp, #59]	; 0x3b
    24c0:	4659      	mov	r1, fp
    24c2:	47d0      	blx	sl
    24c4:	2800      	cmp	r0, #0
    24c6:	dbd5      	blt.n	2474 <cbvprintf+0x690>
    24c8:	3501      	adds	r5, #1
			while (pad_len-- > 0) {
    24ca:	9e0f      	ldr	r6, [sp, #60]	; 0x3c
    24cc:	442e      	add	r6, r5
    24ce:	1b73      	subs	r3, r6, r5
    24d0:	2b00      	cmp	r3, #0
    24d2:	dc15      	bgt.n	2500 <cbvprintf+0x71c>
			OUTS(bps, bpe);
    24d4:	463b      	mov	r3, r7
    24d6:	464a      	mov	r2, r9
    24d8:	4659      	mov	r1, fp
    24da:	4650      	mov	r0, sl
    24dc:	f005 fd68 	bl	7fb0 <outs>
    24e0:	2800      	cmp	r0, #0
    24e2:	dbc7      	blt.n	2474 <cbvprintf+0x690>
    24e4:	4405      	add	r5, r0
		while (width > 0) {
    24e6:	44a8      	add	r8, r5
    24e8:	eba8 0305 	sub.w	r3, r8, r5
    24ec:	2b00      	cmp	r3, #0
    24ee:	f77f ae84 	ble.w	21fa <cbvprintf+0x416>
			OUTC(' ');
    24f2:	4659      	mov	r1, fp
    24f4:	2020      	movs	r0, #32
    24f6:	47d0      	blx	sl
    24f8:	2800      	cmp	r0, #0
    24fa:	dbbb      	blt.n	2474 <cbvprintf+0x690>
    24fc:	3501      	adds	r5, #1
			--width;
    24fe:	e7f3      	b.n	24e8 <cbvprintf+0x704>
				OUTC('0');
    2500:	4659      	mov	r1, fp
    2502:	2030      	movs	r0, #48	; 0x30
    2504:	47d0      	blx	sl
    2506:	2800      	cmp	r0, #0
    2508:	dbb4      	blt.n	2474 <cbvprintf+0x690>
    250a:	3501      	adds	r5, #1
    250c:	e7df      	b.n	24ce <cbvprintf+0x6ea>
    250e:	bf00      	nop
    2510:	0000975f 	.word	0x0000975f

00002514 <enable_logger>:

K_KERNEL_STACK_DEFINE(logging_stack, CONFIG_LOG_PROCESS_THREAD_STACK_SIZE);
struct k_thread logging_thread;

static int enable_logger(const struct device *arg)
{
    2514:	b530      	push	{r4, r5, lr}
	ARG_UNUSED(arg);

	if (IS_ENABLED(CONFIG_LOG_PROCESS_THREAD)) {
		k_timer_init(&log_process_thread_timer,
    2516:	4910      	ldr	r1, [pc, #64]	; (2558 <enable_logger+0x44>)
    2518:	4810      	ldr	r0, [pc, #64]	; (255c <enable_logger+0x48>)
{
    251a:	b089      	sub	sp, #36	; 0x24
		k_timer_init(&log_process_thread_timer,
    251c:	2200      	movs	r2, #0
    251e:	f006 fdcd 	bl	90bc <k_timer_init>
		};
		return (k_tid_t) arch_syscall_invoke6(*(uintptr_t *)&new_thread, *(uintptr_t *)&stack, *(uintptr_t *)&stack_size, *(uintptr_t *)&entry, *(uintptr_t *)&p1, (uintptr_t) &more, K_SYSCALL_K_THREAD_CREATE);
	}
#endif
	compiler_barrier();
	return z_impl_k_thread_create(new_thread, stack, stack_size, entry, p1, p2, p3, prio, options, delay);
    2522:	4d0f      	ldr	r5, [pc, #60]	; (2560 <enable_logger+0x4c>)
    2524:	490f      	ldr	r1, [pc, #60]	; (2564 <enable_logger+0x50>)
    2526:	2200      	movs	r2, #0
    2528:	2300      	movs	r3, #0
    252a:	e9cd 2306 	strd	r2, r3, [sp, #24]
    252e:	2400      	movs	r4, #0
    2530:	230e      	movs	r3, #14
    2532:	e9cd 3403 	strd	r3, r4, [sp, #12]
    2536:	e9cd 4401 	strd	r4, r4, [sp, #4]
    253a:	4b0b      	ldr	r3, [pc, #44]	; (2568 <enable_logger+0x54>)
    253c:	9400      	str	r4, [sp, #0]
    253e:	f44f 7240 	mov.w	r2, #768	; 0x300
    2542:	4628      	mov	r0, r5
    2544:	f004 ffac 	bl	74a0 <z_impl_k_thread_create>
	if (z_syscall_trap()) {
		return (int) arch_syscall_invoke2(*(uintptr_t *)&thread, *(uintptr_t *)&str, K_SYSCALL_K_THREAD_NAME_SET);
	}
#endif
	compiler_barrier();
	return z_impl_k_thread_name_set(thread, str);
    2548:	4908      	ldr	r1, [pc, #32]	; (256c <enable_logger+0x58>)
    254a:	4628      	mov	r0, r5
    254c:	f006 fd3c 	bl	8fc8 <z_impl_k_thread_name_set>
	} else {
		log_init();
	}

	return 0;
}
    2550:	4620      	mov	r0, r4
    2552:	b009      	add	sp, #36	; 0x24
    2554:	bd30      	pop	{r4, r5, pc}
    2556:	bf00      	nop
    2558:	00002571 	.word	0x00002571
    255c:	200001b0 	.word	0x200001b0
    2560:	200001e8 	.word	0x200001e8
    2564:	20000ea0 	.word	0x20000ea0
    2568:	000029d5 	.word	0x000029d5
    256c:	00009760 	.word	0x00009760

00002570 <log_process_thread_timer_expiry_fn>:
		arch_syscall_invoke1(*(uintptr_t *)&sem, K_SYSCALL_K_SEM_GIVE);
		return;
	}
#endif
	compiler_barrier();
	z_impl_k_sem_give(sem);
    2570:	4801      	ldr	r0, [pc, #4]	; (2578 <log_process_thread_timer_expiry_fn+0x8>)
    2572:	f004 bf01 	b.w	7378 <z_impl_k_sem_give>
    2576:	bf00      	nop
    2578:	2000019c 	.word	0x2000019c

0000257c <z_log_get_s_mask>:
{
    257c:	b5f0      	push	{r4, r5, r6, r7, lr}
    257e:	4605      	mov	r5, r0
		} else if (arm && isalpha((int)curr)) {
    2580:	4e0f      	ldr	r6, [pc, #60]	; (25c0 <z_log_get_s_mask+0x44>)
	uint32_t mask = 0U;
    2582:	2000      	movs	r0, #0
	uint32_t arg = 0U;
    2584:	4603      	mov	r3, r0
	bool arm = false;
    2586:	4602      	mov	r2, r0
				mask |= BIT(arg);
    2588:	2701      	movs	r7, #1
	while ((curr = *str++) && arg < nargs) {
    258a:	f815 4b01 	ldrb.w	r4, [r5], #1
    258e:	b10c      	cbz	r4, 2594 <z_log_get_s_mask+0x18>
    2590:	428b      	cmp	r3, r1
    2592:	d300      	bcc.n	2596 <z_log_get_s_mask+0x1a>
}
    2594:	bdf0      	pop	{r4, r5, r6, r7, pc}
		if (curr == '%') {
    2596:	2c25      	cmp	r4, #37	; 0x25
    2598:	d102      	bne.n	25a0 <z_log_get_s_mask+0x24>
			arm = !arm;
    259a:	f082 0201 	eor.w	r2, r2, #1
    259e:	e7f4      	b.n	258a <z_log_get_s_mask+0xe>
		} else if (arm && isalpha((int)curr)) {
    25a0:	2a00      	cmp	r2, #0
    25a2:	d0f2      	beq.n	258a <z_log_get_s_mask+0xe>
    25a4:	f814 c006 	ldrb.w	ip, [r4, r6]
    25a8:	f01c 0f03 	tst.w	ip, #3
    25ac:	d0ed      	beq.n	258a <z_log_get_s_mask+0xe>
			if (curr == 's') {
    25ae:	2c73      	cmp	r4, #115	; 0x73
				mask |= BIT(arg);
    25b0:	bf04      	itt	eq
    25b2:	fa07 f203 	lsleq.w	r2, r7, r3
    25b6:	4310      	orreq	r0, r2
			arg++;
    25b8:	3301      	adds	r3, #1
			arm = false;
    25ba:	2200      	movs	r2, #0
    25bc:	e7e5      	b.n	258a <z_log_get_s_mask+0xe>
    25be:	bf00      	nop
    25c0:	0000a0bb 	.word	0x0000a0bb

000025c4 <log_core_init>:
{
    25c4:	b508      	push	{r3, lr}
		log_msg_pool_init();
    25c6:	f000 fa67 	bl	2a98 <log_msg_pool_init>
		log_list_init(&list);
    25ca:	4809      	ldr	r0, [pc, #36]	; (25f0 <log_core_init+0x2c>)
    25cc:	f005 fd07 	bl	7fde <log_list_init>
		k_mem_slab_init(&log_strdup_pool, log_strdup_pool_buf,
    25d0:	2304      	movs	r3, #4
    25d2:	2228      	movs	r2, #40	; 0x28
    25d4:	4907      	ldr	r1, [pc, #28]	; (25f4 <log_core_init+0x30>)
    25d6:	4808      	ldr	r0, [pc, #32]	; (25f8 <log_core_init+0x34>)
    25d8:	f006 fbda 	bl	8d90 <k_mem_slab_init>
		timestamp_func = k_cycle_get_32_wrapper;
    25dc:	4b07      	ldr	r3, [pc, #28]	; (25fc <log_core_init+0x38>)
    25de:	4a08      	ldr	r2, [pc, #32]	; (2600 <log_core_init+0x3c>)
    25e0:	601a      	str	r2, [r3, #0]
	log_output_timestamp_freq_set(freq);
    25e2:	f44f 4000 	mov.w	r0, #32768	; 0x8000
}
    25e6:	e8bd 4008 	ldmia.w	sp!, {r3, lr}
	log_output_timestamp_freq_set(freq);
    25ea:	f000 bc9f 	b.w	2f2c <log_output_timestamp_freq_set>
    25ee:	bf00      	nop
    25f0:	20000428 	.word	0x20000428
    25f4:	200022e0 	.word	0x200022e0
    25f8:	20000430 	.word	0x20000430
    25fc:	20000004 	.word	0x20000004
    2600:	0000801d 	.word	0x0000801d

00002604 <dropped_notify>:
{
    2604:	b5f8      	push	{r3, r4, r5, r6, r7, lr}
{
	/* This builtin, as described by Intel, is not a traditional
	 * test-and-set operation, but rather an atomic exchange operation. It
	 * writes value into *ptr, and returns the previous contents of *ptr.
	 */
	return __atomic_exchange_n(target, value, __ATOMIC_SEQ_CST);
    2606:	4b0f      	ldr	r3, [pc, #60]	; (2644 <dropped_notify+0x40>)
    2608:	f3bf 8f5b 	dmb	ish
    260c:	2500      	movs	r5, #0
    260e:	e853 7f00 	ldrex	r7, [r3]
    2612:	e843 5200 	strex	r2, r5, [r3]
    2616:	2a00      	cmp	r2, #0
    2618:	d1f9      	bne.n	260e <dropped_notify+0xa>
    261a:	f3bf 8f5b 	dmb	ish
 *
 * @return Number of backends.
 */
static inline int log_backend_count_get(void)
{
	return __log_backends_end - __log_backends_start;
    261e:	4c0a      	ldr	r4, [pc, #40]	; (2648 <dropped_notify+0x44>)
    2620:	4e0a      	ldr	r6, [pc, #40]	; (264c <dropped_notify+0x48>)
    2622:	1b36      	subs	r6, r6, r4
    2624:	1136      	asrs	r6, r6, #4
	for (int i = 0; i < log_backend_count_get(); i++) {
    2626:	42b5      	cmp	r5, r6
    2628:	db00      	blt.n	262c <dropped_notify+0x28>
}
    262a:	bdf8      	pop	{r3, r4, r5, r6, r7, pc}
 */
static inline bool log_backend_is_active(
				const struct log_backend *const backend)
{
	__ASSERT_NO_MSG(backend != NULL);
	return backend->cb->active;
    262c:	6863      	ldr	r3, [r4, #4]
		if (log_backend_is_active(backend)) {
    262e:	795b      	ldrb	r3, [r3, #5]
    2630:	b12b      	cbz	r3, 263e <dropped_notify+0x3a>
	if (backend->api->dropped != NULL) {
    2632:	6823      	ldr	r3, [r4, #0]
    2634:	68db      	ldr	r3, [r3, #12]
    2636:	b113      	cbz	r3, 263e <dropped_notify+0x3a>
		backend->api->dropped(backend, cnt);
    2638:	4639      	mov	r1, r7
    263a:	4620      	mov	r0, r4
    263c:	4798      	blx	r3
	for (int i = 0; i < log_backend_count_get(); i++) {
    263e:	3501      	adds	r5, #1
    2640:	3410      	adds	r4, #16
    2642:	e7f0      	b.n	2626 <dropped_notify+0x22>
    2644:	20000420 	.word	0x20000420
    2648:	000093d4 	.word	0x000093d4
    264c:	000093e4 	.word	0x000093e4

00002650 <log_dropped>:
	return __atomic_fetch_add(target, value, __ATOMIC_SEQ_CST);
    2650:	4b06      	ldr	r3, [pc, #24]	; (266c <log_dropped+0x1c>)
    2652:	f3bf 8f5b 	dmb	ish
    2656:	e853 2f00 	ldrex	r2, [r3]
    265a:	3201      	adds	r2, #1
    265c:	e843 2100 	strex	r1, r2, [r3]
    2660:	2900      	cmp	r1, #0
    2662:	d1f8      	bne.n	2656 <log_dropped+0x6>
    2664:	f3bf 8f5b 	dmb	ish
}
    2668:	4770      	bx	lr
    266a:	bf00      	nop
    266c:	20000420 	.word	0x20000420

00002670 <log_source_name_get>:
 * @return Source ID.
 */
static inline uint32_t log_const_source_id(
				const struct log_source_const_data *data)
{
	return ((uint8_t *)data - (uint8_t *)__log_const_start)/
    2670:	4a04      	ldr	r2, [pc, #16]	; (2684 <log_source_name_get+0x14>)
    2672:	4b05      	ldr	r3, [pc, #20]	; (2688 <log_source_name_get+0x18>)
    2674:	1a9b      	subs	r3, r3, r2
	return src_id < log_sources_count() ? log_name_get(src_id) : NULL;
    2676:	ebb1 0fd3 	cmp.w	r1, r3, lsr #3
	return __log_const_start[source_id].name;
    267a:	bf34      	ite	cc
    267c:	f852 0031 	ldrcc.w	r0, [r2, r1, lsl #3]
    2680:	2000      	movcs	r0, #0
}
    2682:	4770      	bx	lr
    2684:	00009384 	.word	0x00009384
    2688:	000093d4 	.word	0x000093d4

0000268c <log_backend_enable>:
	id += backend - log_backend_get(0);
    268c:	4b09      	ldr	r3, [pc, #36]	; (26b4 <log_backend_enable+0x28>)
	log_backend_id_set(backend, id);
    268e:	6842      	ldr	r2, [r0, #4]
	id += backend - log_backend_get(0);
    2690:	1ac3      	subs	r3, r0, r3
    2692:	111b      	asrs	r3, r3, #4
    2694:	3301      	adds	r3, #1
{
    2696:	b510      	push	{r4, lr}
	log_backend_id_set(backend, id);
    2698:	7113      	strb	r3, [r2, #4]
	log_backend_activate(backend, ctx);
    269a:	6843      	ldr	r3, [r0, #4]
	if (!backend_attached) {
    269c:	4c06      	ldr	r4, [pc, #24]	; (26b8 <log_backend_enable+0x2c>)
	backend->cb->ctx = ctx;
    269e:	6019      	str	r1, [r3, #0]
	backend->cb->active = true;
    26a0:	2201      	movs	r2, #1
    26a2:	715a      	strb	r2, [r3, #5]
    26a4:	7822      	ldrb	r2, [r4, #0]
    26a6:	b912      	cbnz	r2, 26ae <log_backend_enable+0x22>
    26a8:	4804      	ldr	r0, [pc, #16]	; (26bc <log_backend_enable+0x30>)
    26aa:	f004 fe65 	bl	7378 <z_impl_k_sem_give>
	backend_attached = true;
    26ae:	2301      	movs	r3, #1
    26b0:	7023      	strb	r3, [r4, #0]
}
    26b2:	bd10      	pop	{r4, pc}
    26b4:	000093d4 	.word	0x000093d4
    26b8:	20000974 	.word	0x20000974
    26bc:	2000019c 	.word	0x2000019c

000026c0 <log_init>:
{
    26c0:	b570      	push	{r4, r5, r6, lr}
    26c2:	4b11      	ldr	r3, [pc, #68]	; (2708 <log_init+0x48>)
    26c4:	f3bf 8f5b 	dmb	ish
    26c8:	e853 5f00 	ldrex	r5, [r3]
    26cc:	1c6a      	adds	r2, r5, #1
    26ce:	e843 2100 	strex	r1, r2, [r3]
    26d2:	2900      	cmp	r1, #0
    26d4:	d1f8      	bne.n	26c8 <log_init+0x8>
    26d6:	f3bf 8f5b 	dmb	ish
	if (atomic_inc(&initialized) != 0) {
    26da:	b92d      	cbnz	r5, 26e8 <log_init+0x28>
	return __log_backends_end - __log_backends_start;
    26dc:	4c0b      	ldr	r4, [pc, #44]	; (270c <log_init+0x4c>)
    26de:	4e0c      	ldr	r6, [pc, #48]	; (2710 <log_init+0x50>)
    26e0:	1b36      	subs	r6, r6, r4
    26e2:	1136      	asrs	r6, r6, #4
	for (i = 0; i < log_backend_count_get(); i++) {
    26e4:	42b5      	cmp	r5, r6
    26e6:	db00      	blt.n	26ea <log_init+0x2a>
}
    26e8:	bd70      	pop	{r4, r5, r6, pc}
		if (backend->autostart) {
    26ea:	7b23      	ldrb	r3, [r4, #12]
    26ec:	b14b      	cbz	r3, 2702 <log_init+0x42>
			if (backend->api->init != NULL) {
    26ee:	6823      	ldr	r3, [r4, #0]
    26f0:	695b      	ldr	r3, [r3, #20]
    26f2:	b10b      	cbz	r3, 26f8 <log_init+0x38>
				backend->api->init(backend);
    26f4:	4620      	mov	r0, r4
    26f6:	4798      	blx	r3
			log_backend_enable(backend, NULL, CONFIG_LOG_MAX_LEVEL);
    26f8:	2204      	movs	r2, #4
    26fa:	2100      	movs	r1, #0
    26fc:	4620      	mov	r0, r4
    26fe:	f7ff ffc5 	bl	268c <log_backend_enable>
	for (i = 0; i < log_backend_count_get(); i++) {
    2702:	3501      	adds	r5, #1
    2704:	3410      	adds	r4, #16
    2706:	e7ed      	b.n	26e4 <log_init+0x24>
    2708:	20000424 	.word	0x20000424
    270c:	000093d4 	.word	0x000093d4
    2710:	000093e4 	.word	0x000093e4

00002714 <log_strdup>:
	return (((const char *)addr >= (const char *)RO_START) &&
    2714:	4b17      	ldr	r3, [pc, #92]	; (2774 <log_strdup+0x60>)
    2716:	4298      	cmp	r0, r3
{
    2718:	b573      	push	{r0, r1, r4, r5, r6, lr}
    271a:	4604      	mov	r4, r0
	return (((const char *)addr >= (const char *)RO_START) &&
    271c:	d302      	bcc.n	2724 <log_strdup+0x10>
	if (IS_ENABLED(CONFIG_LOG_IMMEDIATE) ||
    271e:	4b16      	ldr	r3, [pc, #88]	; (2778 <log_strdup+0x64>)
    2720:	4298      	cmp	r0, r3
    2722:	d321      	bcc.n	2768 <log_strdup+0x54>
	err = k_mem_slab_alloc(&log_strdup_pool, (void **)&dup, K_NO_WAIT);
    2724:	4815      	ldr	r0, [pc, #84]	; (277c <log_strdup+0x68>)
    2726:	2200      	movs	r2, #0
    2728:	2300      	movs	r3, #0
    272a:	a901      	add	r1, sp, #4
    272c:	f004 f988 	bl	6a40 <k_mem_slab_alloc>
	if (err != 0) {
    2730:	4605      	mov	r5, r0
    2732:	b9e0      	cbnz	r0, 276e <log_strdup+0x5a>
	return __atomic_exchange_n(target, value, __ATOMIC_SEQ_CST);
    2734:	2201      	movs	r2, #1
    2736:	9b01      	ldr	r3, [sp, #4]
    2738:	f3bf 8f5b 	dmb	ish
    273c:	e853 1f00 	ldrex	r1, [r3]
    2740:	e843 2000 	strex	r0, r2, [r3]
    2744:	2800      	cmp	r0, #0
    2746:	d1f9      	bne.n	273c <log_strdup+0x28>
    2748:	f3bf 8f5b 	dmb	ish
	strncpy(dup->buf, str, sizeof(dup->buf) - 2);
    274c:	9e01      	ldr	r6, [sp, #4]
    274e:	1d33      	adds	r3, r6, #4
#if __GNUC_PREREQ__(4,8) || defined(__clang__)
__ssp_bos_icheck3_restrict(stpncpy, char *, const char *)
#endif
__ssp_bos_icheck2_restrict(strcpy, char *, const char *)
__ssp_bos_icheck2_restrict(strcat, char *, const char *)
__ssp_bos_icheck3_restrict(strncpy, char *, const char *)
    2750:	221f      	movs	r2, #31
    2752:	4618      	mov	r0, r3
    2754:	4621      	mov	r1, r4
    2756:	f006 fcf9 	bl	914c <strncpy>
	dup->buf[sizeof(dup->buf) - 2] = '~';
    275a:	227e      	movs	r2, #126	; 0x7e
    275c:	4603      	mov	r3, r0
    275e:	f886 2023 	strb.w	r2, [r6, #35]	; 0x23
	dup->buf[sizeof(dup->buf) - 1] = '\0';
    2762:	f886 5024 	strb.w	r5, [r6, #36]	; 0x24
	return dup->buf;
    2766:	461c      	mov	r4, r3
}
    2768:	4620      	mov	r0, r4
    276a:	b002      	add	sp, #8
    276c:	bd70      	pop	{r4, r5, r6, pc}
		return (char *)log_strdup_fail_msg;
    276e:	4b04      	ldr	r3, [pc, #16]	; (2780 <log_strdup+0x6c>)
    2770:	e7f9      	b.n	2766 <log_strdup+0x52>
    2772:	bf00      	nop
    2774:	00009194 	.word	0x00009194
    2778:	0000a1bc 	.word	0x0000a1bc
    277c:	20000430 	.word	0x20000430
    2780:	00009768 	.word	0x00009768

00002784 <log_is_strdup>:
	return PART_OF_ARRAY(log_strdup_pool_buf, (uint8_t *)buf);
    2784:	b148      	cbz	r0, 279a <log_is_strdup+0x16>
    2786:	4b05      	ldr	r3, [pc, #20]	; (279c <log_is_strdup+0x18>)
    2788:	4298      	cmp	r0, r3
    278a:	d305      	bcc.n	2798 <log_is_strdup+0x14>
    278c:	33a0      	adds	r3, #160	; 0xa0
    278e:	4298      	cmp	r0, r3
    2790:	bf2c      	ite	cs
    2792:	2000      	movcs	r0, #0
    2794:	2001      	movcc	r0, #1
    2796:	4770      	bx	lr
    2798:	2000      	movs	r0, #0
}
    279a:	4770      	bx	lr
    279c:	200022e0 	.word	0x200022e0

000027a0 <z_impl_log_process>:
{
    27a0:	e92d 4ff0 	stmdb	sp!, {r4, r5, r6, r7, r8, r9, sl, fp, lr}
	if (!backend_attached && !bypass) {
    27a4:	4b4c      	ldr	r3, [pc, #304]	; (28d8 <z_impl_log_process+0x138>)
    27a6:	781b      	ldrb	r3, [r3, #0]
{
    27a8:	b085      	sub	sp, #20
    27aa:	4604      	mov	r4, r0
	if (!backend_attached && !bypass) {
    27ac:	b903      	cbnz	r3, 27b0 <z_impl_log_process+0x10>
    27ae:	b360      	cbz	r0, 280a <z_impl_log_process+0x6a>
    27b0:	f04f 0320 	mov.w	r3, #32
    27b4:	f3ef 8611 	mrs	r6, BASEPRI
    27b8:	f383 8811 	msr	BASEPRI, r3
    27bc:	f3bf 8f6f 	isb	sy
	msg = log_list_head_get(&list);
    27c0:	4846      	ldr	r0, [pc, #280]	; (28dc <z_impl_log_process+0x13c>)
    27c2:	f005 fc1c 	bl	7ffe <log_list_head_get>
    27c6:	4605      	mov	r5, r0
	__asm__ volatile(
    27c8:	f386 8811 	msr	BASEPRI, r6
    27cc:	f3bf 8f6f 	isb	sy
	if (msg != NULL) {
    27d0:	b178      	cbz	r0, 27f2 <z_impl_log_process+0x52>
	return __atomic_fetch_sub(target, value, __ATOMIC_SEQ_CST);
    27d2:	f3bf 8f5b 	dmb	ish
    27d6:	4b42      	ldr	r3, [pc, #264]	; (28e0 <z_impl_log_process+0x140>)
    27d8:	e853 2f00 	ldrex	r2, [r3]
    27dc:	3a01      	subs	r2, #1
    27de:	e843 2100 	strex	r1, r2, [r3]
    27e2:	2900      	cmp	r1, #0
    27e4:	d1f8      	bne.n	27d8 <z_impl_log_process+0x38>
    27e6:	f3bf 8f5b 	dmb	ish
	if (!bypass) {
    27ea:	b194      	cbz	r4, 2812 <z_impl_log_process+0x72>
	log_msg_put(msg);
    27ec:	4628      	mov	r0, r5
    27ee:	f005 fd0c 	bl	820a <log_msg_put>
	if (!bypass && dropped_cnt) {
    27f2:	b924      	cbnz	r4, 27fe <z_impl_log_process+0x5e>
    27f4:	4b3b      	ldr	r3, [pc, #236]	; (28e4 <z_impl_log_process+0x144>)
    27f6:	681b      	ldr	r3, [r3, #0]
    27f8:	b10b      	cbz	r3, 27fe <z_impl_log_process+0x5e>
		dropped_notify();
    27fa:	f7ff ff03 	bl	2604 <dropped_notify>
	return (log_list_head_peek(&list) != NULL);
    27fe:	4837      	ldr	r0, [pc, #220]	; (28dc <z_impl_log_process+0x13c>)
    2800:	f005 fbfb 	bl	7ffa <log_list_head_peek>
    2804:	1e04      	subs	r4, r0, #0
    2806:	bf18      	it	ne
    2808:	2401      	movne	r4, #1
}
    280a:	4620      	mov	r0, r4
    280c:	b005      	add	sp, #20
    280e:	e8bd 8ff0 	ldmia.w	sp!, {r4, r5, r6, r7, r8, r9, sl, fp, pc}
		    !panic_mode) {
    2812:	4b35      	ldr	r3, [pc, #212]	; (28e8 <z_impl_log_process+0x148>)
		if (IS_ENABLED(CONFIG_LOG_DETECT_MISSED_STRDUP) &&
    2814:	781b      	ldrb	r3, [r3, #0]
    2816:	b9cb      	cbnz	r3, 284c <z_impl_log_process+0xac>
 * @retval true  Standard message.
 * @retval false Hexdump message.
 */
static inline bool log_msg_is_std(struct log_msg *msg)
{
	return  (msg->hdr.params.generic.type == LOG_MSG_TYPE_STD);
    2818:	7a2b      	ldrb	r3, [r5, #8]
	if (!log_msg_is_std(msg)) {
    281a:	07db      	lsls	r3, r3, #31
    281c:	d416      	bmi.n	284c <z_impl_log_process+0xac>
	msg_str = log_msg_str_get(msg);
    281e:	f005 fd07 	bl	8230 <log_msg_str_get>
    2822:	4680      	mov	r8, r0
	mask = z_log_get_s_mask(msg_str, log_msg_nargs_get(msg));
    2824:	4628      	mov	r0, r5
    2826:	f005 fcce 	bl	81c6 <log_msg_nargs_get>
    282a:	4601      	mov	r1, r0
    282c:	4640      	mov	r0, r8
    282e:	f7ff fea5 	bl	257c <z_log_get_s_mask>
	return ((uint8_t *)data - (uint8_t *)__log_const_start)/
    2832:	4f2e      	ldr	r7, [pc, #184]	; (28ec <z_impl_log_process+0x14c>)
    2834:	4b2e      	ldr	r3, [pc, #184]	; (28f0 <z_impl_log_process+0x150>)
				LOG_ERR(ERR_MSG, idx, src_name, msg_str);
    2836:	f8df b0d4 	ldr.w	fp, [pc, #212]	; 290c <z_impl_log_process+0x16c>
    283a:	1bdb      	subs	r3, r3, r7
    283c:	08db      	lsrs	r3, r3, #3
    283e:	9303      	str	r3, [sp, #12]
    2840:	4b2c      	ldr	r3, [pc, #176]	; (28f4 <z_impl_log_process+0x154>)
    2842:	1bdb      	subs	r3, r3, r7
	mask = z_log_get_s_mask(msg_str, log_msg_nargs_get(msg));
    2844:	4606      	mov	r6, r0
    2846:	ea4f 0ad3 	mov.w	sl, r3, lsr #3
	while (mask) {
    284a:	b936      	cbnz	r6, 285a <z_impl_log_process+0xba>
    284c:	4e2a      	ldr	r6, [pc, #168]	; (28f8 <z_impl_log_process+0x158>)
    284e:	4f2b      	ldr	r7, [pc, #172]	; (28fc <z_impl_log_process+0x15c>)
    2850:	1bbf      	subs	r7, r7, r6
    2852:	113f      	asrs	r7, r7, #4
    2854:	f04f 0800 	mov.w	r8, #0
    2858:	e03a      	b.n	28d0 <z_impl_log_process+0x130>
		idx = 31 - __builtin_clz(mask);
    285a:	fab6 f186 	clz	r1, r6
    285e:	f1c1 091f 	rsb	r9, r1, #31
		str = (const char *)log_msg_arg_get(msg, idx);
    2862:	4649      	mov	r1, r9
    2864:	4628      	mov	r0, r5
    2866:	f005 fcb1 	bl	81cc <log_msg_arg_get>
	return (((const char *)addr >= (const char *)RO_START) &&
    286a:	4b25      	ldr	r3, [pc, #148]	; (2900 <z_impl_log_process+0x160>)
    286c:	4298      	cmp	r0, r3
		str = (const char *)log_msg_arg_get(msg, idx);
    286e:	4601      	mov	r1, r0
	return (((const char *)addr >= (const char *)RO_START) &&
    2870:	d302      	bcc.n	2878 <z_impl_log_process+0xd8>
		if (!is_rodata(str) && !log_is_strdup(str) &&
    2872:	4b24      	ldr	r3, [pc, #144]	; (2904 <z_impl_log_process+0x164>)
    2874:	4298      	cmp	r0, r3
    2876:	d31a      	bcc.n	28ae <z_impl_log_process+0x10e>
    2878:	4608      	mov	r0, r1
    287a:	f7ff ff83 	bl	2784 <log_is_strdup>
    287e:	4602      	mov	r2, r0
    2880:	b9a8      	cbnz	r0, 28ae <z_impl_log_process+0x10e>
    2882:	4b21      	ldr	r3, [pc, #132]	; (2908 <z_impl_log_process+0x168>)
    2884:	4299      	cmp	r1, r3
    2886:	d012      	beq.n	28ae <z_impl_log_process+0x10e>
	return msg->hdr.ids.source_id;
    2888:	896b      	ldrh	r3, [r5, #10]
	return src_id < log_sources_count() ? log_name_get(src_id) : NULL;
    288a:	9803      	ldr	r0, [sp, #12]
    288c:	0999      	lsrs	r1, r3, #6
    288e:	ebb0 1f93 	cmp.w	r0, r3, lsr #6
				LOG_ERR(ERR_MSG, idx, src_name, msg_str);
    2892:	ea4f 138a 	mov.w	r3, sl, lsl #6
    2896:	f043 0301 	orr.w	r3, r3, #1
	return __log_const_start[source_id].name;
    289a:	bf88      	it	hi
    289c:	f857 2031 	ldrhi.w	r2, [r7, r1, lsl #3]
    28a0:	f8ad 3000 	strh.w	r3, [sp]
    28a4:	4649      	mov	r1, r9
    28a6:	4643      	mov	r3, r8
    28a8:	4658      	mov	r0, fp
    28aa:	f005 fbf5 	bl	8098 <log_3>
		mask &= ~BIT(idx);
    28ae:	2101      	movs	r1, #1
    28b0:	fa01 f109 	lsl.w	r1, r1, r9
    28b4:	ea26 0601 	bic.w	r6, r6, r1
    28b8:	e7c7      	b.n	284a <z_impl_log_process+0xaa>
	return backend->cb->active;
    28ba:	6873      	ldr	r3, [r6, #4]
			if (log_backend_is_active(backend) &&
    28bc:	795b      	ldrb	r3, [r3, #5]
    28be:	b123      	cbz	r3, 28ca <z_impl_log_process+0x12a>
	backend->api->put(backend, msg);
    28c0:	6833      	ldr	r3, [r6, #0]
    28c2:	4629      	mov	r1, r5
    28c4:	681b      	ldr	r3, [r3, #0]
    28c6:	4630      	mov	r0, r6
    28c8:	4798      	blx	r3
		for (int i = 0; i < log_backend_count_get(); i++) {
    28ca:	f108 0801 	add.w	r8, r8, #1
    28ce:	3610      	adds	r6, #16
    28d0:	45b8      	cmp	r8, r7
    28d2:	dbf2      	blt.n	28ba <z_impl_log_process+0x11a>
    28d4:	e78a      	b.n	27ec <z_impl_log_process+0x4c>
    28d6:	bf00      	nop
    28d8:	20000974 	.word	0x20000974
    28dc:	20000428 	.word	0x20000428
    28e0:	2000041c 	.word	0x2000041c
    28e4:	20000420 	.word	0x20000420
    28e8:	20000975 	.word	0x20000975
    28ec:	00009384 	.word	0x00009384
    28f0:	000093d4 	.word	0x000093d4
    28f4:	0000938c 	.word	0x0000938c
    28f8:	000093d4 	.word	0x000093d4
    28fc:	000093e4 	.word	0x000093e4
    2900:	00009194 	.word	0x00009194
    2904:	0000a1bc 	.word	0x0000a1bc
    2908:	00009768 	.word	0x00009768
    290c:	00009782 	.word	0x00009782

00002910 <msg_finalize>:
	msg->hdr.timestamp = timestamp_func();
    2910:	4b29      	ldr	r3, [pc, #164]	; (29b8 <msg_finalize+0xa8>)
{
    2912:	b537      	push	{r0, r1, r2, r4, r5, lr}
	msg->hdr.timestamp = timestamp_func();
    2914:	681b      	ldr	r3, [r3, #0]
	msg->hdr.ids = src_level;
    2916:	8141      	strh	r1, [r0, #10]
{
    2918:	4604      	mov	r4, r0
	msg->hdr.timestamp = timestamp_func();
    291a:	4798      	blx	r3
    291c:	60e0      	str	r0, [r4, #12]
	__asm__ volatile(
    291e:	f04f 0320 	mov.w	r3, #32
    2922:	f3ef 8511 	mrs	r5, BASEPRI
    2926:	f383 8811 	msr	BASEPRI, r3
    292a:	f3bf 8f6f 	isb	sy
	log_list_add_tail(&list, msg);
    292e:	4823      	ldr	r0, [pc, #140]	; (29bc <msg_finalize+0xac>)
    2930:	4621      	mov	r1, r4
    2932:	f005 fb58 	bl	7fe6 <log_list_add_tail>
	__asm__ volatile(
    2936:	f385 8811 	msr	BASEPRI, r5
    293a:	f3bf 8f6f 	isb	sy
	return __atomic_fetch_add(target, value, __ATOMIC_SEQ_CST);
    293e:	f3bf 8f5b 	dmb	ish
    2942:	4b1f      	ldr	r3, [pc, #124]	; (29c0 <msg_finalize+0xb0>)
    2944:	e853 2f00 	ldrex	r2, [r3]
    2948:	3201      	adds	r2, #1
    294a:	e843 2100 	strex	r1, r2, [r3]
    294e:	2900      	cmp	r1, #0
    2950:	d1f8      	bne.n	2944 <msg_finalize+0x34>
    2952:	f3bf 8f5b 	dmb	ish
	if (panic_mode) {
    2956:	4a1b      	ldr	r2, [pc, #108]	; (29c4 <msg_finalize+0xb4>)
    2958:	7812      	ldrb	r2, [r2, #0]
    295a:	b182      	cbz	r2, 297e <msg_finalize+0x6e>
	__asm__ volatile(
    295c:	f04f 0320 	mov.w	r3, #32
    2960:	f3ef 8411 	mrs	r4, BASEPRI
    2964:	f383 8811 	msr	BASEPRI, r3
    2968:	f3bf 8f6f 	isb	sy
	if (z_syscall_trap()) {
		return (bool) arch_syscall_invoke1(*(uintptr_t *)&bypass, K_SYSCALL_LOG_PROCESS);
	}
#endif
	compiler_barrier();
	return z_impl_log_process(bypass);
    296c:	2000      	movs	r0, #0
    296e:	f7ff ff17 	bl	27a0 <z_impl_log_process>
	__asm__ volatile(
    2972:	f384 8811 	msr	BASEPRI, r4
    2976:	f3bf 8f6f 	isb	sy
}
    297a:	b003      	add	sp, #12
    297c:	bd30      	pop	{r4, r5, pc}
	} else if (proc_tid != NULL && buffered_cnt == 1) {
    297e:	4a12      	ldr	r2, [pc, #72]	; (29c8 <msg_finalize+0xb8>)
    2980:	681b      	ldr	r3, [r3, #0]
    2982:	6812      	ldr	r2, [r2, #0]
    2984:	2a00      	cmp	r2, #0
    2986:	d0f8      	beq.n	297a <msg_finalize+0x6a>
    2988:	2b01      	cmp	r3, #1
    298a:	d10a      	bne.n	29a2 <msg_finalize+0x92>
	z_impl_k_timer_start(timer, duration, period);
    298c:	2200      	movs	r2, #0
    298e:	2300      	movs	r3, #0
    2990:	e9cd 2300 	strd	r2, r3, [sp]
    2994:	480d      	ldr	r0, [pc, #52]	; (29cc <msg_finalize+0xbc>)
    2996:	f44f 4200 	mov.w	r2, #32768	; 0x8000
    299a:	2300      	movs	r3, #0
    299c:	f005 f910 	bl	7bc0 <z_impl_k_timer_start>
    29a0:	e7eb      	b.n	297a <msg_finalize+0x6a>
		if ((buffered_cnt == CONFIG_LOG_PROCESS_TRIGGER_THRESHOLD) &&
    29a2:	2b0a      	cmp	r3, #10
    29a4:	d1e9      	bne.n	297a <msg_finalize+0x6a>
	z_impl_k_timer_stop(timer);
    29a6:	4809      	ldr	r0, [pc, #36]	; (29cc <msg_finalize+0xbc>)
    29a8:	f006 fb94 	bl	90d4 <z_impl_k_timer_stop>
	z_impl_k_sem_give(sem);
    29ac:	4808      	ldr	r0, [pc, #32]	; (29d0 <msg_finalize+0xc0>)
}
    29ae:	b003      	add	sp, #12
    29b0:	e8bd 4030 	ldmia.w	sp!, {r4, r5, lr}
    29b4:	f004 bce0 	b.w	7378 <z_impl_k_sem_give>
    29b8:	20000004 	.word	0x20000004
    29bc:	20000428 	.word	0x20000428
    29c0:	2000041c 	.word	0x2000041c
    29c4:	20000975 	.word	0x20000975
    29c8:	2000044c 	.word	0x2000044c
    29cc:	200001b0 	.word	0x200001b0
    29d0:	2000019c 	.word	0x2000019c

000029d4 <log_process_thread_func>:
{
    29d4:	b510      	push	{r4, lr}
	log_init();
    29d6:	f7ff fe73 	bl	26c0 <log_init>
	return z_impl_k_current_get();
    29da:	f004 fc53 	bl	7284 <z_impl_k_current_get>
	proc_tid = process_tid;
    29de:	4b0c      	ldr	r3, [pc, #48]	; (2a10 <log_process_thread_func+0x3c>)
    29e0:	6018      	str	r0, [r3, #0]
	if (CONFIG_LOG_PROCESS_TRIGGER_THRESHOLD &&
    29e2:	b130      	cbz	r0, 29f2 <log_process_thread_func+0x1e>
	    buffered_cnt >= CONFIG_LOG_PROCESS_TRIGGER_THRESHOLD) {
    29e4:	4b0b      	ldr	r3, [pc, #44]	; (2a14 <log_process_thread_func+0x40>)
	    process_tid &&
    29e6:	681b      	ldr	r3, [r3, #0]
    29e8:	2b09      	cmp	r3, #9
    29ea:	dd02      	ble.n	29f2 <log_process_thread_func+0x1e>
	z_impl_k_sem_give(sem);
    29ec:	480a      	ldr	r0, [pc, #40]	; (2a18 <log_process_thread_func+0x44>)
    29ee:	f004 fcc3 	bl	7378 <z_impl_k_sem_give>
	return z_impl_k_sem_take(sem, timeout);
    29f2:	4c09      	ldr	r4, [pc, #36]	; (2a18 <log_process_thread_func+0x44>)
    29f4:	2000      	movs	r0, #0
    29f6:	f7ff fed3 	bl	27a0 <z_impl_log_process>
		if (log_process(false) == false) {
    29fa:	2800      	cmp	r0, #0
    29fc:	d1fa      	bne.n	29f4 <log_process_thread_func+0x20>
    29fe:	f04f 32ff 	mov.w	r2, #4294967295	; 0xffffffff
    2a02:	f04f 33ff 	mov.w	r3, #4294967295	; 0xffffffff
    2a06:	4620      	mov	r0, r4
    2a08:	f004 fcd6 	bl	73b8 <z_impl_k_sem_take>
    2a0c:	e7f2      	b.n	29f4 <log_process_thread_func+0x20>
    2a0e:	bf00      	nop
    2a10:	2000044c 	.word	0x2000044c
    2a14:	2000041c 	.word	0x2000041c
    2a18:	2000019c 	.word	0x2000019c

00002a1c <z_impl_log_panic>:
{
    2a1c:	b5f8      	push	{r3, r4, r5, r6, r7, lr}
	if (panic_mode) {
    2a1e:	4f0e      	ldr	r7, [pc, #56]	; (2a58 <z_impl_log_panic+0x3c>)
    2a20:	783d      	ldrb	r5, [r7, #0]
    2a22:	b975      	cbnz	r5, 2a42 <z_impl_log_panic+0x26>
	return __log_backends_end - __log_backends_start;
    2a24:	4c0d      	ldr	r4, [pc, #52]	; (2a5c <z_impl_log_panic+0x40>)
    2a26:	4e0e      	ldr	r6, [pc, #56]	; (2a60 <z_impl_log_panic+0x44>)
	log_init();
    2a28:	f7ff fe4a 	bl	26c0 <log_init>
    2a2c:	1b36      	subs	r6, r6, r4
    2a2e:	1136      	asrs	r6, r6, #4
	for (int i = 0; i < log_backend_count_get(); i++) {
    2a30:	42b5      	cmp	r5, r6
    2a32:	db07      	blt.n	2a44 <z_impl_log_panic+0x28>
    2a34:	2000      	movs	r0, #0
    2a36:	f7ff feb3 	bl	27a0 <z_impl_log_process>
		while (log_process(false) == true) {
    2a3a:	2800      	cmp	r0, #0
    2a3c:	d1fa      	bne.n	2a34 <z_impl_log_panic+0x18>
	panic_mode = true;
    2a3e:	2301      	movs	r3, #1
    2a40:	703b      	strb	r3, [r7, #0]
}
    2a42:	bdf8      	pop	{r3, r4, r5, r6, r7, pc}
	return backend->cb->active;
    2a44:	6863      	ldr	r3, [r4, #4]
		if (log_backend_is_active(backend)) {
    2a46:	795b      	ldrb	r3, [r3, #5]
    2a48:	b11b      	cbz	r3, 2a52 <z_impl_log_panic+0x36>
	backend->api->panic(backend);
    2a4a:	6823      	ldr	r3, [r4, #0]
    2a4c:	4620      	mov	r0, r4
    2a4e:	691b      	ldr	r3, [r3, #16]
    2a50:	4798      	blx	r3
	for (int i = 0; i < log_backend_count_get(); i++) {
    2a52:	3501      	adds	r5, #1
    2a54:	3410      	adds	r4, #16
    2a56:	e7eb      	b.n	2a30 <z_impl_log_panic+0x14>
    2a58:	20000975 	.word	0x20000975
    2a5c:	000093d4 	.word	0x000093d4
    2a60:	000093e4 	.word	0x000093e4

00002a64 <log_free>:
{
    2a64:	b507      	push	{r0, r1, r2, lr}
	struct log_strdup_buf *dup = CONTAINER_OF(str, struct log_strdup_buf,
    2a66:	3804      	subs	r0, #4
    2a68:	9001      	str	r0, [sp, #4]
	return __atomic_fetch_sub(target, value, __ATOMIC_SEQ_CST);
    2a6a:	f3bf 8f5b 	dmb	ish
    2a6e:	e850 3f00 	ldrex	r3, [r0]
    2a72:	1e5a      	subs	r2, r3, #1
    2a74:	e840 2100 	strex	r1, r2, [r0]
    2a78:	2900      	cmp	r1, #0
    2a7a:	d1f8      	bne.n	2a6e <log_free+0xa>
    2a7c:	f3bf 8f5b 	dmb	ish
	if (atomic_dec(&dup->refcount) == 1) {
    2a80:	2b01      	cmp	r3, #1
    2a82:	d103      	bne.n	2a8c <log_free+0x28>
		k_mem_slab_free(&log_strdup_pool, (void **)&dup);
    2a84:	4803      	ldr	r0, [pc, #12]	; (2a94 <log_free+0x30>)
    2a86:	a901      	add	r1, sp, #4
    2a88:	f004 f80c 	bl	6aa4 <k_mem_slab_free>
}
    2a8c:	b003      	add	sp, #12
    2a8e:	f85d fb04 	ldr.w	pc, [sp], #4
    2a92:	bf00      	nop
    2a94:	20000430 	.word	0x20000430

00002a98 <log_msg_pool_init>:
static uint8_t __noinit __aligned(sizeof(void *))
		log_msg_pool_buf[CONFIG_LOG_BUFFER_SIZE];

void log_msg_pool_init(void)
{
	k_mem_slab_init(&log_msg_pool, log_msg_pool_buf, MSG_SIZE, NUM_OF_MSGS);
    2a98:	2320      	movs	r3, #32
    2a9a:	4902      	ldr	r1, [pc, #8]	; (2aa4 <log_msg_pool_init+0xc>)
    2a9c:	4802      	ldr	r0, [pc, #8]	; (2aa8 <log_msg_pool_init+0x10>)
    2a9e:	461a      	mov	r2, r3
    2aa0:	f006 b976 	b.w	8d90 <k_mem_slab_init>
    2aa4:	20002380 	.word	0x20002380
    2aa8:	20000450 	.word	0x20000450

00002aac <log_msg_no_space_handle>:

	k_mem_slab_free(&log_msg_pool, (void **)&msg);
}

union log_msg_chunk *log_msg_no_space_handle(void)
{
    2aac:	b537      	push	{r0, r1, r2, r4, r5, lr}
	union log_msg_chunk *msg = NULL;
    2aae:	2300      	movs	r3, #0

	if (IS_ENABLED(CONFIG_LOG_MODE_OVERFLOW)) {
		do {
			more = log_process(true);
			log_dropped();
			err = k_mem_slab_alloc(&log_msg_pool,
    2ab0:	4d09      	ldr	r5, [pc, #36]	; (2ad8 <log_msg_no_space_handle+0x2c>)
	union log_msg_chunk *msg = NULL;
    2ab2:	9301      	str	r3, [sp, #4]
    2ab4:	2001      	movs	r0, #1
    2ab6:	f7ff fe73 	bl	27a0 <z_impl_log_process>
    2aba:	4604      	mov	r4, r0
			log_dropped();
    2abc:	f7ff fdc8 	bl	2650 <log_dropped>
			err = k_mem_slab_alloc(&log_msg_pool,
    2ac0:	2200      	movs	r2, #0
    2ac2:	2300      	movs	r3, #0
    2ac4:	a901      	add	r1, sp, #4
    2ac6:	4628      	mov	r0, r5
    2ac8:	f003 ffba 	bl	6a40 <k_mem_slab_alloc>
					       (void **)&msg,
					       K_NO_WAIT);
		} while ((err != 0) && more);
    2acc:	b108      	cbz	r0, 2ad2 <log_msg_no_space_handle+0x26>
    2ace:	2c00      	cmp	r4, #0
    2ad0:	d1f0      	bne.n	2ab4 <log_msg_no_space_handle+0x8>
	} else {
		log_dropped();
	}
	return msg;

}
    2ad2:	9801      	ldr	r0, [sp, #4]
    2ad4:	b003      	add	sp, #12
    2ad6:	bd30      	pop	{r4, r5, pc}
    2ad8:	20000450 	.word	0x20000450

00002adc <log_msg_chunk_alloc>:
{
    2adc:	b507      	push	{r0, r1, r2, lr}
	union log_msg_chunk *msg = NULL;
    2ade:	2300      	movs	r3, #0
    2ae0:	9301      	str	r3, [sp, #4]
	int err = k_mem_slab_alloc(&log_msg_pool, (void **)&msg,
    2ae2:	4807      	ldr	r0, [pc, #28]	; (2b00 <log_msg_chunk_alloc+0x24>)
    2ae4:	2200      	movs	r2, #0
    2ae6:	2300      	movs	r3, #0
    2ae8:	a901      	add	r1, sp, #4
    2aea:	f003 ffa9 	bl	6a40 <k_mem_slab_alloc>
	if (err != 0) {
    2aee:	b110      	cbz	r0, 2af6 <log_msg_chunk_alloc+0x1a>
		msg = log_msg_no_space_handle();
    2af0:	f7ff ffdc 	bl	2aac <log_msg_no_space_handle>
    2af4:	9001      	str	r0, [sp, #4]
}
    2af6:	9801      	ldr	r0, [sp, #4]
    2af8:	b003      	add	sp, #12
    2afa:	f85d fb04 	ldr.w	pc, [sp], #4
    2afe:	bf00      	nop
    2b00:	20000450 	.word	0x20000450

00002b04 <msg_free>:
{
    2b04:	b5f0      	push	{r4, r5, r6, r7, lr}
	return  (msg->hdr.params.generic.type == LOG_MSG_TYPE_STD);
    2b06:	7a03      	ldrb	r3, [r0, #8]
	}
}

uint32_t log_msg_nargs_get(struct log_msg *msg)
{
	return msg->hdr.params.std.nargs;
    2b08:	7a45      	ldrb	r5, [r0, #9]
{
    2b0a:	b085      	sub	sp, #20
	return msg->hdr.params.std.nargs;
    2b0c:	092d      	lsrs	r5, r5, #4
{
    2b0e:	9001      	str	r0, [sp, #4]
	if (log_msg_is_std(msg) && nargs) {
    2b10:	07d8      	lsls	r0, r3, #31
    2b12:	d41c      	bmi.n	2b4e <msg_free+0x4a>
    2b14:	b1dd      	cbz	r5, 2b4e <msg_free+0x4a>
		uint32_t smask = 0U;
    2b16:	2400      	movs	r4, #0
		for (i = 0U; i < nargs; i++) {
    2b18:	4626      	mov	r6, r4
			void *buf = (void *)log_msg_arg_get(msg, i);
    2b1a:	9801      	ldr	r0, [sp, #4]
    2b1c:	4631      	mov	r1, r6
    2b1e:	f005 fb55 	bl	81cc <log_msg_arg_get>
    2b22:	4607      	mov	r7, r0
			if (log_is_strdup(buf)) {
    2b24:	f7ff fe2e 	bl	2784 <log_is_strdup>
    2b28:	b170      	cbz	r0, 2b48 <msg_free+0x44>
				if (smask == 0U) {
    2b2a:	b934      	cbnz	r4, 2b3a <msg_free+0x36>
					smask = z_log_get_s_mask(
    2b2c:	9b01      	ldr	r3, [sp, #4]
    2b2e:	4629      	mov	r1, r5
    2b30:	6918      	ldr	r0, [r3, #16]
    2b32:	f7ff fd23 	bl	257c <z_log_get_s_mask>
					if (smask == 0U) {
    2b36:	4604      	mov	r4, r0
    2b38:	b148      	cbz	r0, 2b4e <msg_free+0x4a>
				if (smask & BIT(i)) {
    2b3a:	fa24 f306 	lsr.w	r3, r4, r6
    2b3e:	07d9      	lsls	r1, r3, #31
    2b40:	d502      	bpl.n	2b48 <msg_free+0x44>
					log_free(buf);
    2b42:	4638      	mov	r0, r7
    2b44:	f7ff ff8e 	bl	2a64 <log_free>
		for (i = 0U; i < nargs; i++) {
    2b48:	3601      	adds	r6, #1
    2b4a:	42ae      	cmp	r6, r5
    2b4c:	d3e5      	bcc.n	2b1a <msg_free+0x16>
	if (msg->hdr.params.generic.ext == 1) {
    2b4e:	9b01      	ldr	r3, [sp, #4]
    2b50:	7a1a      	ldrb	r2, [r3, #8]
    2b52:	0792      	lsls	r2, r2, #30
    2b54:	d504      	bpl.n	2b60 <msg_free+0x5c>
		cont_free(msg->payload.ext.next);
    2b56:	695b      	ldr	r3, [r3, #20]
		k_mem_slab_free(&log_msg_pool, (void **)&cont);
    2b58:	4c08      	ldr	r4, [pc, #32]	; (2b7c <msg_free+0x78>)
    2b5a:	9303      	str	r3, [sp, #12]
	while (cont != NULL) {
    2b5c:	9b03      	ldr	r3, [sp, #12]
    2b5e:	b92b      	cbnz	r3, 2b6c <msg_free+0x68>
	k_mem_slab_free(&log_msg_pool, (void **)&msg);
    2b60:	4806      	ldr	r0, [pc, #24]	; (2b7c <msg_free+0x78>)
    2b62:	a901      	add	r1, sp, #4
    2b64:	f003 ff9e 	bl	6aa4 <k_mem_slab_free>
}
    2b68:	b005      	add	sp, #20
    2b6a:	bdf0      	pop	{r4, r5, r6, r7, pc}
		next = cont->next;
    2b6c:	681d      	ldr	r5, [r3, #0]
		k_mem_slab_free(&log_msg_pool, (void **)&cont);
    2b6e:	a903      	add	r1, sp, #12
    2b70:	4620      	mov	r0, r4
    2b72:	f003 ff97 	bl	6aa4 <k_mem_slab_free>
		cont = next;
    2b76:	9503      	str	r5, [sp, #12]
    2b78:	e7f0      	b.n	2b5c <msg_free+0x58>
    2b7a:	bf00      	nop
    2b7c:	20000450 	.word	0x20000450

00002b80 <print_formatted>:
	return 0;
}

static int print_formatted(const struct log_output *output,
			   const char *fmt, ...)
{
    2b80:	b40e      	push	{r1, r2, r3}
    2b82:	b503      	push	{r0, r1, lr}
    2b84:	ab03      	add	r3, sp, #12
    2b86:	4601      	mov	r1, r0
    2b88:	f853 2b04 	ldr.w	r2, [r3], #4
	va_list args;
	int length = 0;

	va_start(args, fmt);
	length = cbvprintf(out_func, (void *)output, fmt, args);
    2b8c:	4804      	ldr	r0, [pc, #16]	; (2ba0 <print_formatted+0x20>)
	va_start(args, fmt);
    2b8e:	9301      	str	r3, [sp, #4]
	length = cbvprintf(out_func, (void *)output, fmt, args);
    2b90:	f7ff f928 	bl	1de4 <cbvprintf>
	va_end(args);

	return length;
}
    2b94:	b002      	add	sp, #8
    2b96:	f85d eb04 	ldr.w	lr, [sp], #4
    2b9a:	b003      	add	sp, #12
    2b9c:	4770      	bx	lr
    2b9e:	bf00      	nop
    2ba0:	000085d5 	.word	0x000085d5

00002ba4 <prefix_print>:
}

static uint32_t prefix_print(const struct log_output *output,
			 uint32_t flags, bool func_on, uint32_t timestamp, uint8_t level,
			 uint8_t domain_id, uint16_t source_id)
{
    2ba4:	e92d 4ff0 	stmdb	sp!, {r4, r5, r6, r7, r8, r9, sl, fp, lr}
    2ba8:	b085      	sub	sp, #20
			"<%d>1 ",
			facility * 8 +
			level_to_rfc5424_severity(level));
	}

	if (stamp) {
    2baa:	f011 0402 	ands.w	r4, r1, #2
{
    2bae:	4690      	mov	r8, r2
    2bb0:	f89d 7038 	ldrb.w	r7, [sp, #56]	; 0x38
    2bb4:	4606      	mov	r6, r0
    2bb6:	461a      	mov	r2, r3
	bool colors_on = flags & LOG_OUTPUT_FLAG_COLORS;
    2bb8:	f001 0901 	and.w	r9, r1, #1
	bool level_on = flags & LOG_OUTPUT_FLAG_LEVEL;
    2bbc:	f001 0508 	and.w	r5, r1, #8
	if (stamp) {
    2bc0:	d007      	beq.n	2bd2 <prefix_print+0x2e>
	if (!format) {
    2bc2:	f011 0f44 	tst.w	r1, #68	; 0x44
    2bc6:	d137      	bne.n	2c38 <prefix_print+0x94>
		length = print_formatted(output, "[%08lu] ", timestamp);
    2bc8:	4932      	ldr	r1, [pc, #200]	; (2c94 <prefix_print+0xf0>)
    2bca:	f7ff ffd9 	bl	2b80 <print_formatted>
			length = print_formatted(output,
    2bce:	4601      	mov	r1, r0
		length += timestamp_print(output, flags, timestamp);
    2bd0:	460c      	mov	r4, r1
	if (color) {
    2bd2:	f1b9 0f00 	cmp.w	r9, #0
    2bd6:	d00a      	beq.n	2bee <prefix_print+0x4a>
		const char *log_color = start && (colors[level] != NULL) ?
    2bd8:	4b2f      	ldr	r3, [pc, #188]	; (2c98 <prefix_print+0xf4>)
		print_formatted(output, "%s", log_color);
    2bda:	4930      	ldr	r1, [pc, #192]	; (2c9c <prefix_print+0xf8>)
		const char *log_color = start && (colors[level] != NULL) ?
    2bdc:	f853 2027 	ldr.w	r2, [r3, r7, lsl #2]
		print_formatted(output, "%s", log_color);
    2be0:	4b2f      	ldr	r3, [pc, #188]	; (2ca0 <prefix_print+0xfc>)
    2be2:	4630      	mov	r0, r6
    2be4:	2a00      	cmp	r2, #0
    2be6:	bf08      	it	eq
    2be8:	461a      	moveq	r2, r3
    2bea:	f7ff ffc9 	bl	2b80 <print_formatted>
	if (level_on) {
    2bee:	b13d      	cbz	r5, 2c00 <prefix_print+0x5c>
		total += print_formatted(output, "<%s> ", severity[level]);
    2bf0:	4b2c      	ldr	r3, [pc, #176]	; (2ca4 <prefix_print+0x100>)
    2bf2:	492d      	ldr	r1, [pc, #180]	; (2ca8 <prefix_print+0x104>)
    2bf4:	f853 2027 	ldr.w	r2, [r3, r7, lsl #2]
    2bf8:	4630      	mov	r0, r6
    2bfa:	f7ff ffc1 	bl	2b80 <print_formatted>
    2bfe:	4605      	mov	r5, r0
	total += print_formatted(output,
    2c00:	f1b8 0f00 	cmp.w	r8, #0
    2c04:	d043      	beq.n	2c8e <prefix_print+0xea>
				((1 << level) & LOG_FUNCTION_PREFIX_MASK)) ?
    2c06:	2301      	movs	r3, #1
    2c08:	fa03 f707 	lsl.w	r7, r3, r7
	total += print_formatted(output,
    2c0c:	4b27      	ldr	r3, [pc, #156]	; (2cac <prefix_print+0x108>)
    2c0e:	f017 0f10 	tst.w	r7, #16
    2c12:	4f27      	ldr	r7, [pc, #156]	; (2cb0 <prefix_print+0x10c>)
    2c14:	bf18      	it	ne
    2c16:	461f      	movne	r7, r3
    2c18:	f8bd 1040 	ldrh.w	r1, [sp, #64]	; 0x40
    2c1c:	f89d 003c 	ldrb.w	r0, [sp, #60]	; 0x3c
    2c20:	f7ff fd26 	bl	2670 <log_source_name_get>
    2c24:	4639      	mov	r1, r7
    2c26:	4602      	mov	r2, r0
    2c28:	4630      	mov	r0, r6
    2c2a:	f7ff ffa9 	bl	2b80 <print_formatted>
    2c2e:	4428      	add	r0, r5

	length += ids_print(output, level_on, func_on,
			domain_id, source_id, level);

	return length;
}
    2c30:	4420      	add	r0, r4
    2c32:	b005      	add	sp, #20
    2c34:	e8bd 8ff0 	ldmia.w	sp!, {r4, r5, r6, r7, r8, r9, sl, fp, pc}
	} else if (freq != 0U) {
    2c38:	4b1e      	ldr	r3, [pc, #120]	; (2cb4 <prefix_print+0x110>)
    2c3a:	6819      	ldr	r1, [r3, #0]
    2c3c:	2900      	cmp	r1, #0
    2c3e:	d0c7      	beq.n	2bd0 <prefix_print+0x2c>
		timestamp /= timestamp_div;
    2c40:	4b1d      	ldr	r3, [pc, #116]	; (2cb8 <prefix_print+0x114>)
    2c42:	f44f 6e61 	mov.w	lr, #3600	; 0xe10
    2c46:	681b      	ldr	r3, [r3, #0]
    2c48:	fbb2 f3f3 	udiv	r3, r2, r3
		ms = (remainder * 1000U) / freq;
    2c4c:	f44f 7c7a 	mov.w	ip, #1000	; 0x3e8
		total_seconds = timestamp / freq;
    2c50:	fbb3 f4f1 	udiv	r4, r3, r1
		seconds -= hours * 3600U;
    2c54:	fbb4 f2fe 	udiv	r2, r4, lr
    2c58:	fb0e 4e12 	mls	lr, lr, r2, r4
		remainder = timestamp % freq;
    2c5c:	fb01 3414 	mls	r4, r1, r4, r3
		ms = (remainder * 1000U) / freq;
    2c60:	fb0c f404 	mul.w	r4, ip, r4
		mins = seconds / 60U;
    2c64:	f04f 0a3c 	mov.w	sl, #60	; 0x3c
		us = (1000 * (remainder * 1000U - (ms * freq))) / freq;
    2c68:	fbb4 fbf1 	udiv	fp, r4, r1
    2c6c:	fb01 441b 	mls	r4, r1, fp, r4
    2c70:	fb0c f404 	mul.w	r4, ip, r4
		mins = seconds / 60U;
    2c74:	fbbe f3fa 	udiv	r3, lr, sl
		us = (1000 * (remainder * 1000U - (ms * freq))) / freq;
    2c78:	fbb4 f1f1 	udiv	r1, r4, r1
			length = print_formatted(output,
    2c7c:	e9cd b101 	strd	fp, r1, [sp, #4]
    2c80:	fb0a e113 	mls	r1, sl, r3, lr
    2c84:	9100      	str	r1, [sp, #0]
    2c86:	490d      	ldr	r1, [pc, #52]	; (2cbc <prefix_print+0x118>)
    2c88:	f7ff ff7a 	bl	2b80 <print_formatted>
    2c8c:	e79f      	b.n	2bce <prefix_print+0x2a>
	total += print_formatted(output,
    2c8e:	4f08      	ldr	r7, [pc, #32]	; (2cb0 <prefix_print+0x10c>)
    2c90:	e7c2      	b.n	2c18 <prefix_print+0x74>
    2c92:	bf00      	nop
    2c94:	000097d3 	.word	0x000097d3
    2c98:	00009450 	.word	0x00009450
    2c9c:	00009ce8 	.word	0x00009ce8
    2ca0:	000097c5 	.word	0x000097c5
    2ca4:	00009464 	.word	0x00009464
    2ca8:	000097f8 	.word	0x000097f8
    2cac:	000097cf 	.word	0x000097cf
    2cb0:	000097ca 	.word	0x000097ca
    2cb4:	2000046c 	.word	0x2000046c
    2cb8:	20000470 	.word	0x20000470
    2cbc:	000097dc 	.word	0x000097dc

00002cc0 <postfix_print>:

static void postfix_print(const struct log_output *output,
			  uint32_t flags, uint8_t level)
{
    2cc0:	b538      	push	{r3, r4, r5, lr}
    2cc2:	460c      	mov	r4, r1
	if (color) {
    2cc4:	07e1      	lsls	r1, r4, #31
{
    2cc6:	4605      	mov	r5, r0
	if (color) {
    2cc8:	d503      	bpl.n	2cd2 <postfix_print+0x12>
		print_formatted(output, "%s", log_color);
    2cca:	4a08      	ldr	r2, [pc, #32]	; (2cec <postfix_print+0x2c>)
    2ccc:	4908      	ldr	r1, [pc, #32]	; (2cf0 <postfix_print+0x30>)
    2cce:	f7ff ff57 	bl	2b80 <print_formatted>
	if ((flags & LOG_OUTPUT_FLAG_CRLF_NONE) != 0U) {
    2cd2:	06e2      	lsls	r2, r4, #27
    2cd4:	d408      	bmi.n	2ce8 <postfix_print+0x28>
	if ((flags & LOG_OUTPUT_FLAG_CRLF_LFONLY) != 0U) {
    2cd6:	06a3      	lsls	r3, r4, #26
		print_formatted(ctx, "\r\n");
    2cd8:	4628      	mov	r0, r5
		print_formatted(ctx, "\n");
    2cda:	bf4c      	ite	mi
    2cdc:	4905      	ldrmi	r1, [pc, #20]	; (2cf4 <postfix_print+0x34>)
		print_formatted(ctx, "\r\n");
    2cde:	4906      	ldrpl	r1, [pc, #24]	; (2cf8 <postfix_print+0x38>)
	color_postfix(output, (flags & LOG_OUTPUT_FLAG_COLORS),
			      level);
	newline_print(output, flags);
}
    2ce0:	e8bd 4038 	ldmia.w	sp!, {r3, r4, r5, lr}
		print_formatted(ctx, "\r\n");
    2ce4:	f7ff bf4c 	b.w	2b80 <print_formatted>
}
    2ce8:	bd38      	pop	{r3, r4, r5, pc}
    2cea:	bf00      	nop
    2cec:	000097c5 	.word	0x000097c5
    2cf0:	00009ce8 	.word	0x00009ce8
    2cf4:	000097ff 	.word	0x000097ff
    2cf8:	000097fe 	.word	0x000097fe

00002cfc <hexdump_line_print>:
{
    2cfc:	e92d 47f0 	stmdb	sp!, {r4, r5, r6, r7, r8, r9, sl, lr}
    2d00:	461d      	mov	r5, r3
    2d02:	9b08      	ldr	r3, [sp, #32]
    2d04:	4617      	mov	r7, r2
	if ((flags & LOG_OUTPUT_FLAG_CRLF_NONE) != 0U) {
    2d06:	06da      	lsls	r2, r3, #27
{
    2d08:	4604      	mov	r4, r0
    2d0a:	460e      	mov	r6, r1
	if ((flags & LOG_OUTPUT_FLAG_CRLF_NONE) != 0U) {
    2d0c:	d405      	bmi.n	2d1a <hexdump_line_print+0x1e>
	if ((flags & LOG_OUTPUT_FLAG_CRLF_LFONLY) != 0U) {
    2d0e:	0699      	lsls	r1, r3, #26
		print_formatted(ctx, "\n");
    2d10:	bf4c      	ite	mi
    2d12:	492b      	ldrmi	r1, [pc, #172]	; (2dc0 <hexdump_line_print+0xc4>)
		print_formatted(ctx, "\r\n");
    2d14:	492b      	ldrpl	r1, [pc, #172]	; (2dc4 <hexdump_line_print+0xc8>)
    2d16:	f7ff ff33 	bl	2b80 <print_formatted>
		print_formatted(output, " ");
    2d1a:	f8df 90b0 	ldr.w	r9, [pc, #176]	; 2dcc <hexdump_line_print+0xd0>
{
    2d1e:	f04f 0800 	mov.w	r8, #0
	for (int i = 0; i < prefix_offset; i++) {
    2d22:	45a8      	cmp	r8, r5
    2d24:	db2d      	blt.n	2d82 <hexdump_line_print+0x86>
			print_formatted(output, "   ");
    2d26:	f8df 80a8 	ldr.w	r8, [pc, #168]	; 2dd0 <hexdump_line_print+0xd4>
			print_formatted(output, "%02x ", data[i]);
    2d2a:	f8df 90a8 	ldr.w	r9, [pc, #168]	; 2dd4 <hexdump_line_print+0xd8>
			print_formatted(output, " ");
    2d2e:	f8df a09c 	ldr.w	sl, [pc, #156]	; 2dcc <hexdump_line_print+0xd0>
	for (int i = 0; i < HEXDUMP_BYTES_IN_LINE; i++) {
    2d32:	2500      	movs	r5, #0
		if (i < length) {
    2d34:	42bd      	cmp	r5, r7
    2d36:	d232      	bcs.n	2d9e <hexdump_line_print+0xa2>
			print_formatted(output, "%02x ", data[i]);
    2d38:	5d72      	ldrb	r2, [r6, r5]
    2d3a:	4649      	mov	r1, r9
    2d3c:	4620      	mov	r0, r4
    2d3e:	f7ff ff1f 	bl	2b80 <print_formatted>
	for (int i = 0; i < HEXDUMP_BYTES_IN_LINE; i++) {
    2d42:	3501      	adds	r5, #1
    2d44:	2d10      	cmp	r5, #16
    2d46:	d123      	bne.n	2d90 <hexdump_line_print+0x94>
	print_formatted(output, "|");
    2d48:	491f      	ldr	r1, [pc, #124]	; (2dc8 <hexdump_line_print+0xcc>)
			print_formatted(output, " ");
    2d4a:	f8df 8080 	ldr.w	r8, [pc, #128]	; 2dcc <hexdump_line_print+0xd0>
			      isprint((int)c) ? c : '.');
    2d4e:	f8df 9088 	ldr.w	r9, [pc, #136]	; 2dd8 <hexdump_line_print+0xdc>
			print_formatted(output, "%c",
    2d52:	f8df a088 	ldr.w	sl, [pc, #136]	; 2ddc <hexdump_line_print+0xe0>
	print_formatted(output, "|");
    2d56:	4620      	mov	r0, r4
    2d58:	f7ff ff12 	bl	2b80 <print_formatted>
	for (int i = 0; i < HEXDUMP_BYTES_IN_LINE; i++) {
    2d5c:	2500      	movs	r5, #0
		if (i < length) {
    2d5e:	42af      	cmp	r7, r5
    2d60:	d929      	bls.n	2db6 <hexdump_line_print+0xba>
			char c = (char)data[i];
    2d62:	5d72      	ldrb	r2, [r6, r5]
			print_formatted(output, "%c",
    2d64:	f812 3009 	ldrb.w	r3, [r2, r9]
    2d68:	f013 0f97 	tst.w	r3, #151	; 0x97
    2d6c:	bf08      	it	eq
    2d6e:	222e      	moveq	r2, #46	; 0x2e
    2d70:	4651      	mov	r1, sl
    2d72:	4620      	mov	r0, r4
    2d74:	f7ff ff04 	bl	2b80 <print_formatted>
	for (int i = 0; i < HEXDUMP_BYTES_IN_LINE; i++) {
    2d78:	3501      	adds	r5, #1
    2d7a:	2d10      	cmp	r5, #16
    2d7c:	d114      	bne.n	2da8 <hexdump_line_print+0xac>
}
    2d7e:	e8bd 87f0 	ldmia.w	sp!, {r4, r5, r6, r7, r8, r9, sl, pc}
		print_formatted(output, " ");
    2d82:	4649      	mov	r1, r9
    2d84:	4620      	mov	r0, r4
    2d86:	f7ff fefb 	bl	2b80 <print_formatted>
	for (int i = 0; i < prefix_offset; i++) {
    2d8a:	f108 0801 	add.w	r8, r8, #1
    2d8e:	e7c8      	b.n	2d22 <hexdump_line_print+0x26>
		if (i > 0 && !(i % 8)) {
    2d90:	076a      	lsls	r2, r5, #29
    2d92:	d1cf      	bne.n	2d34 <hexdump_line_print+0x38>
			print_formatted(output, " ");
    2d94:	4651      	mov	r1, sl
    2d96:	4620      	mov	r0, r4
    2d98:	f7ff fef2 	bl	2b80 <print_formatted>
    2d9c:	e7ca      	b.n	2d34 <hexdump_line_print+0x38>
			print_formatted(output, "   ");
    2d9e:	4641      	mov	r1, r8
    2da0:	4620      	mov	r0, r4
    2da2:	f7ff feed 	bl	2b80 <print_formatted>
    2da6:	e7cc      	b.n	2d42 <hexdump_line_print+0x46>
		if (i > 0 && !(i % 8)) {
    2da8:	076b      	lsls	r3, r5, #29
    2daa:	d1d8      	bne.n	2d5e <hexdump_line_print+0x62>
			print_formatted(output, " ");
    2dac:	4641      	mov	r1, r8
    2dae:	4620      	mov	r0, r4
    2db0:	f7ff fee6 	bl	2b80 <print_formatted>
    2db4:	e7d3      	b.n	2d5e <hexdump_line_print+0x62>
			print_formatted(output, " ");
    2db6:	4641      	mov	r1, r8
    2db8:	4620      	mov	r0, r4
    2dba:	f7ff fee1 	bl	2b80 <print_formatted>
    2dbe:	e7db      	b.n	2d78 <hexdump_line_print+0x7c>
    2dc0:	000097ff 	.word	0x000097ff
    2dc4:	000097fe 	.word	0x000097fe
    2dc8:	0000980b 	.word	0x0000980b
    2dcc:	00009809 	.word	0x00009809
    2dd0:	00009807 	.word	0x00009807
    2dd4:	00009801 	.word	0x00009801
    2dd8:	0000a0bb 	.word	0x0000a0bb
    2ddc:	0000980d 	.word	0x0000980d

00002de0 <log_output_msg_process>:

void log_output_msg_process(const struct log_output *output,
			    struct log_msg *msg,
			    uint32_t flags)
{
    2de0:	e92d 47f0 	stmdb	sp!, {r4, r5, r6, r7, r8, r9, sl, lr}
	return msg->hdr.ids.level;
    2de4:	7a8b      	ldrb	r3, [r1, #10]
		log_output_msg_syst_process(output, msg, flags);
		return;
	}

	prefix_offset = raw_string ?
			0 : prefix_print(output, flags, std_msg, timestamp,
    2de6:	f013 0807 	ands.w	r8, r3, #7
{
    2dea:	4617      	mov	r7, r2
    2dec:	b08a      	sub	sp, #40	; 0x28
	return  (msg->hdr.params.generic.type == LOG_MSG_TYPE_STD);
    2dee:	7a0a      	ldrb	r2, [r1, #8]
    2df0:	4605      	mov	r5, r0
    2df2:	460e      	mov	r6, r1
			0 : prefix_print(output, flags, std_msg, timestamp,
    2df4:	d020      	beq.n	2e38 <log_output_msg_process+0x58>
	return msg->hdr.ids.source_id;
    2df6:	8949      	ldrh	r1, [r1, #10]
    2df8:	f3c3 03c2 	ubfx	r3, r3, #3, #3
    2dfc:	0989      	lsrs	r1, r1, #6
	return  (msg->hdr.params.generic.type == LOG_MSG_TYPE_STD);
    2dfe:	43d2      	mvns	r2, r2
    2e00:	e9cd 8300 	strd	r8, r3, [sp]
    2e04:	9102      	str	r1, [sp, #8]
    2e06:	68f3      	ldr	r3, [r6, #12]
    2e08:	f002 0201 	and.w	r2, r2, #1
    2e0c:	4639      	mov	r1, r7
    2e0e:	f7ff fec9 	bl	2ba4 <prefix_print>
    2e12:	4681      	mov	r9, r0
    2e14:	7a34      	ldrb	r4, [r6, #8]
    2e16:	43e4      	mvns	r4, r4
					 level, domain_id, source_id);

	if (log_msg_is_std(msg)) {
    2e18:	f014 0401 	ands.w	r4, r4, #1
    2e1c:	d00e      	beq.n	2e3c <log_output_msg_process+0x5c>
		std_print(msg, output);
    2e1e:	4629      	mov	r1, r5
    2e20:	4630      	mov	r0, r6
    2e22:	f005 fa6d 	bl	8300 <std_print>
		raw_string_print(msg, output);
	} else {
		hexdump_print(msg, output, prefix_offset, flags);
	}

	if (!raw_string) {
    2e26:	f1b8 0f00 	cmp.w	r8, #0
    2e2a:	d02b      	beq.n	2e84 <log_output_msg_process+0xa4>
		postfix_print(output, flags, level);
    2e2c:	4642      	mov	r2, r8
    2e2e:	4639      	mov	r1, r7
    2e30:	4628      	mov	r0, r5
    2e32:	f7ff ff45 	bl	2cc0 <postfix_print>
    2e36:	e025      	b.n	2e84 <log_output_msg_process+0xa4>
			0 : prefix_print(output, flags, std_msg, timestamp,
    2e38:	46c1      	mov	r9, r8
    2e3a:	e7eb      	b.n	2e14 <log_output_msg_process+0x34>
	} else if (raw_string) {
    2e3c:	f1b8 0f00 	cmp.w	r8, #0
    2e40:	d126      	bne.n	2e90 <log_output_msg_process+0xb0>
	size_t offset = 0;
    2e42:	4627      	mov	r7, r4
		length = output->size;
    2e44:	68eb      	ldr	r3, [r5, #12]
    2e46:	9306      	str	r3, [sp, #24]
		log_msg_hexdump_data_get(msg, output->buf, &length, offset);
    2e48:	aa06      	add	r2, sp, #24
    2e4a:	463b      	mov	r3, r7
    2e4c:	68a9      	ldr	r1, [r5, #8]
    2e4e:	4630      	mov	r0, r6
    2e50:	f005 fa42 	bl	82d8 <log_msg_hexdump_data_get>
		output->control_block->offset = length;
    2e54:	9a06      	ldr	r2, [sp, #24]
    2e56:	686b      	ldr	r3, [r5, #4]
    2e58:	601a      	str	r2, [r3, #0]
		if (length != 0) {
    2e5a:	b13a      	cbz	r2, 2e6c <log_output_msg_process+0x8c>
			eol = (output->buf[length - 1] == '\n');
    2e5c:	68ab      	ldr	r3, [r5, #8]
    2e5e:	4413      	add	r3, r2
    2e60:	f813 4c01 	ldrb.w	r4, [r3, #-1]
    2e64:	f1a4 030a 	sub.w	r3, r4, #10
    2e68:	425c      	negs	r4, r3
    2e6a:	415c      	adcs	r4, r3
		log_output_flush(output);
    2e6c:	4628      	mov	r0, r5
    2e6e:	f005 fba4 	bl	85ba <log_output_flush>
		offset += length;
    2e72:	9b06      	ldr	r3, [sp, #24]
    2e74:	441f      	add	r7, r3
	} while (length > 0);
    2e76:	2b00      	cmp	r3, #0
    2e78:	d1e4      	bne.n	2e44 <log_output_msg_process+0x64>
	if (eol) {
    2e7a:	b11c      	cbz	r4, 2e84 <log_output_msg_process+0xa4>
		print_formatted(output, "\r");
    2e7c:	4913      	ldr	r1, [pc, #76]	; (2ecc <log_output_msg_process+0xec>)
    2e7e:	4628      	mov	r0, r5
    2e80:	f7ff fe7e 	bl	2b80 <print_formatted>
	}

	log_output_flush(output);
    2e84:	4628      	mov	r0, r5
    2e86:	f005 fb98 	bl	85ba <log_output_flush>
}
    2e8a:	b00a      	add	sp, #40	; 0x28
    2e8c:	e8bd 87f0 	ldmia.w	sp!, {r4, r5, r6, r7, r8, r9, sl, pc}
	print_formatted(output, "%s", log_msg_str_get(msg));
    2e90:	4630      	mov	r0, r6
    2e92:	f005 f9cd 	bl	8230 <log_msg_str_get>
    2e96:	490e      	ldr	r1, [pc, #56]	; (2ed0 <log_output_msg_process+0xf0>)
    2e98:	4602      	mov	r2, r0
    2e9a:	4628      	mov	r0, r5
    2e9c:	f7ff fe70 	bl	2b80 <print_formatted>
		length = sizeof(buf);
    2ea0:	f04f 0a10 	mov.w	sl, #16
		log_msg_hexdump_data_get(msg, buf, &length, offset);
    2ea4:	aa05      	add	r2, sp, #20
    2ea6:	4623      	mov	r3, r4
    2ea8:	a906      	add	r1, sp, #24
    2eaa:	4630      	mov	r0, r6
		length = sizeof(buf);
    2eac:	f8cd a014 	str.w	sl, [sp, #20]
		log_msg_hexdump_data_get(msg, buf, &length, offset);
    2eb0:	f005 fa12 	bl	82d8 <log_msg_hexdump_data_get>
		if (length) {
    2eb4:	9a05      	ldr	r2, [sp, #20]
    2eb6:	2a00      	cmp	r2, #0
    2eb8:	d0b8      	beq.n	2e2c <log_output_msg_process+0x4c>
			hexdump_line_print(output, buf, length,
    2eba:	464b      	mov	r3, r9
    2ebc:	9700      	str	r7, [sp, #0]
    2ebe:	a906      	add	r1, sp, #24
    2ec0:	4628      	mov	r0, r5
    2ec2:	f7ff ff1b 	bl	2cfc <hexdump_line_print>
			offset += length;
    2ec6:	9b05      	ldr	r3, [sp, #20]
    2ec8:	441c      	add	r4, r3
		length = sizeof(buf);
    2eca:	e7eb      	b.n	2ea4 <log_output_msg_process+0xc4>
    2ecc:	00009810 	.word	0x00009810
    2ed0:	00009ce8 	.word	0x00009ce8

00002ed4 <log_output_dropped_process>:
	postfix_print(output, flags, level);
	log_output_flush(output);
}

void log_output_dropped_process(const struct log_output *output, uint32_t cnt)
{
    2ed4:	b573      	push	{r0, r1, r4, r5, r6, lr}
	static const char postfix[] =
			" messages dropped ---\r\n" DROPPED_COLOR_POSTFIX;
	log_output_func_t outf = output->func;

	cnt = MIN(cnt, 9999);
	len = snprintk(buf, sizeof(buf), "%d", cnt);
    2ed6:	f242 730f 	movw	r3, #9999	; 0x270f
    2eda:	428b      	cmp	r3, r1
    2edc:	bf28      	it	cs
    2ede:	460b      	movcs	r3, r1
	log_output_func_t outf = output->func;
    2ee0:	6805      	ldr	r5, [r0, #0]
	len = snprintk(buf, sizeof(buf), "%d", cnt);
    2ee2:	4a0f      	ldr	r2, [pc, #60]	; (2f20 <log_output_dropped_process+0x4c>)
{
    2ee4:	4604      	mov	r4, r0
	len = snprintk(buf, sizeof(buf), "%d", cnt);
    2ee6:	2105      	movs	r1, #5
    2ee8:	4668      	mov	r0, sp
    2eea:	f004 ff9f 	bl	7e2c <snprintk>

	buffer_write(outf, (uint8_t *)prefix, sizeof(prefix) - 1,
    2eee:	6863      	ldr	r3, [r4, #4]
    2ef0:	490c      	ldr	r1, [pc, #48]	; (2f24 <log_output_dropped_process+0x50>)
    2ef2:	685b      	ldr	r3, [r3, #4]
	len = snprintk(buf, sizeof(buf), "%d", cnt);
    2ef4:	4606      	mov	r6, r0
	buffer_write(outf, (uint8_t *)prefix, sizeof(prefix) - 1,
    2ef6:	220b      	movs	r2, #11
    2ef8:	4628      	mov	r0, r5
    2efa:	f005 f9f4 	bl	82e6 <buffer_write>
		     output->control_block->ctx);
	buffer_write(outf, buf, len, output->control_block->ctx);
    2efe:	6863      	ldr	r3, [r4, #4]
    2f00:	4632      	mov	r2, r6
    2f02:	4669      	mov	r1, sp
    2f04:	4628      	mov	r0, r5
    2f06:	685b      	ldr	r3, [r3, #4]
    2f08:	f005 f9ed 	bl	82e6 <buffer_write>
	buffer_write(outf, (uint8_t *)postfix, sizeof(postfix) - 1,
    2f0c:	6863      	ldr	r3, [r4, #4]
    2f0e:	4906      	ldr	r1, [pc, #24]	; (2f28 <log_output_dropped_process+0x54>)
    2f10:	685b      	ldr	r3, [r3, #4]
    2f12:	221b      	movs	r2, #27
    2f14:	4628      	mov	r0, r5
    2f16:	f005 f9e6 	bl	82e6 <buffer_write>
		     output->control_block->ctx);
}
    2f1a:	b002      	add	sp, #8
    2f1c:	bd70      	pop	{r4, r5, r6, pc}
    2f1e:	bf00      	nop
    2f20:	00009e43 	.word	0x00009e43
    2f24:	0000984e 	.word	0x0000984e
    2f28:	00009832 	.word	0x00009832

00002f2c <log_output_timestamp_freq_set>:

void log_output_timestamp_freq_set(uint32_t frequency)
{
	timestamp_div = 1U;
    2f2c:	4a08      	ldr	r2, [pc, #32]	; (2f50 <log_output_timestamp_freq_set+0x24>)
{
    2f2e:	b510      	push	{r4, lr}
	timestamp_div = 1U;
    2f30:	2301      	movs	r3, #1
	/* There is no point to have frequency higher than 1MHz (ns are not
	 * printed) and too high frequency leads to overflows in calculations.
	 */
	while (frequency > 1000000) {
    2f32:	4c08      	ldr	r4, [pc, #32]	; (2f54 <log_output_timestamp_freq_set+0x28>)
	timestamp_div = 1U;
    2f34:	6013      	str	r3, [r2, #0]
	while (frequency > 1000000) {
    2f36:	2100      	movs	r1, #0
    2f38:	42a0      	cmp	r0, r4
    2f3a:	d804      	bhi.n	2f46 <log_output_timestamp_freq_set+0x1a>
    2f3c:	b101      	cbz	r1, 2f40 <log_output_timestamp_freq_set+0x14>
    2f3e:	6013      	str	r3, [r2, #0]
		frequency /= 2U;
		timestamp_div *= 2U;
	}

	freq = frequency;
    2f40:	4b05      	ldr	r3, [pc, #20]	; (2f58 <log_output_timestamp_freq_set+0x2c>)
    2f42:	6018      	str	r0, [r3, #0]
}
    2f44:	bd10      	pop	{r4, pc}
		frequency /= 2U;
    2f46:	0840      	lsrs	r0, r0, #1
		timestamp_div *= 2U;
    2f48:	005b      	lsls	r3, r3, #1
    2f4a:	2101      	movs	r1, #1
    2f4c:	e7f4      	b.n	2f38 <log_output_timestamp_freq_set+0xc>
    2f4e:	bf00      	nop
    2f50:	20000470 	.word	0x20000470
    2f54:	000f4240 	.word	0x000f4240
    2f58:	2000046c 	.word	0x2000046c

00002f5c <log_backend_rtt_init>:
{
	if (CONFIG_LOG_BACKEND_RTT_BUFFER > 0) {
		log_backend_rtt_cfg();
	}

	host_present = true;
    2f5c:	4b01      	ldr	r3, [pc, #4]	; (2f64 <log_backend_rtt_init+0x8>)
    2f5e:	2201      	movs	r2, #1
    2f60:	701a      	strb	r2, [r3, #0]
	line_pos = line_buf;
}
    2f62:	4770      	bx	lr
    2f64:	20000986 	.word	0x20000986

00002f68 <panic>:

static void panic(struct log_backend const *const backend)
{
	panic_mode = true;
    2f68:	4b02      	ldr	r3, [pc, #8]	; (2f74 <panic+0xc>)
 * @param output	Log output instance.
 */
static inline void
log_backend_std_panic(const struct log_output *const output)
{
	log_output_flush(output);
    2f6a:	4803      	ldr	r0, [pc, #12]	; (2f78 <panic+0x10>)
    2f6c:	2201      	movs	r2, #1
    2f6e:	701a      	strb	r2, [r3, #0]
    2f70:	f005 bb23 	b.w	85ba <log_output_flush>
    2f74:	20000987 	.word	0x20000987
    2f78:	00009490 	.word	0x00009490

00002f7c <dropped>:
 * @param cnt		Number of dropped messages.
 */
static inline void
log_backend_std_dropped(const struct log_output *const output, uint32_t cnt)
{
	log_output_dropped_process(output, cnt);
    2f7c:	4801      	ldr	r0, [pc, #4]	; (2f84 <dropped+0x8>)
    2f7e:	f7ff bfa9 	b.w	2ed4 <log_output_dropped_process>
    2f82:	bf00      	nop
    2f84:	00009490 	.word	0x00009490

00002f88 <put>:
{
    2f88:	b510      	push	{r4, lr}
	log_msg_get(msg);
    2f8a:	4608      	mov	r0, r1
    2f8c:	460c      	mov	r4, r1
    2f8e:	f005 f90d 	bl	81ac <log_msg_get>
	log_output_msg_process(output, msg, flags);
    2f92:	4805      	ldr	r0, [pc, #20]	; (2fa8 <put+0x20>)
    2f94:	4621      	mov	r1, r4
    2f96:	220f      	movs	r2, #15
    2f98:	f7ff ff22 	bl	2de0 <log_output_msg_process>
	log_msg_put(msg);
    2f9c:	4620      	mov	r0, r4
}
    2f9e:	e8bd 4010 	ldmia.w	sp!, {r4, lr}
    2fa2:	f005 b932 	b.w	820a <log_msg_put>
    2fa6:	bf00      	nop
    2fa8:	00009490 	.word	0x00009490

00002fac <on_failed_write.part.0>:
	return IS_ENABLED(CONFIG_LOG_IMMEDIATE) || panic_mode;
    2fac:	4b05      	ldr	r3, [pc, #20]	; (2fc4 <on_failed_write.part.0+0x18>)
	} else if (is_sync_mode()) {
    2fae:	781b      	ldrb	r3, [r3, #0]
    2fb0:	b11b      	cbz	r3, 2fba <on_failed_write.part.0+0xe>
	z_impl_k_busy_wait(usec_to_wait);
    2fb2:	f241 3088 	movw	r0, #5000	; 0x1388
    2fb6:	f006 b803 	b.w	8fc0 <z_impl_k_busy_wait>
	return z_impl_k_sleep(timeout);
    2fba:	20a4      	movs	r0, #164	; 0xa4
    2fbc:	2100      	movs	r1, #0
    2fbe:	f004 b93f 	b.w	7240 <z_impl_k_sleep>
    2fc2:	bf00      	nop
    2fc4:	20000987 	.word	0x20000987

00002fc8 <data_out_block_mode>:
{
    2fc8:	e92d 4ff8 	stmdb	sp!, {r3, r4, r5, r6, r7, r8, r9, sl, fp, lr}
	return IS_ENABLED(CONFIG_LOG_IMMEDIATE) || panic_mode;
    2fcc:	f8df 9090 	ldr.w	r9, [pc, #144]	; 3060 <data_out_block_mode+0x98>
	return z_impl_k_mutex_lock(mutex, timeout);
    2fd0:	f8df b090 	ldr.w	fp, [pc, #144]	; 3064 <data_out_block_mode+0x9c>
{
    2fd4:	4607      	mov	r7, r0
    2fd6:	460e      	mov	r6, r1
	int retry_cnt = IS_ENABLED(CONFIG_LOG_BACKEND_RTT_MODE_BLOCK) ?
    2fd8:	2404      	movs	r4, #4
    2fda:	46ca      	mov	sl, r9
		if (!is_sync_mode()) {
    2fdc:	f899 3000 	ldrb.w	r3, [r9]
    2fe0:	b933      	cbnz	r3, 2ff0 <data_out_block_mode+0x28>
    2fe2:	f04f 32ff 	mov.w	r2, #4294967295	; 0xffffffff
    2fe6:	f04f 33ff 	mov.w	r3, #4294967295	; 0xffffffff
    2fea:	4658      	mov	r0, fp
    2fec:	f003 fd84 	bl	6af8 <z_impl_k_mutex_lock>
		ret = SEGGER_RTT_WriteSkipNoLock(CONFIG_LOG_BACKEND_RTT_BUFFER,
    2ff0:	4632      	mov	r2, r6
    2ff2:	4639      	mov	r1, r7
    2ff4:	2000      	movs	r0, #0
    2ff6:	f000 fba7 	bl	3748 <SEGGER_RTT_WriteSkipNoLock>
		if (!is_sync_mode()) {
    2ffa:	f89a 3000 	ldrb.w	r3, [sl]
		ret = SEGGER_RTT_WriteSkipNoLock(CONFIG_LOG_BACKEND_RTT_BUFFER,
    2ffe:	4680      	mov	r8, r0
		if (!is_sync_mode()) {
    3000:	b913      	cbnz	r3, 3008 <data_out_block_mode+0x40>
	return z_impl_k_mutex_unlock(mutex);
    3002:	4658      	mov	r0, fp
    3004:	f003 fdf0 	bl	6be8 <z_impl_k_mutex_unlock>
		if (ret) {
    3008:	4d14      	ldr	r5, [pc, #80]	; (305c <data_out_block_mode+0x94>)
    300a:	f1b8 0f00 	cmp.w	r8, #0
    300e:	d018      	beq.n	3042 <data_out_block_mode+0x7a>
	host_present = true;
    3010:	2301      	movs	r3, #1
    3012:	702b      	strb	r3, [r5, #0]
	if (is_panic_mode()) {
    3014:	f89a 3000 	ldrb.w	r3, [sl]
    3018:	b933      	cbnz	r3, 3028 <data_out_block_mode+0x60>
}
    301a:	4630      	mov	r0, r6
    301c:	e8bd 8ff8 	ldmia.w	sp!, {r3, r4, r5, r6, r7, r8, r9, sl, fp, pc}
	if (retry_cnt == 0) {
    3020:	b95c      	cbnz	r4, 303a <data_out_block_mode+0x72>
		host_present = false;
    3022:	702c      	strb	r4, [r5, #0]
    3024:	f04f 34ff 	mov.w	r4, #4294967295	; 0xffffffff
		while (SEGGER_RTT_HasDataUp(CONFIG_LOG_BACKEND_RTT_BUFFER) &&
    3028:	2000      	movs	r0, #0
    302a:	f000 fc0d 	bl	3848 <SEGGER_RTT_HasDataUp>
    302e:	2800      	cmp	r0, #0
    3030:	d0f3      	beq.n	301a <data_out_block_mode+0x52>
    3032:	782b      	ldrb	r3, [r5, #0]
    3034:	2b00      	cmp	r3, #0
    3036:	d1f3      	bne.n	3020 <data_out_block_mode+0x58>
    3038:	e7ef      	b.n	301a <data_out_block_mode+0x52>
			on_failed_write(retry_cnt--);
    303a:	3c01      	subs	r4, #1
    303c:	f7ff ffb6 	bl	2fac <on_failed_write.part.0>
    3040:	e7f2      	b.n	3028 <data_out_block_mode+0x60>
		} else if (host_present) {
    3042:	782b      	ldrb	r3, [r5, #0]
    3044:	b113      	cbz	r3, 304c <data_out_block_mode+0x84>
	if (retry_cnt == 0) {
    3046:	3c01      	subs	r4, #1
    3048:	d104      	bne.n	3054 <data_out_block_mode+0x8c>
		host_present = false;
    304a:	702c      	strb	r4, [r5, #0]
	} while ((ret == 0) && host_present);
    304c:	782b      	ldrb	r3, [r5, #0]
    304e:	2b00      	cmp	r3, #0
    3050:	d1c4      	bne.n	2fdc <data_out_block_mode+0x14>
    3052:	e7e2      	b.n	301a <data_out_block_mode+0x52>
    3054:	f7ff ffaa 	bl	2fac <on_failed_write.part.0>
    3058:	e7f8      	b.n	304c <data_out_block_mode+0x84>
    305a:	bf00      	nop
    305c:	20000986 	.word	0x20000986
    3060:	20000987 	.word	0x20000987
    3064:	20000188 	.word	0x20000188

00003068 <pm_state_notify>:
/*
 * Function called to notify when the system is entering / exiting a
 * power state
 */
static inline void pm_state_notify(bool entering_state)
{
    3068:	b5f8      	push	{r3, r4, r5, r6, r7, lr}
    306a:	4605      	mov	r5, r0
	__asm__ volatile(
    306c:	f04f 0320 	mov.w	r3, #32
    3070:	f3ef 8611 	mrs	r6, BASEPRI
    3074:	f383 8811 	msr	BASEPRI, r3
    3078:	f3bf 8f6f 	isb	sy
	struct pm_notifier *notifier;
	k_spinlock_key_t pm_notifier_key;
	void (*callback)(enum pm_state state);

	pm_notifier_key = k_spin_lock(&pm_notifier_lock);
	SYS_SLIST_FOR_EACH_CONTAINER(&pm_notifiers, notifier, _node) {
    307c:	4b0b      	ldr	r3, [pc, #44]	; (30ac <pm_state_notify+0x44>)
    307e:	681c      	ldr	r4, [r3, #0]
    3080:	2c00      	cmp	r4, #0
    3082:	bf38      	it	cc
    3084:	2400      	movcc	r4, #0
    3086:	b15c      	cbz	r4, 30a0 <pm_state_notify+0x38>
		} else {
			callback = notifier->state_exit;
		}

		if (callback) {
			callback(z_power_state.state);
    3088:	4f09      	ldr	r7, [pc, #36]	; (30b0 <pm_state_notify+0x48>)
			callback = notifier->state_exit;
    308a:	e9d4 3201 	ldrd	r3, r2, [r4, #4]
    308e:	2d00      	cmp	r5, #0
    3090:	bf08      	it	eq
    3092:	4613      	moveq	r3, r2
		if (callback) {
    3094:	b10b      	cbz	r3, 309a <pm_state_notify+0x32>
			callback(z_power_state.state);
    3096:	7838      	ldrb	r0, [r7, #0]
    3098:	4798      	blx	r3
Z_GENLIST_PEEK_NEXT_NO_CHECK(slist, snode)
    309a:	6824      	ldr	r4, [r4, #0]
	SYS_SLIST_FOR_EACH_CONTAINER(&pm_notifiers, notifier, _node) {
    309c:	2c00      	cmp	r4, #0
    309e:	d1f4      	bne.n	308a <pm_state_notify+0x22>
	__asm__ volatile(
    30a0:	f386 8811 	msr	BASEPRI, r6
    30a4:	f3bf 8f6f 	isb	sy
		}
	}
	k_spin_unlock(&pm_notifier_lock, pm_notifier_key);
}
    30a8:	bdf8      	pop	{r3, r4, r5, r6, r7, pc}
    30aa:	bf00      	nop
    30ac:	20000488 	.word	0x20000488
    30b0:	20000490 	.word	0x20000490

000030b4 <pm_system_resume>:
	 * and it may schedule another thread.
	 *
	 * Call pm_idle_exit_notification_disable() if this
	 * notification is not required.
	 */
	if (!post_ops_done) {
    30b4:	4b08      	ldr	r3, [pc, #32]	; (30d8 <pm_system_resume+0x24>)
{
    30b6:	b510      	push	{r4, lr}
	if (!post_ops_done) {
    30b8:	681c      	ldr	r4, [r3, #0]
    30ba:	b95c      	cbnz	r4, 30d4 <pm_system_resume+0x20>
		post_ops_done = 1;
    30bc:	2201      	movs	r2, #1
    30be:	601a      	str	r2, [r3, #0]
		pm_power_state_exit_post_ops(z_power_state);
    30c0:	4b06      	ldr	r3, [pc, #24]	; (30dc <pm_system_resume+0x28>)
    30c2:	e893 0003 	ldmia.w	r3, {r0, r1}
    30c6:	f005 fbba 	bl	883e <pm_power_state_exit_post_ops>
		pm_state_notify(false);
    30ca:	4620      	mov	r0, r4
	}
}
    30cc:	e8bd 4010 	ldmia.w	sp!, {r4, lr}
		pm_state_notify(false);
    30d0:	f7ff bfca 	b.w	3068 <pm_state_notify>
}
    30d4:	bd10      	pop	{r4, pc}
    30d6:	bf00      	nop
    30d8:	20000008 	.word	0x20000008
    30dc:	20000490 	.word	0x20000490

000030e0 <pm_system_suspend>:
	return PM_STATE_ACTIVE;
}
#endif

enum pm_state pm_system_suspend(int32_t ticks)
{
    30e0:	b537      	push	{r0, r1, r2, r4, r5, lr}
	z_power_state = pm_policy_next_state(ticks);
    30e2:	466d      	mov	r5, sp
{
    30e4:	4601      	mov	r1, r0
	z_power_state = pm_policy_next_state(ticks);
    30e6:	4628      	mov	r0, r5
    30e8:	f005 fa8f 	bl	860a <pm_policy_next_state>
    30ec:	e895 0003 	ldmia.w	r5, {r0, r1}
    30f0:	4c0b      	ldr	r4, [pc, #44]	; (3120 <pm_system_suspend+0x40>)
    30f2:	e884 0003 	stmia.w	r4, {r0, r1}
	if (z_power_state.state == PM_STATE_ACTIVE) {
    30f6:	7820      	ldrb	r0, [r4, #0]
    30f8:	b180      	cbz	r0, 311c <pm_system_suspend+0x3c>
		LOG_DBG("No PM operations done.");
		return z_power_state.state;
	}
	post_ops_done = 0;
    30fa:	4b0a      	ldr	r3, [pc, #40]	; (3124 <pm_system_suspend+0x44>)
    30fc:	2200      	movs	r2, #0
    30fe:	601a      	str	r2, [r3, #0]
	 * state. We don't want to be scheduled out yet, first we need
	 * to send a notification about leaving the idle state. So,
	 * we lock the scheduler here and unlock just after we have
	 * sent the notification in pm_system_resume().
	 */
	k_sched_lock();
    3100:	f003 fe12 	bl	6d28 <k_sched_lock>
	pm_debug_start_timer();
	/* Enter power state */
	pm_state_notify(true);
    3104:	2001      	movs	r0, #1
    3106:	f7ff ffaf 	bl	3068 <pm_state_notify>
	pm_power_state_set(z_power_state);
    310a:	e894 0003 	ldmia.w	r4, {r0, r1}
    310e:	f005 fb83 	bl	8818 <pm_power_state_set>
		/* Turn on peripherals and restore device states as necessary */
		pm_resume_devices();
	}
#endif
	pm_log_debug_info(z_power_state.state);
	pm_system_resume();
    3112:	f7ff ffcf 	bl	30b4 <pm_system_resume>
	k_sched_unlock();
    3116:	f003 fef7 	bl	6f08 <k_sched_unlock>

	return z_power_state.state;
    311a:	7820      	ldrb	r0, [r4, #0]
}
    311c:	b003      	add	sp, #12
    311e:	bd30      	pop	{r4, r5, pc}
    3120:	20000490 	.word	0x20000490
    3124:	20000008 	.word	0x20000008

00003128 <rtt_console_init>:

	return character;
}

static int rtt_console_init(const struct device *d)
{
    3128:	b510      	push	{r4, lr}
	ARG_UNUSED(d);

	__printk_hook_install(rtt_console_out);
    312a:	4c04      	ldr	r4, [pc, #16]	; (313c <rtt_console_init+0x14>)
    312c:	4620      	mov	r0, r4
    312e:	f7fe fcf3 	bl	1b18 <__printk_hook_install>
	__stdout_hook_install(rtt_console_out);
    3132:	4620      	mov	r0, r4
    3134:	f000 fff4 	bl	4120 <__stdout_hook_install>

	return 0;
}
    3138:	2000      	movs	r0, #0
    313a:	bd10      	pop	{r4, pc}
    313c:	00003141 	.word	0x00003141

00003140 <rtt_console_out>:
{
    3140:	e92d 41f3 	stmdb	sp!, {r0, r1, r4, r5, r6, r7, r8, lr}
	return z_impl_k_mutex_lock(mutex, timeout);
    3144:	f8df 8060 	ldr.w	r8, [pc, #96]	; 31a8 <rtt_console_out+0x68>
    3148:	4e16      	ldr	r6, [pc, #88]	; (31a4 <rtt_console_out+0x64>)
	char c = (char)character;
    314a:	f88d 0007 	strb.w	r0, [sp, #7]
{
    314e:	4604      	mov	r4, r0
	char c = (char)character;
    3150:	2503      	movs	r5, #3
    3152:	f04f 33ff 	mov.w	r3, #4294967295	; 0xffffffff
    3156:	f04f 32ff 	mov.w	r2, #4294967295	; 0xffffffff
    315a:	4640      	mov	r0, r8
    315c:	f003 fccc 	bl	6af8 <z_impl_k_mutex_lock>
		cnt = SEGGER_RTT_WriteNoLock(0, &c, 1);
    3160:	2201      	movs	r2, #1
    3162:	f10d 0107 	add.w	r1, sp, #7
    3166:	2000      	movs	r0, #0
    3168:	f000 fb3a 	bl	37e0 <SEGGER_RTT_WriteNoLock>
    316c:	4607      	mov	r7, r0
	return z_impl_k_mutex_unlock(mutex);
    316e:	4640      	mov	r0, r8
    3170:	f003 fd3a 	bl	6be8 <z_impl_k_mutex_unlock>
		if (cnt) {
    3174:	b12f      	cbz	r7, 3182 <rtt_console_out+0x42>
			host_present = true;
    3176:	2301      	movs	r3, #1
    3178:	7033      	strb	r3, [r6, #0]
}
    317a:	4620      	mov	r0, r4
    317c:	b002      	add	sp, #8
    317e:	e8bd 81f0 	ldmia.w	sp!, {r4, r5, r6, r7, r8, pc}
		} else if (host_present) {
    3182:	7833      	ldrb	r3, [r6, #0]
    3184:	2b00      	cmp	r3, #0
    3186:	d0f8      	beq.n	317a <rtt_console_out+0x3a>
			if (max_cnt) {
    3188:	3d01      	subs	r5, #1
    318a:	d008      	beq.n	319e <rtt_console_out+0x5e>
	if (k_is_in_isr()) {
    318c:	f005 ff12 	bl	8fb4 <k_is_in_isr>
    3190:	2800      	cmp	r0, #0
    3192:	d1de      	bne.n	3152 <rtt_console_out+0x12>
	return z_impl_k_sleep(timeout);
    3194:	2100      	movs	r1, #0
    3196:	2042      	movs	r0, #66	; 0x42
    3198:	f004 f852 	bl	7240 <z_impl_k_sleep>
 * @return Zero if the requested time has elapsed or the number of milliseconds
 * left to sleep, if thread was woken up by \ref k_wakeup call.
 */
static inline int32_t k_msleep(int32_t ms)
{
	return k_sleep(Z_TIMEOUT_MS(ms));
    319c:	e7d9      	b.n	3152 <rtt_console_out+0x12>
				host_present = false;
    319e:	7035      	strb	r5, [r6, #0]
    31a0:	e7eb      	b.n	317a <rtt_console_out+0x3a>
    31a2:	bf00      	nop
    31a4:	20000988 	.word	0x20000988
    31a8:	20000188 	.word	0x20000188

000031ac <onoff_stop>:
	return (clock_control_subsys_t)offset;
}

static void onoff_stop(struct onoff_manager *mgr,
			onoff_notify_fn notify)
{
    31ac:	b570      	push	{r4, r5, r6, lr}
    31ae:	4604      	mov	r4, r0
	size_t offset = (size_t)(mgr - data->mgr);
    31b0:	480d      	ldr	r0, [pc, #52]	; (31e8 <onoff_stop+0x3c>)
    31b2:	1a23      	subs	r3, r4, r0
    31b4:	109a      	asrs	r2, r3, #2
    31b6:	4b0d      	ldr	r3, [pc, #52]	; (31ec <onoff_stop+0x40>)
    31b8:	4353      	muls	r3, r2
    31ba:	b2db      	uxtb	r3, r3
	err = set_off_state(&subdata->flags, ctx);
    31bc:	250c      	movs	r5, #12
    31be:	435d      	muls	r5, r3
    31c0:	f105 0340 	add.w	r3, r5, #64	; 0x40
{
    31c4:	460e      	mov	r6, r1
	err = set_off_state(&subdata->flags, ctx);
    31c6:	4418      	add	r0, r3
    31c8:	2140      	movs	r1, #64	; 0x40
    31ca:	f005 fa2b 	bl	8624 <set_off_state>
	if (err < 0) {
    31ce:	1e01      	subs	r1, r0, #0
    31d0:	db04      	blt.n	31dc <onoff_stop+0x30>
	get_sub_config(dev, type)->stop();
    31d2:	4b07      	ldr	r3, [pc, #28]	; (31f0 <onoff_stop+0x44>)
    31d4:	442b      	add	r3, r5
    31d6:	685b      	ldr	r3, [r3, #4]
    31d8:	4798      	blx	r3
	return 0;
    31da:	2100      	movs	r1, #0
	int res;

	res = stop(CLOCK_DEVICE, get_subsys(mgr), CTX_ONOFF);
	notify(mgr, res);
    31dc:	4620      	mov	r0, r4
    31de:	4633      	mov	r3, r6
}
    31e0:	e8bd 4070 	ldmia.w	sp!, {r4, r5, r6, lr}
	notify(mgr, res);
    31e4:	4718      	bx	r3
    31e6:	bf00      	nop
    31e8:	200004ac 	.word	0x200004ac
    31ec:	b6db6db7 	.word	0xb6db6db7
    31f0:	000094b4 	.word	0x000094b4

000031f4 <onoff_start>:
	notify(mgr, 0);
}

static void onoff_start(struct onoff_manager *mgr,
			onoff_notify_fn notify)
{
    31f4:	e92d 41f0 	stmdb	sp!, {r4, r5, r6, r7, r8, lr}
	size_t offset = (size_t)(mgr - data->mgr);
    31f8:	4c0f      	ldr	r4, [pc, #60]	; (3238 <onoff_start+0x44>)
    31fa:	4d10      	ldr	r5, [pc, #64]	; (323c <onoff_start+0x48>)
    31fc:	1b03      	subs	r3, r0, r4
    31fe:	109b      	asrs	r3, r3, #2
    3200:	435d      	muls	r5, r3
    3202:	b2eb      	uxtb	r3, r5
	err = set_starting_state(&subdata->flags, ctx);
    3204:	250c      	movs	r5, #12
    3206:	435d      	muls	r5, r3
{
    3208:	4607      	mov	r7, r0
	err = set_starting_state(&subdata->flags, ctx);
    320a:	f105 0040 	add.w	r0, r5, #64	; 0x40
{
    320e:	460e      	mov	r6, r1
	err = set_starting_state(&subdata->flags, ctx);
    3210:	4420      	add	r0, r4
    3212:	2140      	movs	r1, #64	; 0x40
    3214:	f005 fa1f 	bl	8656 <set_starting_state>
	if (err < 0) {
    3218:	1e01      	subs	r1, r0, #0
    321a:	db08      	blt.n	322e <onoff_start+0x3a>
	subdata->cb = cb;
    321c:	4b08      	ldr	r3, [pc, #32]	; (3240 <onoff_start+0x4c>)
    321e:	442c      	add	r4, r5
	subdata->user_data = user_data;
    3220:	e9c4 360e 	strd	r3, r6, [r4, #56]	; 0x38
	 get_sub_config(dev, type)->start();
    3224:	4b07      	ldr	r3, [pc, #28]	; (3244 <onoff_start+0x50>)
    3226:	595b      	ldr	r3, [r3, r5]
	err = async_start(CLOCK_DEVICE, get_subsys(mgr),
			  onoff_started_callback, notify, CTX_ONOFF);
	if (err < 0) {
		notify(mgr, err);
	}
}
    3228:	e8bd 41f0 	ldmia.w	sp!, {r4, r5, r6, r7, r8, lr}
	 get_sub_config(dev, type)->start();
    322c:	4718      	bx	r3
		notify(mgr, err);
    322e:	4638      	mov	r0, r7
    3230:	4633      	mov	r3, r6
}
    3232:	e8bd 41f0 	ldmia.w	sp!, {r4, r5, r6, r7, r8, lr}
		notify(mgr, err);
    3236:	4718      	bx	r3
    3238:	200004ac 	.word	0x200004ac
    323c:	b6db6db7 	.word	0xb6db6db7
    3240:	000086b9 	.word	0x000086b9
    3244:	000094b4 	.word	0x000094b4

00003248 <clk_init>:
	static const struct onoff_transitions transitions = {
		.start = onoff_start,
		.stop = onoff_stop
	};

	IRQ_CONNECT(DT_INST_IRQN(0), DT_INST_IRQ(0, priority),
    3248:	2200      	movs	r2, #0
{
    324a:	b570      	push	{r4, r5, r6, lr}
	IRQ_CONNECT(DT_INST_IRQN(0), DT_INST_IRQ(0, priority),
    324c:	2101      	movs	r1, #1
{
    324e:	4604      	mov	r4, r0
	IRQ_CONNECT(DT_INST_IRQN(0), DT_INST_IRQ(0, priority),
    3250:	4610      	mov	r0, r2
    3252:	f000 fb6f 	bl	3934 <z_arm_irq_priority_set>
		    nrfx_isr, nrfx_power_clock_irq_handler, 0);
	irq_enable(DT_INST_IRQN(0));
    3256:	2000      	movs	r0, #0
    3258:	f000 fb4e 	bl	38f8 <arch_irq_enable>

	nrfx_err = nrfx_clock_init(clock_event_handler);
    325c:	480f      	ldr	r0, [pc, #60]	; (329c <clk_init+0x54>)
    325e:	f002 ffe7 	bl	6230 <nrfx_clock_init>
	if (nrfx_err != NRFX_SUCCESS) {
    3262:	4b0f      	ldr	r3, [pc, #60]	; (32a0 <clk_init+0x58>)
    3264:	4298      	cmp	r0, r3
    3266:	d115      	bne.n	3294 <clk_init+0x4c>
		struct nrf_clock_control_data *data = dev->data;

		z_nrf_clock_calibration_init(data->mgr);
	}

	nrfx_clock_enable();
    3268:	f005 fd21 	bl	8cae <nrfx_clock_enable>

	for (enum clock_control_nrf_type i = 0;
		i < CLOCK_CONTROL_NRF_TYPE_COUNT; i++) {
		struct nrf_clock_control_sub_data *subdata =
						get_sub_data(dev, i);
    326c:	6926      	ldr	r6, [r4, #16]

		err = onoff_manager_init(get_onoff_manager(dev, i),
    326e:	490d      	ldr	r1, [pc, #52]	; (32a4 <clk_init+0x5c>)
    3270:	4630      	mov	r0, r6
    3272:	f004 fe37 	bl	7ee4 <onoff_manager_init>
					 &transitions);
		if (err < 0) {
    3276:	2800      	cmp	r0, #0
    3278:	db0b      	blt.n	3292 <clk_init+0x4a>
			return err;
		}

		subdata->flags = CLOCK_CONTROL_STATUS_OFF;
    327a:	2501      	movs	r5, #1
    327c:	6435      	str	r5, [r6, #64]	; 0x40
						get_sub_data(dev, i);
    327e:	6924      	ldr	r4, [r4, #16]
		err = onoff_manager_init(get_onoff_manager(dev, i),
    3280:	4908      	ldr	r1, [pc, #32]	; (32a4 <clk_init+0x5c>)
    3282:	f104 001c 	add.w	r0, r4, #28
    3286:	f004 fe2d 	bl	7ee4 <onoff_manager_init>
		if (err < 0) {
    328a:	2800      	cmp	r0, #0
    328c:	db01      	blt.n	3292 <clk_init+0x4a>
		subdata->flags = CLOCK_CONTROL_STATUS_OFF;
    328e:	64e5      	str	r5, [r4, #76]	; 0x4c
	}

	return 0;
    3290:	2000      	movs	r0, #0
}
    3292:	bd70      	pop	{r4, r5, r6, pc}
		return -EIO;
    3294:	f06f 0004 	mvn.w	r0, #4
    3298:	e7fb      	b.n	3292 <clk_init+0x4a>
    329a:	bf00      	nop
    329c:	000032dd 	.word	0x000032dd
    32a0:	0bad0000 	.word	0x0bad0000
    32a4:	000094cc 	.word	0x000094cc

000032a8 <clkstarted_handle.constprop.0>:
static void clkstarted_handle(const struct device *dev,
    32a8:	4601      	mov	r1, r0
	clock_control_cb_t callback = sub_data->cb;
    32aa:	230c      	movs	r3, #12
    32ac:	4809      	ldr	r0, [pc, #36]	; (32d4 <clkstarted_handle.constprop.0+0x2c>)
    32ae:	434b      	muls	r3, r1
static void clkstarted_handle(const struct device *dev,
    32b0:	b570      	push	{r4, r5, r6, lr}
	clock_control_cb_t callback = sub_data->cb;
    32b2:	18c4      	adds	r4, r0, r3
	void *user_data = sub_data->user_data;
    32b4:	e9d4 560e 	ldrd	r5, r6, [r4, #56]	; 0x38
	sub_data->cb = NULL;
    32b8:	2200      	movs	r2, #0
	set_on_state(&sub_data->flags);
    32ba:	3340      	adds	r3, #64	; 0x40
	sub_data->cb = NULL;
    32bc:	63a2      	str	r2, [r4, #56]	; 0x38
	set_on_state(&sub_data->flags);
    32be:	4418      	add	r0, r3
    32c0:	f005 f9e7 	bl	8692 <set_on_state>
	if (callback) {
    32c4:	b12d      	cbz	r5, 32d2 <clkstarted_handle.constprop.0+0x2a>
		callback(dev, (clock_control_subsys_t)type, user_data);
    32c6:	4632      	mov	r2, r6
    32c8:	462b      	mov	r3, r5
    32ca:	4803      	ldr	r0, [pc, #12]	; (32d8 <clkstarted_handle.constprop.0+0x30>)
}
    32cc:	e8bd 4070 	ldmia.w	sp!, {r4, r5, r6, lr}
		callback(dev, (clock_control_subsys_t)type, user_data);
    32d0:	4718      	bx	r3
}
    32d2:	bd70      	pop	{r4, r5, r6, pc}
    32d4:	200004ac 	.word	0x200004ac
    32d8:	200000a4 	.word	0x200000a4

000032dc <clock_event_handler>:
	switch (event) {
    32dc:	b110      	cbz	r0, 32e4 <clock_event_handler+0x8>
    32de:	2801      	cmp	r0, #1
    32e0:	d004      	beq.n	32ec <clock_event_handler+0x10>
    32e2:	4770      	bx	lr
		if (GET_STATUS(data->flags) == CLOCK_CONTROL_STATUS_STARTING) {
    32e4:	4b03      	ldr	r3, [pc, #12]	; (32f4 <clock_event_handler+0x18>)
    32e6:	6c1b      	ldr	r3, [r3, #64]	; 0x40
    32e8:	075b      	lsls	r3, r3, #29
    32ea:	d101      	bne.n	32f0 <clock_event_handler+0x14>
		clkstarted_handle(dev, CLOCK_CONTROL_NRF_TYPE_LFCLK);
    32ec:	f7ff bfdc 	b.w	32a8 <clkstarted_handle.constprop.0>
}
    32f0:	4770      	bx	lr
    32f2:	bf00      	nop
    32f4:	200004ac 	.word	0x200004ac

000032f8 <generic_hfclk_start>:
{
    32f8:	b508      	push	{r3, lr}
	__asm__ volatile(
    32fa:	f04f 0320 	mov.w	r3, #32
    32fe:	f3ef 8111 	mrs	r1, BASEPRI
    3302:	f383 8811 	msr	BASEPRI, r3
    3306:	f3bf 8f6f 	isb	sy
	hfclk_users |= HF_USER_GENERIC;
    330a:	4a12      	ldr	r2, [pc, #72]	; (3354 <generic_hfclk_start+0x5c>)
    330c:	6813      	ldr	r3, [r2, #0]
    330e:	f043 0002 	orr.w	r0, r3, #2
	if (hfclk_users & HF_USER_BT) {
    3312:	f013 0301 	ands.w	r3, r3, #1
	hfclk_users |= HF_USER_GENERIC;
    3316:	6010      	str	r0, [r2, #0]
	if (hfclk_users & HF_USER_BT) {
    3318:	d00c      	beq.n	3334 <generic_hfclk_start+0x3c>
            break;
        case NRF_CLOCK_DOMAIN_HFCLK:
            if (p_clk_src != NULL)
            {
                (*(nrf_clock_hfclk_t *)p_clk_src) =
                    (nrf_clock_hfclk_t)((p_reg->HFCLKSTAT & CLOCK_HFCLKSTAT_SRC_Msk)
    331a:	f04f 4280 	mov.w	r2, #1073741824	; 0x40000000
    331e:	f8d2 340c 	ldr.w	r3, [r2, #1036]	; 0x40c
                                        >> CLOCK_HFCLKSTAT_SRC_Pos);
            }
            if ((p_reg->HFCLKSTAT & CLOCK_HFCLKSTAT_STATE_Msk)
    3322:	f8d2 240c 	ldr.w	r2, [r2, #1036]	; 0x40c
		if (type == NRF_CLOCK_HFCLK_HIGH_ACCURACY) {
    3326:	f013 0301 	ands.w	r3, r3, #1
    332a:	d003      	beq.n	3334 <generic_hfclk_start+0x3c>
			set_on_state(get_hf_flags());
    332c:	480a      	ldr	r0, [pc, #40]	; (3358 <generic_hfclk_start+0x60>)
    332e:	f005 f9b0 	bl	8692 <set_on_state>
			already_started = true;
    3332:	2301      	movs	r3, #1
	__asm__ volatile(
    3334:	f381 8811 	msr	BASEPRI, r1
    3338:	f3bf 8f6f 	isb	sy
	if (already_started) {
    333c:	b123      	cbz	r3, 3348 <generic_hfclk_start+0x50>
}
    333e:	e8bd 4008 	ldmia.w	sp!, {r3, lr}
		clkstarted_handle(CLOCK_DEVICE,
    3342:	2000      	movs	r0, #0
    3344:	f7ff bfb0 	b.w	32a8 <clkstarted_handle.constprop.0>
}
    3348:	e8bd 4008 	ldmia.w	sp!, {r3, lr}
    nrfx_clock_stop(NRF_CLOCK_DOMAIN_LFCLK);
}

NRFX_STATIC_INLINE void nrfx_clock_hfclk_start(void)
{
    nrfx_clock_start(NRF_CLOCK_DOMAIN_HFCLK);
    334c:	2001      	movs	r0, #1
    334e:	f002 bf7f 	b.w	6250 <nrfx_clock_start>
    3352:	bf00      	nop
    3354:	200004fc 	.word	0x200004fc
    3358:	200004ec 	.word	0x200004ec

0000335c <generic_hfclk_stop>:
 *
 * @return Previous value of @a target.
 */
static inline atomic_val_t atomic_and(atomic_t *target, atomic_val_t value)
{
	return __atomic_fetch_and(target, value, __ATOMIC_SEQ_CST);
    335c:	4b09      	ldr	r3, [pc, #36]	; (3384 <generic_hfclk_stop+0x28>)
    335e:	f3bf 8f5b 	dmb	ish
    3362:	e853 2f00 	ldrex	r2, [r3]
    3366:	f022 0102 	bic.w	r1, r2, #2
    336a:	e843 1000 	strex	r0, r1, [r3]
    336e:	2800      	cmp	r0, #0
    3370:	d1f7      	bne.n	3362 <generic_hfclk_stop+0x6>
    3372:	f3bf 8f5b 	dmb	ish
	if (atomic_and(&hfclk_users, ~HF_USER_GENERIC) & HF_USER_BT) {
    3376:	07d3      	lsls	r3, r2, #31
    3378:	d402      	bmi.n	3380 <generic_hfclk_stop+0x24>
}

NRFX_STATIC_INLINE void nrfx_clock_hfclk_stop(void)
{
    nrfx_clock_stop(NRF_CLOCK_DOMAIN_HFCLK);
    337a:	2001      	movs	r0, #1
    337c:	f002 bf9a 	b.w	62b4 <nrfx_clock_stop>
}
    3380:	4770      	bx	lr
    3382:	bf00      	nop
    3384:	200004fc 	.word	0x200004fc

00003388 <api_blocking_start>:
{
    3388:	b51f      	push	{r0, r1, r2, r3, r4, lr}
	struct k_sem sem = Z_SEM_INITIALIZER(sem, 0, 1);
    338a:	2200      	movs	r2, #0
    338c:	2301      	movs	r3, #1
    338e:	e9cd 2302 	strd	r2, r3, [sp, #8]
	err = api_start(dev, subsys, blocking_start_callback, &sem);
    3392:	4a09      	ldr	r2, [pc, #36]	; (33b8 <api_blocking_start+0x30>)
	struct k_sem sem = Z_SEM_INITIALIZER(sem, 0, 1);
    3394:	f8cd d000 	str.w	sp, [sp]
	err = api_start(dev, subsys, blocking_start_callback, &sem);
    3398:	466b      	mov	r3, sp
	struct k_sem sem = Z_SEM_INITIALIZER(sem, 0, 1);
    339a:	f8cd d004 	str.w	sp, [sp, #4]
	err = api_start(dev, subsys, blocking_start_callback, &sem);
    339e:	f005 f9b1 	bl	8704 <api_start>
	if (err < 0) {
    33a2:	2800      	cmp	r0, #0
    33a4:	db05      	blt.n	33b2 <api_blocking_start+0x2a>
	return z_impl_k_sem_take(sem, timeout);
    33a6:	f44f 4280 	mov.w	r2, #16384	; 0x4000
    33aa:	2300      	movs	r3, #0
    33ac:	4668      	mov	r0, sp
    33ae:	f004 f803 	bl	73b8 <z_impl_k_sem_take>
}
    33b2:	b005      	add	sp, #20
    33b4:	f85d fb04 	ldr.w	pc, [sp], #4
    33b8:	000086d7 	.word	0x000086d7

000033bc <z_nrf_clock_control_lf_on>:
{
    33bc:	e92d 43f8 	stmdb	sp!, {r3, r4, r5, r6, r7, r8, r9, lr}
	return __atomic_exchange_n(target, value, __ATOMIC_SEQ_CST);
    33c0:	493a      	ldr	r1, [pc, #232]	; (34ac <z_nrf_clock_control_lf_on+0xf0>)
    33c2:	f3bf 8f5b 	dmb	ish
    33c6:	4606      	mov	r6, r0
    33c8:	2201      	movs	r2, #1
    33ca:	e851 3f00 	ldrex	r3, [r1]
    33ce:	e841 2000 	strex	r0, r2, [r1]
    33d2:	2800      	cmp	r0, #0
    33d4:	d1f9      	bne.n	33ca <z_nrf_clock_control_lf_on+0xe>
    33d6:	f3bf 8f5b 	dmb	ish
	if (atomic_set(&on, 1) == 0) {
    33da:	b933      	cbnz	r3, 33ea <z_nrf_clock_control_lf_on+0x2e>
 */
static inline void sys_notify_init_spinwait(struct sys_notify *notify)
{
	__ASSERT_NO_MSG(notify != NULL);

	*notify = (struct sys_notify){
    33dc:	4934      	ldr	r1, [pc, #208]	; (34b0 <z_nrf_clock_control_lf_on+0xf4>)
		err = onoff_request(mgr, &cli);
    33de:	4835      	ldr	r0, [pc, #212]	; (34b4 <z_nrf_clock_control_lf_on+0xf8>)
    33e0:	604b      	str	r3, [r1, #4]
    33e2:	60cb      	str	r3, [r1, #12]
    33e4:	608a      	str	r2, [r1, #8]
    33e6:	f004 fd90 	bl	7f0a <onoff_request>
	switch (start_mode) {
    33ea:	1e73      	subs	r3, r6, #1
    33ec:	2b01      	cmp	r3, #1
    33ee:	d832      	bhi.n	3456 <z_nrf_clock_control_lf_on+0x9a>
	if ((mode == CLOCK_CONTROL_NRF_LF_START_AVAILABLE) &&
    33f0:	2e01      	cmp	r6, #1
    33f2:	d107      	bne.n	3404 <z_nrf_clock_control_lf_on+0x48>
    return clk_src;
}

NRF_STATIC_INLINE nrf_clock_lfclk_t nrf_clock_lf_srccopy_get(NRF_CLOCK_Type const * p_reg)
{
    return (nrf_clock_lfclk_t)((p_reg->LFCLKSRCCOPY & CLOCK_LFCLKSRCCOPY_SRC_Msk)
    33f4:	f04f 4380 	mov.w	r3, #1073741824	; 0x40000000
    33f8:	f8d3 341c 	ldr.w	r3, [r3, #1052]	; 0x41c
    33fc:	f003 0303 	and.w	r3, r3, #3
	    (target_type == NRF_CLOCK_LFCLK_Xtal) &&
    3400:	2b01      	cmp	r3, #1
    3402:	d028      	beq.n	3456 <z_nrf_clock_control_lf_on+0x9a>
	bool isr_mode = k_is_in_isr() || k_is_pre_kernel();
    3404:	f005 fdd6 	bl	8fb4 <k_is_in_isr>
    3408:	4604      	mov	r4, r0
    340a:	b918      	cbnz	r0, 3414 <z_nrf_clock_control_lf_on+0x58>
 */
static inline bool k_is_pre_kernel(void)
{
	extern bool z_sys_post_kernel; /* in init.c */

	return !z_sys_post_kernel;
    340c:	4b2a      	ldr	r3, [pc, #168]	; (34b8 <z_nrf_clock_control_lf_on+0xfc>)
	int key = isr_mode ? irq_lock() : 0;
    340e:	781b      	ldrb	r3, [r3, #0]
    3410:	2b00      	cmp	r3, #0
    3412:	d144      	bne.n	349e <z_nrf_clock_control_lf_on+0xe2>
	__asm__ volatile(
    3414:	f04f 0320 	mov.w	r3, #32
    3418:	f3ef 8511 	mrs	r5, BASEPRI
    341c:	f383 8811 	msr	BASEPRI, r3
    3420:	f3bf 8f6f 	isb	sy
    3424:	2401      	movs	r4, #1
    return (bool)*((volatile uint32_t *)((uint8_t *)p_reg + event));
    3426:	4f25      	ldr	r7, [pc, #148]	; (34bc <z_nrf_clock_control_lf_on+0x100>)
 */
__STATIC_INLINE void __NVIC_ClearPendingIRQ(IRQn_Type IRQn)
{
  if ((int32_t)(IRQn) >= 0)
  {
    NVIC->ICPR[(((uint32_t)IRQn) >> 5UL)] = (uint32_t)(1UL << (((uint32_t)IRQn) & 0x1FUL));
    3428:	f8df 8094 	ldr.w	r8, [pc, #148]	; 34c0 <z_nrf_clock_control_lf_on+0x104>
    *((volatile uint32_t *)((uint8_t *)p_reg + (uint32_t)task)) = 0x1UL;
    342c:	f8df 9094 	ldr.w	r9, [pc, #148]	; 34c4 <z_nrf_clock_control_lf_on+0x108>
                    (nrf_clock_lfclk_t)((p_reg->LFCLKSTAT & CLOCK_LFCLKSTAT_SRC_Msk)
    3430:	f04f 4280 	mov.w	r2, #1073741824	; 0x40000000
    3434:	f8d2 3418 	ldr.w	r3, [r2, #1048]	; 0x418
            if ((p_reg->LFCLKSTAT & CLOCK_LFCLKSTAT_STATE_Msk)
    3438:	f8d2 2418 	ldr.w	r2, [r2, #1048]	; 0x418
    343c:	03d2      	lsls	r2, r2, #15
    343e:	d50c      	bpl.n	345a <z_nrf_clock_control_lf_on+0x9e>
                                        >> CLOCK_LFCLKSTAT_SRC_Pos);
    3440:	f003 0303 	and.w	r3, r3, #3
	while (!(nrfx_clock_is_running(d, (void *)&type)
    3444:	2b01      	cmp	r3, #1
    3446:	d001      	beq.n	344c <z_nrf_clock_control_lf_on+0x90>
		     || (mode == CLOCK_CONTROL_NRF_LF_START_AVAILABLE)))) {
    3448:	2e01      	cmp	r6, #1
    344a:	d106      	bne.n	345a <z_nrf_clock_control_lf_on+0x9e>
	if (isr_mode) {
    344c:	b30c      	cbz	r4, 3492 <z_nrf_clock_control_lf_on+0xd6>
	__asm__ volatile(
    344e:	f385 8811 	msr	BASEPRI, r5
    3452:	f3bf 8f6f 	isb	sy
}
    3456:	e8bd 83f8 	ldmia.w	sp!, {r3, r4, r5, r6, r7, r8, r9, pc}
			if (isr_mode) {
    345a:	b1ac      	cbz	r4, 3488 <z_nrf_clock_control_lf_on+0xcc>
 *
 * @return N/A
 */
static inline void k_cpu_atomic_idle(unsigned int key)
{
	arch_cpu_atomic_idle(key);
    345c:	4628      	mov	r0, r5
    345e:	f000 fac9 	bl	39f4 <arch_cpu_atomic_idle>
    return (nrf_clock_lfclk_t)(p_reg->LFCLKSRC);
    3462:	f04f 4280 	mov.w	r2, #1073741824	; 0x40000000
    3466:	f8d2 3518 	ldr.w	r3, [r2, #1304]	; 0x518
		if ((target_type ==  NRF_CLOCK_LFCLK_Xtal)
    346a:	2b00      	cmp	r3, #0
    346c:	d1e0      	bne.n	3430 <z_nrf_clock_control_lf_on+0x74>
    return (bool)*((volatile uint32_t *)((uint8_t *)p_reg + event));
    346e:	6839      	ldr	r1, [r7, #0]
		    && nrf_clock_event_check(NRF_CLOCK,
    3470:	2900      	cmp	r1, #0
    3472:	d0dd      	beq.n	3430 <z_nrf_clock_control_lf_on+0x74>
    *((volatile uint32_t *)((uint8_t *)p_reg + (uint32_t)event)) = 0x0UL;
    3474:	603b      	str	r3, [r7, #0]
#ifndef NRF_DECLARE_ONLY

NRF_STATIC_INLINE void nrf_event_readback(void * p_event_reg)
{
#if NRFX_CHECK(NRFX_EVENT_READBACK_ENABLED) && !defined(NRF51)
    (void)*((volatile uint32_t *)(p_event_reg));
    3476:	683b      	ldr	r3, [r7, #0]
    p_reg->LFCLKSRC = (uint32_t)(source);
    3478:	2301      	movs	r3, #1
    347a:	f8c2 3518 	str.w	r3, [r2, #1304]	; 0x518
    347e:	f8c8 3180 	str.w	r3, [r8, #384]	; 0x180
    *((volatile uint32_t *)((uint8_t *)p_reg + (uint32_t)task)) = 0x1UL;
    3482:	f8c9 3000 	str.w	r3, [r9]
}
    3486:	e7d3      	b.n	3430 <z_nrf_clock_control_lf_on+0x74>
	return z_impl_k_sleep(timeout);
    3488:	2100      	movs	r1, #0
    348a:	2021      	movs	r0, #33	; 0x21
    348c:	f003 fed8 	bl	7240 <z_impl_k_sleep>
	return k_sleep(Z_TIMEOUT_MS(ms));
    3490:	e7e7      	b.n	3462 <z_nrf_clock_control_lf_on+0xa6>
    p_reg->INTENSET = mask;
    3492:	f04f 4380 	mov.w	r3, #1073741824	; 0x40000000
    3496:	2202      	movs	r2, #2
    3498:	f8c3 2304 	str.w	r2, [r3, #772]	; 0x304
}
    349c:	e7db      	b.n	3456 <z_nrf_clock_control_lf_on+0x9a>
    p_reg->INTENCLR = mask;
    349e:	f04f 4380 	mov.w	r3, #1073741824	; 0x40000000
    34a2:	2202      	movs	r2, #2
    34a4:	f8c3 2308 	str.w	r2, [r3, #776]	; 0x308
	int key = isr_mode ? irq_lock() : 0;
    34a8:	4605      	mov	r5, r0
}
    34aa:	e7bc      	b.n	3426 <z_nrf_clock_control_lf_on+0x6a>
    34ac:	20000500 	.word	0x20000500
    34b0:	2000049c 	.word	0x2000049c
    34b4:	200004c8 	.word	0x200004c8
    34b8:	20000e9b 	.word	0x20000e9b
    34bc:	40000104 	.word	0x40000104
    34c0:	e000e100 	.word	0xe000e100
    34c4:	40000008 	.word	0x40000008

000034c8 <sys_clock_timeout_handler>:

static void sys_clock_timeout_handler(int32_t chan,
				      uint32_t cc_value,
				      void *user_data)
{
	uint32_t dticks = counter_sub(cc_value, last_count) / CYC_PER_TICK;
    34c8:	4a04      	ldr	r2, [pc, #16]	; (34dc <sys_clock_timeout_handler+0x14>)
    34ca:	6813      	ldr	r3, [r2, #0]
	return (a - b) & COUNTER_MAX;
    34cc:	1ac8      	subs	r0, r1, r3
    34ce:	f020 407f 	bic.w	r0, r0, #4278190080	; 0xff000000

	last_count += dticks * CYC_PER_TICK;
    34d2:	4403      	add	r3, r0
    34d4:	6013      	str	r3, [r2, #0]
		 */
		compare_set(chan, last_count + CYC_PER_TICK,
					  sys_clock_timeout_handler, NULL);
	}

	sys_clock_announce(IS_ENABLED(CONFIG_TICKLESS_KERNEL) ?
    34d6:	f004 bac5 	b.w	7a64 <sys_clock_announce>
    34da:	bf00      	nop
    34dc:	20000514 	.word	0x20000514

000034e0 <set_absolute_alarm>:
{
    34e0:	e92d 47f0 	stmdb	sp!, {r4, r5, r6, r7, r8, r9, sl, lr}
    34e4:	0086      	lsls	r6, r0, #2
    34e6:	f106 4680 	add.w	r6, r6, #1073741824	; 0x40000000
	nrf_rtc_event_clear(RTC, RTC_CHANNEL_EVENT_ADDR(chan));
    34ea:	f100 0450 	add.w	r4, r0, #80	; 0x50
    34ee:	f506 3688 	add.w	r6, r6, #69632	; 0x11000
    34f2:	00a4      	lsls	r4, r4, #2
    nrf_event_readback((uint8_t *)p_reg + (uint32_t)event);
}

NRF_STATIC_INLINE uint32_t nrf_rtc_counter_get(NRF_RTC_Type const * p_reg)
{
     return p_reg->COUNTER;
    34f4:	f8df 807c 	ldr.w	r8, [pc, #124]	; 3574 <set_absolute_alarm+0x94>
    return p_reg->CC[ch];
    34f8:	f8d6 3540 	ldr.w	r3, [r6, #1344]	; 0x540
    *((volatile uint32_t *)((uint8_t *)p_reg + (uint32_t)event)) = 0;
    34fc:	b2a4      	uxth	r4, r4
    34fe:	f104 4480 	add.w	r4, r4, #1073741824	; 0x40000000
	nrf_rtc_event_enable(RTC, RTC_CHANNEL_INT_MASK(chan));
    3502:	f44f 3780 	mov.w	r7, #65536	; 0x10000
	uint32_t cc_val = abs_val & COUNTER_MAX;
    3506:	f021 457f 	bic.w	r5, r1, #4278190080	; 0xff000000
    350a:	f504 3488 	add.w	r4, r4, #69632	; 0x11000
	nrf_rtc_event_enable(RTC, RTC_CHANNEL_INT_MASK(chan));
    350e:	4087      	lsls	r7, r0
    3510:	46c1      	mov	r9, r8
     return p_reg->COUNTER;
    3512:	f8d8 a504 	ldr.w	sl, [r8, #1284]	; 0x504
	return (a - b) & COUNTER_MAX;
    3516:	eba3 030a 	sub.w	r3, r3, sl
    351a:	f023 437f 	bic.w	r3, r3, #4278190080	; 0xff000000
	nrf_rtc_cc_set(RTC, chan, cyc & COUNTER_MAX);
    351e:	f02a 427f 	bic.w	r2, sl, #4278190080	; 0xff000000
		if (counter_sub(prev_cc, now) == 1) {
    3522:	2b01      	cmp	r3, #1
    p_reg->CC[ch] = cc_val;
    3524:	f8c6 2540 	str.w	r2, [r6, #1344]	; 0x540
    3528:	d102      	bne.n	3530 <set_absolute_alarm+0x50>
	z_impl_k_busy_wait(usec_to_wait);
    352a:	2013      	movs	r0, #19
    352c:	f005 fd48 	bl	8fc0 <z_impl_k_busy_wait>
		if (counter_sub(cc_val, now + 2) > COUNTER_HALF_SPAN) {
    3530:	f10a 0202 	add.w	r2, sl, #2
	return (a - b) & COUNTER_MAX;
    3534:	1aab      	subs	r3, r5, r2
    3536:	f023 437f 	bic.w	r3, r3, #4278190080	; 0xff000000
			cc_val = now + 2;
    353a:	f5b3 0f00 	cmp.w	r3, #8388608	; 0x800000
    353e:	bf88      	it	hi
    3540:	4615      	movhi	r5, r2
    *((volatile uint32_t *)((uint8_t *)p_reg + (uint32_t)event)) = 0;
    3542:	2300      	movs	r3, #0
    3544:	6023      	str	r3, [r4, #0]
    3546:	6823      	ldr	r3, [r4, #0]
    *(__IO uint32_t *)((uint32_t)p_reg + task) = 1;
}

NRF_STATIC_INLINE void nrf_rtc_event_enable(NRF_RTC_Type * p_reg, uint32_t mask)
{
    p_reg->EVTENSET = mask;
    3548:	f8c9 7344 	str.w	r7, [r9, #836]	; 0x344
	nrf_rtc_cc_set(RTC, chan, cyc & COUNTER_MAX);
    354c:	f025 437f 	bic.w	r3, r5, #4278190080	; 0xff000000
    p_reg->CC[ch] = cc_val;
    3550:	f8c6 3540 	str.w	r3, [r6, #1344]	; 0x540
     return p_reg->COUNTER;
    3554:	f8d9 3504 	ldr.w	r3, [r9, #1284]	; 0x504
		 (counter_sub(cc_val, now2 + 2) > COUNTER_HALF_SPAN));
    3558:	459a      	cmp	sl, r3
    355a:	d006      	beq.n	356a <set_absolute_alarm+0x8a>
	return (a - b) & COUNTER_MAX;
    355c:	1aeb      	subs	r3, r5, r3
    355e:	3b02      	subs	r3, #2
    3560:	f023 437f 	bic.w	r3, r3, #4278190080	; 0xff000000
	} while ((now2 != now) &&
    3564:	f5b3 0f00 	cmp.w	r3, #8388608	; 0x800000
    3568:	d801      	bhi.n	356e <set_absolute_alarm+0x8e>
}
    356a:	e8bd 87f0 	ldmia.w	sp!, {r4, r5, r6, r7, r8, r9, sl, pc}
		prev_cc = cc_val;
    356e:	462b      	mov	r3, r5
    3570:	e7cf      	b.n	3512 <set_absolute_alarm+0x32>
    3572:	bf00      	nop
    3574:	40011000 	.word	0x40011000

00003578 <rtc_nrf_isr>:
 * probably better abstract that at some point (e.g. query and reset
 * it by pointer at runtime, maybe?) so we don't have this leaky
 * symbol.
 */
void rtc_nrf_isr(const void *arg)
{
    3578:	b5f8      	push	{r3, r4, r5, r6, r7, lr}
    return p_reg->INTENSET & mask;
    357a:	4e10      	ldr	r6, [pc, #64]	; (35bc <rtc_nrf_isr+0x44>)
    return (bool)*(volatile uint32_t *)((uint8_t *)p_reg + (uint32_t)event);
    357c:	4f10      	ldr	r7, [pc, #64]	; (35c0 <rtc_nrf_isr+0x48>)
	ARG_UNUSED(arg);

	for (int32_t chan = 0; chan < CHAN_COUNT; chan++) {
    357e:	2500      	movs	r5, #0
    3580:	4b10      	ldr	r3, [pc, #64]	; (35c4 <rtc_nrf_isr+0x4c>)
    3582:	2000      	movs	r0, #0
    3584:	681c      	ldr	r4, [r3, #0]
    3586:	461a      	mov	r2, r3
    3588:	b105      	cbz	r5, 358c <rtc_nrf_isr+0x14>
				handler(chan, cc_val,
					cc_data[chan].user_context);
			}
		}
	}
}
    358a:	bdf8      	pop	{r3, r4, r5, r6, r7, pc}
    return p_reg->INTENSET & mask;
    358c:	f8d6 1304 	ldr.w	r1, [r6, #772]	; 0x304
		if (nrf_rtc_int_enable_check(RTC, RTC_CHANNEL_INT_MASK(chan)) &&
    3590:	03c9      	lsls	r1, r1, #15
    3592:	d5fa      	bpl.n	358a <rtc_nrf_isr+0x12>
    return (bool)*(volatile uint32_t *)((uint8_t *)p_reg + (uint32_t)event);
    3594:	6839      	ldr	r1, [r7, #0]
    3596:	2900      	cmp	r1, #0
    3598:	d0f7      	beq.n	358a <rtc_nrf_isr+0x12>
    *((volatile uint32_t *)((uint8_t *)p_reg + (uint32_t)event)) = 0;
    359a:	603d      	str	r5, [r7, #0]
    359c:	6839      	ldr	r1, [r7, #0]
}

NRF_STATIC_INLINE void nrf_rtc_event_disable(NRF_RTC_Type * p_reg, uint32_t mask)
{
    p_reg->EVTENCLR = mask;
    359e:	f44f 3180 	mov.w	r1, #65536	; 0x10000
    35a2:	f8c6 1348 	str.w	r1, [r6, #840]	; 0x348
    return p_reg->CC[ch];
    35a6:	f8d6 1540 	ldr.w	r1, [r6, #1344]	; 0x540
	for (int32_t chan = 0; chan < CHAN_COUNT; chan++) {
    35aa:	2501      	movs	r5, #1
			if (handler) {
    35ac:	b11c      	cbz	r4, 35b6 <rtc_nrf_isr+0x3e>
				handler(chan, cc_val,
    35ae:	685a      	ldr	r2, [r3, #4]
    35b0:	6018      	str	r0, [r3, #0]
    35b2:	47a0      	blx	r4
    35b4:	e7e4      	b.n	3580 <rtc_nrf_isr+0x8>
    35b6:	6014      	str	r4, [r2, #0]
}
    35b8:	e7e7      	b.n	358a <rtc_nrf_isr+0x12>
    35ba:	bf00      	nop
    35bc:	40011000 	.word	0x40011000
    35c0:	40011140 	.word	0x40011140
    35c4:	20000508 	.word	0x20000508

000035c8 <sys_clock_driver_init>:

	atomic_or(&alloc_mask, BIT(chan));
}

int sys_clock_driver_init(const struct device *dev)
{
    35c8:	b538      	push	{r3, r4, r5, lr}
    p_reg->PRESCALER = val;
    35ca:	4d10      	ldr	r5, [pc, #64]	; (360c <sys_clock_driver_init+0x44>)
    35cc:	2400      	movs	r4, #0
    p_reg->INTENSET = mask;
    35ce:	f44f 3380 	mov.w	r3, #65536	; 0x10000
    p_reg->PRESCALER = val;
    35d2:	f8c5 4508 	str.w	r4, [r5, #1288]	; 0x508
    p_reg->INTENSET = mask;
    35d6:	f8c5 3304 	str.w	r3, [r5, #772]	; 0x304
    35da:	4b0d      	ldr	r3, [pc, #52]	; (3610 <sys_clock_driver_init+0x48>)
    35dc:	f44f 3200 	mov.w	r2, #131072	; 0x20000
    35e0:	f8c3 2180 	str.w	r2, [r3, #384]	; 0x180
		nrf_rtc_int_enable(RTC, RTC_CHANNEL_INT_MASK(chan));
	}

	NVIC_ClearPendingIRQ(RTC_IRQn);

	IRQ_CONNECT(RTC_IRQn, DT_IRQ(DT_NODELABEL(RTC_LABEL), priority),
    35e4:	2101      	movs	r1, #1
    35e6:	4622      	mov	r2, r4
    35e8:	2011      	movs	r0, #17
    35ea:	f000 f9a3 	bl	3934 <z_arm_irq_priority_set>
		    rtc_nrf_isr, 0, 0);
	irq_enable(RTC_IRQn);
    35ee:	2011      	movs	r0, #17
    35f0:	f000 f982 	bl	38f8 <arch_irq_enable>
    *(__IO uint32_t *)((uint32_t)p_reg + task) = 1;
    35f4:	4a07      	ldr	r2, [pc, #28]	; (3614 <sys_clock_driver_init+0x4c>)
    35f6:	2301      	movs	r3, #1
    35f8:	6013      	str	r3, [r2, #0]

	nrf_rtc_task_trigger(RTC, NRF_RTC_TASK_CLEAR);
	nrf_rtc_task_trigger(RTC, NRF_RTC_TASK_START);

	int_mask = BIT_MASK(CHAN_COUNT);
    35fa:	4a07      	ldr	r2, [pc, #28]	; (3618 <sys_clock_driver_init+0x50>)
    35fc:	602b      	str	r3, [r5, #0]
	if (!IS_ENABLED(CONFIG_TICKLESS_KERNEL)) {
		compare_set(0, counter() + CYC_PER_TICK,
			    sys_clock_timeout_handler, NULL);
	}

	z_nrf_clock_control_lf_on(mode);
    35fe:	2002      	movs	r0, #2
	int_mask = BIT_MASK(CHAN_COUNT);
    3600:	6013      	str	r3, [r2, #0]
	z_nrf_clock_control_lf_on(mode);
    3602:	f7ff fedb 	bl	33bc <z_nrf_clock_control_lf_on>

	return 0;
}
    3606:	4620      	mov	r0, r4
    3608:	bd38      	pop	{r3, r4, r5, pc}
    360a:	bf00      	nop
    360c:	40011000 	.word	0x40011000
    3610:	e000e100 	.word	0xe000e100
    3614:	40011008 	.word	0x40011008
    3618:	20000510 	.word	0x20000510

0000361c <sys_clock_set_timeout>:

	if (!IS_ENABLED(CONFIG_TICKLESS_KERNEL)) {
		return;
	}

	ticks = (ticks == K_TICKS_FOREVER) ? MAX_TICKS : ticks;
    361c:	4b13      	ldr	r3, [pc, #76]	; (366c <sys_clock_set_timeout+0x50>)
    361e:	f1b0 3fff 	cmp.w	r0, #4294967295	; 0xffffffff
    3622:	bf08      	it	eq
    3624:	4618      	moveq	r0, r3
	ticks = CLAMP(ticks - 1, 0, (int32_t)MAX_TICKS);
    3626:	3801      	subs	r0, #1
    3628:	2800      	cmp	r0, #0
    362a:	dd1c      	ble.n	3666 <sys_clock_set_timeout+0x4a>
    362c:	4298      	cmp	r0, r3
    362e:	bfa8      	it	ge
    3630:	4618      	movge	r0, r3
     return p_reg->COUNTER;
    3632:	4b0f      	ldr	r3, [pc, #60]	; (3670 <sys_clock_set_timeout+0x54>)
    3634:	f8d3 2504 	ldr.w	r2, [r3, #1284]	; 0x504

	uint32_t unannounced = counter_sub(counter(), last_count);
    3638:	4b0e      	ldr	r3, [pc, #56]	; (3674 <sys_clock_set_timeout+0x58>)
    363a:	6819      	ldr	r1, [r3, #0]
	return (a - b) & COUNTER_MAX;
    363c:	1a52      	subs	r2, r2, r1
	 * duration, then force an announce to avoid loss of a wrap
	 * event.  This can happen if new timeouts keep being set
	 * before the existing one triggers the interrupt.
	 */
	if (unannounced >= COUNTER_HALF_SPAN) {
		ticks = 0;
    363e:	f412 0f00 	tst.w	r2, #8388608	; 0x800000
	return (a - b) & COUNTER_MAX;
    3642:	f022 437f 	bic.w	r3, r2, #4278190080	; 0xff000000
		ticks = 0;
    3646:	bf18      	it	ne
    3648:	2000      	movne	r0, #0
	cc_data[chan].callback = handler;
    364a:	4a0b      	ldr	r2, [pc, #44]	; (3678 <sys_clock_set_timeout+0x5c>)
	}

	/* Get the cycles from last_count to the tick boundary after
	 * the requested ticks have passed starting now.
	 */
	cyc = ticks * CYC_PER_TICK + 1 + unannounced;
    364c:	3301      	adds	r3, #1
    364e:	4403      	add	r3, r0
	cc_data[chan].callback = handler;
    3650:	480a      	ldr	r0, [pc, #40]	; (367c <sys_clock_set_timeout+0x60>)
    3652:	6010      	str	r0, [r2, #0]
	cc_data[chan].user_context = user_data;
    3654:	2000      	movs	r0, #0
    3656:	6050      	str	r0, [r2, #4]
	set_absolute_alarm(chan, cc_value);
    3658:	4a04      	ldr	r2, [pc, #16]	; (366c <sys_clock_set_timeout+0x50>)
    365a:	4293      	cmp	r3, r2
    365c:	bf94      	ite	ls
    365e:	18c9      	addls	r1, r1, r3
    3660:	1889      	addhi	r1, r1, r2
    3662:	f7ff bf3d 	b.w	34e0 <set_absolute_alarm>
	ticks = CLAMP(ticks - 1, 0, (int32_t)MAX_TICKS);
    3666:	2000      	movs	r0, #0
    3668:	e7e3      	b.n	3632 <sys_clock_set_timeout+0x16>
    366a:	bf00      	nop
    366c:	007fffff 	.word	0x007fffff
    3670:	40011000 	.word	0x40011000
    3674:	20000514 	.word	0x20000514
    3678:	20000508 	.word	0x20000508
    367c:	000034c9 	.word	0x000034c9

00003680 <sys_clock_elapsed>:
	__asm__ volatile(
    3680:	f04f 0220 	mov.w	r2, #32
    3684:	f3ef 8311 	mrs	r3, BASEPRI
    3688:	f382 8811 	msr	BASEPRI, r2
    368c:	f3bf 8f6f 	isb	sy
    3690:	4a06      	ldr	r2, [pc, #24]	; (36ac <sys_clock_elapsed+0x2c>)
    3692:	f8d2 0504 	ldr.w	r0, [r2, #1284]	; 0x504
	if (!IS_ENABLED(CONFIG_TICKLESS_KERNEL)) {
		return 0;
	}

	k_spinlock_key_t key = k_spin_lock(&lock);
	uint32_t ret = counter_sub(counter(), last_count) / CYC_PER_TICK;
    3696:	4a06      	ldr	r2, [pc, #24]	; (36b0 <sys_clock_elapsed+0x30>)
	return (a - b) & COUNTER_MAX;
    3698:	6812      	ldr	r2, [r2, #0]
    369a:	1a80      	subs	r0, r0, r2
    369c:	f020 407f 	bic.w	r0, r0, #4278190080	; 0xff000000
	__asm__ volatile(
    36a0:	f383 8811 	msr	BASEPRI, r3
    36a4:	f3bf 8f6f 	isb	sy

	k_spin_unlock(&lock, key);
	return ret;
}
    36a8:	4770      	bx	lr
    36aa:	bf00      	nop
    36ac:	40011000 	.word	0x40011000
    36b0:	20000514 	.word	0x20000514

000036b4 <sys_clock_cycle_get_32>:
	__asm__ volatile(
    36b4:	f04f 0320 	mov.w	r3, #32
    36b8:	f3ef 8211 	mrs	r2, BASEPRI
    36bc:	f383 8811 	msr	BASEPRI, r3
    36c0:	f3bf 8f6f 	isb	sy

uint32_t sys_clock_cycle_get_32(void)
{
	k_spinlock_key_t key = k_spin_lock(&lock);
	uint32_t ret = counter_sub(counter(), last_count) + last_count;
    36c4:	4906      	ldr	r1, [pc, #24]	; (36e0 <sys_clock_cycle_get_32+0x2c>)
    36c6:	4b07      	ldr	r3, [pc, #28]	; (36e4 <sys_clock_cycle_get_32+0x30>)
    36c8:	6808      	ldr	r0, [r1, #0]
    36ca:	f8d3 3504 	ldr.w	r3, [r3, #1284]	; 0x504
	__asm__ volatile(
    36ce:	f382 8811 	msr	BASEPRI, r2
    36d2:	f3bf 8f6f 	isb	sy
	return (a - b) & COUNTER_MAX;
    36d6:	1a1b      	subs	r3, r3, r0
    36d8:	f023 437f 	bic.w	r3, r3, #4278190080	; 0xff000000

	k_spin_unlock(&lock, key);
	return ret;
}
    36dc:	4418      	add	r0, r3
    36de:	4770      	bx	lr
    36e0:	20000514 	.word	0x20000514
    36e4:	40011000 	.word	0x40011000

000036e8 <_DoInit>:
*
*/
#define INIT()  do {                                            \
                  if (_SEGGER_RTT.acID[0] == '\0') { _DoInit(); }  \
                } while (0)
static void _DoInit(void) {
    36e8:	b510      	push	{r4, lr}
  SEGGER_RTT_CB* p;
  //
  // Initialize control block
  //
  p = &_SEGGER_RTT;
  p->MaxNumUpBuffers    = SEGGER_RTT_MAX_NUM_UP_BUFFERS;
    36ea:	4c11      	ldr	r4, [pc, #68]	; (3730 <_DoInit+0x48>)
  p->MaxNumDownBuffers  = SEGGER_RTT_MAX_NUM_DOWN_BUFFERS;
  //
  // Initialize up buffer 0
  //
  p->aUp[0].sName         = "Terminal";
    36ec:	4a11      	ldr	r2, [pc, #68]	; (3734 <_DoInit+0x4c>)
    36ee:	61a2      	str	r2, [r4, #24]
  p->MaxNumUpBuffers    = SEGGER_RTT_MAX_NUM_UP_BUFFERS;
    36f0:	2303      	movs	r3, #3
  p->MaxNumDownBuffers  = SEGGER_RTT_MAX_NUM_DOWN_BUFFERS;
    36f2:	e9c4 3304 	strd	r3, r3, [r4, #16]
  p->aUp[0].pBuffer       = _acUpBuffer;
    36f6:	4b10      	ldr	r3, [pc, #64]	; (3738 <_DoInit+0x50>)
    36f8:	61e3      	str	r3, [r4, #28]
  p->aUp[0].WrOff         = 0u;
  p->aUp[0].Flags         = SEGGER_RTT_MODE_DEFAULT;
  //
  // Initialize down buffer 0
  //
  p->aDown[0].sName         = "Terminal";
    36fa:	6622      	str	r2, [r4, #96]	; 0x60
  p->aUp[0].SizeOfBuffer  = sizeof(_acUpBuffer);
    36fc:	f44f 6380 	mov.w	r3, #1024	; 0x400
  p->aDown[0].pBuffer       = _acDownBuffer;
    3700:	4a0e      	ldr	r2, [pc, #56]	; (373c <_DoInit+0x54>)
  //
  // Finish initialization of the control block.
  // Copy Id string in three steps to make sure "SEGGER RTT" is not found
  // in initializer memory (usually flash) by J-Link
  //
  strcpy(&p->acID[7], "RTT");
    3702:	490f      	ldr	r1, [pc, #60]	; (3740 <_DoInit+0x58>)
  p->aUp[0].SizeOfBuffer  = sizeof(_acUpBuffer);
    3704:	6223      	str	r3, [r4, #32]
  p->aDown[0].pBuffer       = _acDownBuffer;
    3706:	6662      	str	r2, [r4, #100]	; 0x64
  p->aUp[0].RdOff         = 0u;
    3708:	2300      	movs	r3, #0
  p->aDown[0].SizeOfBuffer  = sizeof(_acDownBuffer);
    370a:	2210      	movs	r2, #16
  strcpy(&p->acID[7], "RTT");
    370c:	1de0      	adds	r0, r4, #7
  p->aUp[0].RdOff         = 0u;
    370e:	62a3      	str	r3, [r4, #40]	; 0x28
  p->aUp[0].WrOff         = 0u;
    3710:	6263      	str	r3, [r4, #36]	; 0x24
  p->aUp[0].Flags         = SEGGER_RTT_MODE_DEFAULT;
    3712:	62e3      	str	r3, [r4, #44]	; 0x2c
  p->aDown[0].RdOff         = 0u;
    3714:	6723      	str	r3, [r4, #112]	; 0x70
  p->aDown[0].WrOff         = 0u;
    3716:	66e3      	str	r3, [r4, #108]	; 0x6c
  p->aDown[0].Flags         = SEGGER_RTT_MODE_DEFAULT;
    3718:	6763      	str	r3, [r4, #116]	; 0x74
  p->aDown[0].SizeOfBuffer  = sizeof(_acDownBuffer);
    371a:	66a2      	str	r2, [r4, #104]	; 0x68
  strcpy(&p->acID[7], "RTT");
    371c:	f005 fd0e 	bl	913c <strcpy>
  strcpy(&p->acID[0], "SEGGER");
    3720:	4908      	ldr	r1, [pc, #32]	; (3744 <_DoInit+0x5c>)
    3722:	4620      	mov	r0, r4
    3724:	f005 fd0a 	bl	913c <strcpy>
  p->acID[6] = ' ';
    3728:	2320      	movs	r3, #32
    372a:	71a3      	strb	r3, [r4, #6]
}
    372c:	bd10      	pop	{r4, pc}
    372e:	bf00      	nop
    3730:	20000518 	.word	0x20000518
    3734:	0000989a 	.word	0x0000989a
    3738:	20000999 	.word	0x20000999
    373c:	20000989 	.word	0x20000989
    3740:	000098a3 	.word	0x000098a3
    3744:	000098a7 	.word	0x000098a7

00003748 <SEGGER_RTT_WriteSkipNoLock>:
*    (2) For performance reasons this function does not call Init()
*        and may only be called after RTT has been initialized.
*        Either by calling SEGGER_RTT_Init() or calling another RTT API function first.
*/
#if (RTT_USE_ASM == 0)
unsigned SEGGER_RTT_WriteSkipNoLock(unsigned BufferIndex, const void* pBuffer, unsigned NumBytes) {
    3748:	e92d 4ff8 	stmdb	sp!, {r3, r4, r5, r6, r7, r8, r9, sl, fp, lr}
  //
  // 1) is the most common case for large buffers and assuming that J-Link reads the data fast enough
  //
  pData = (const char *)pBuffer;
  pRing = &_SEGGER_RTT.aUp[BufferIndex];
  RdOff = pRing->RdOff;
    374c:	4f23      	ldr	r7, [pc, #140]	; (37dc <SEGGER_RTT_WriteSkipNoLock+0x94>)
    374e:	f04f 0b18 	mov.w	fp, #24
unsigned SEGGER_RTT_WriteSkipNoLock(unsigned BufferIndex, const void* pBuffer, unsigned NumBytes) {
    3752:	4614      	mov	r4, r2
  RdOff = pRing->RdOff;
    3754:	fb0b 7200 	mla	r2, fp, r0, r7
unsigned SEGGER_RTT_WriteSkipNoLock(unsigned BufferIndex, const void* pBuffer, unsigned NumBytes) {
    3758:	4606      	mov	r6, r0
  RdOff = pRing->RdOff;
    375a:	6a93      	ldr	r3, [r2, #40]	; 0x28
  WrOff = pRing->WrOff;
    375c:	6a55      	ldr	r5, [r2, #36]	; 0x24
  if (RdOff <= WrOff) {                                 // Case 1), 2) or 3)
    375e:	42ab      	cmp	r3, r5
unsigned SEGGER_RTT_WriteSkipNoLock(unsigned BufferIndex, const void* pBuffer, unsigned NumBytes) {
    3760:	4688      	mov	r8, r1
  if (RdOff <= WrOff) {                                 // Case 1), 2) or 3)
    3762:	d834      	bhi.n	37ce <SEGGER_RTT_WriteSkipNoLock+0x86>
    Avail = pRing->SizeOfBuffer - WrOff - 1u;           // Space until wrap-around (assume 1 byte not usable for case that RdOff == 0)
    3764:	f8d2 a020 	ldr.w	sl, [r2, #32]
    3768:	ebaa 0905 	sub.w	r9, sl, r5
    376c:	f109 32ff 	add.w	r2, r9, #4294967295	; 0xffffffff
    if (Avail >= NumBytes) {                            // Case 1)?
    3770:	4294      	cmp	r4, r2
    3772:	d811      	bhi.n	3798 <SEGGER_RTT_WriteSkipNoLock+0x50>
CopyStraight:
      memcpy(pRing->pBuffer + WrOff, pData, NumBytes);
    3774:	f04f 0918 	mov.w	r9, #24
    3778:	fb06 9309 	mla	r3, r6, r9, r9
    377c:	443b      	add	r3, r7
__ssp_bos_icheck3_restrict(memcpy, void *, const void *)
    377e:	4622      	mov	r2, r4
    3780:	6858      	ldr	r0, [r3, #4]
    3782:	4641      	mov	r1, r8
    3784:	4428      	add	r0, r5
    3786:	f005 fcc3 	bl	9110 <memcpy>
      pRing->WrOff = WrOff + NumBytes;
    378a:	fb09 7606 	mla	r6, r9, r6, r7
    378e:	442c      	add	r4, r5
      // Therefore, check if 2nd memcpy is necessary at all
      //
      if (NumBytes) {
        memcpy(pRing->pBuffer, pData + Rem, NumBytes);
      }
      pRing->WrOff = NumBytes;
    3790:	6274      	str	r4, [r6, #36]	; 0x24
      return 1;
    3792:	2001      	movs	r0, #1
    if (Avail >= NumBytes) {                           // Case 4)? => If not, we have case 5) (does not fit)
      goto CopyStraight;
    }
  }
  return 0;     // No space in buffer
}
    3794:	e8bd 8ff8 	ldmia.w	sp!, {r3, r4, r5, r6, r7, r8, r9, sl, fp, pc}
    Avail += RdOff;                                     // Space incl. wrap-around
    3798:	4413      	add	r3, r2
    if (Avail >= NumBytes) {                            // Case 2? => If not, we have case 3) (does not fit)
    379a:	429c      	cmp	r4, r3
    379c:	d81b      	bhi.n	37d6 <SEGGER_RTT_WriteSkipNoLock+0x8e>
      memcpy(pRing->pBuffer + WrOff, pData, Rem);       // Copy 1st chunk
    379e:	fb00 bb0b 	mla	fp, r0, fp, fp
    37a2:	44bb      	add	fp, r7
    37a4:	464a      	mov	r2, r9
    37a6:	f8db 0004 	ldr.w	r0, [fp, #4]
    37aa:	442c      	add	r4, r5
    37ac:	4428      	add	r0, r5
    37ae:	f005 fcaf 	bl	9110 <memcpy>
      if (NumBytes) {
    37b2:	ebb4 040a 	subs.w	r4, r4, sl
    37b6:	d006      	beq.n	37c6 <SEGGER_RTT_WriteSkipNoLock+0x7e>
    37b8:	f8db 0004 	ldr.w	r0, [fp, #4]
    37bc:	4622      	mov	r2, r4
    37be:	eb08 0109 	add.w	r1, r8, r9
    37c2:	f005 fca5 	bl	9110 <memcpy>
      pRing->WrOff = NumBytes;
    37c6:	2018      	movs	r0, #24
    37c8:	fb00 7606 	mla	r6, r0, r6, r7
    37cc:	e7e0      	b.n	3790 <SEGGER_RTT_WriteSkipNoLock+0x48>
    Avail = RdOff - WrOff - 1u;
    37ce:	3b01      	subs	r3, #1
    37d0:	1b5b      	subs	r3, r3, r5
    if (Avail >= NumBytes) {                           // Case 4)? => If not, we have case 5) (does not fit)
    37d2:	42a3      	cmp	r3, r4
    37d4:	d2ce      	bcs.n	3774 <SEGGER_RTT_WriteSkipNoLock+0x2c>
  return 0;     // No space in buffer
    37d6:	2000      	movs	r0, #0
    37d8:	e7dc      	b.n	3794 <SEGGER_RTT_WriteSkipNoLock+0x4c>
    37da:	bf00      	nop
    37dc:	20000518 	.word	0x20000518

000037e0 <SEGGER_RTT_WriteNoLock>:
*    (1) Data is stored according to buffer flags.
*    (2) For performance reasons this function does not call Init()
*        and may only be called after RTT has been initialized.
*        Either by calling SEGGER_RTT_Init() or calling another RTT API function first.
*/
unsigned SEGGER_RTT_WriteNoLock(unsigned BufferIndex, const void* pBuffer, unsigned NumBytes) {
    37e0:	b5f8      	push	{r3, r4, r5, r6, r7, lr}

  pData = (const char *)pBuffer;
  //
  // Get "to-host" ring buffer.
  //
  pRing = &_SEGGER_RTT.aUp[BufferIndex];
    37e2:	4c18      	ldr	r4, [pc, #96]	; (3844 <SEGGER_RTT_WriteNoLock+0x64>)
    37e4:	2318      	movs	r3, #24
    37e6:	fb00 3503 	mla	r5, r0, r3, r3
  //
  // How we output depends upon the mode...
  //
  switch (pRing->Flags) {
    37ea:	fb03 4000 	mla	r0, r3, r0, r4
  pRing = &_SEGGER_RTT.aUp[BufferIndex];
    37ee:	4425      	add	r5, r4
  switch (pRing->Flags) {
    37f0:	6ac4      	ldr	r4, [r0, #44]	; 0x2c
    37f2:	2c01      	cmp	r4, #1
unsigned SEGGER_RTT_WriteNoLock(unsigned BufferIndex, const void* pBuffer, unsigned NumBytes) {
    37f4:	460f      	mov	r7, r1
    37f6:	4616      	mov	r6, r2
  switch (pRing->Flags) {
    37f8:	d00f      	beq.n	381a <SEGGER_RTT_WriteNoLock+0x3a>
    37fa:	2c02      	cmp	r4, #2
    37fc:	d01a      	beq.n	3834 <SEGGER_RTT_WriteNoLock+0x54>
    37fe:	b9f4      	cbnz	r4, 383e <SEGGER_RTT_WriteNoLock+0x5e>
  case SEGGER_RTT_MODE_NO_BLOCK_SKIP:
    //
    // If we are in skip mode and there is no space for the whole
    // of this output, don't bother.
    //
    Avail = _GetAvailWriteSpace(pRing);
    3800:	4628      	mov	r0, r5
    3802:	f004 ff9b 	bl	873c <_GetAvailWriteSpace>
    if (Avail < NumBytes) {
    3806:	4286      	cmp	r6, r0
    3808:	d805      	bhi.n	3816 <SEGGER_RTT_WriteNoLock+0x36>
      Status = 0u;
    } else {
      Status = NumBytes;
      _WriteNoCheck(pRing, pData, NumBytes);
    380a:	4632      	mov	r2, r6
    380c:	4639      	mov	r1, r7
    380e:	4628      	mov	r0, r5
    3810:	f004 ffa2 	bl	8758 <_WriteNoCheck>
    3814:	4634      	mov	r4, r6
  }
  //
  // Finish up.
  //
  return Status;
}
    3816:	4620      	mov	r0, r4
    3818:	bdf8      	pop	{r3, r4, r5, r6, r7, pc}
    Avail = _GetAvailWriteSpace(pRing);
    381a:	4628      	mov	r0, r5
    381c:	f004 ff8e 	bl	873c <_GetAvailWriteSpace>
    Status = Avail < NumBytes ? Avail : NumBytes;
    3820:	4286      	cmp	r6, r0
    3822:	4634      	mov	r4, r6
    3824:	bf28      	it	cs
    3826:	4604      	movcs	r4, r0
    _WriteNoCheck(pRing, pData, Status);
    3828:	4622      	mov	r2, r4
    382a:	4639      	mov	r1, r7
    382c:	4628      	mov	r0, r5
    382e:	f004 ff93 	bl	8758 <_WriteNoCheck>
    break;
    3832:	e7f0      	b.n	3816 <SEGGER_RTT_WriteNoLock+0x36>
    Status = _WriteBlocking(pRing, pData, NumBytes);
    3834:	4628      	mov	r0, r5
}
    3836:	e8bd 40f8 	ldmia.w	sp!, {r3, r4, r5, r6, r7, lr}
    Status = _WriteBlocking(pRing, pData, NumBytes);
    383a:	f004 bfa9 	b.w	8790 <_WriteBlocking>
  switch (pRing->Flags) {
    383e:	2400      	movs	r4, #0
  return Status;
    3840:	e7e9      	b.n	3816 <SEGGER_RTT_WriteNoLock+0x36>
    3842:	bf00      	nop
    3844:	20000518 	.word	0x20000518

00003848 <SEGGER_RTT_HasDataUp>:
unsigned SEGGER_RTT_HasDataUp(unsigned BufferIndex) {
  SEGGER_RTT_BUFFER_UP* pRing;
  unsigned                v;

  pRing = &_SEGGER_RTT.aUp[BufferIndex];
  v = pRing->RdOff;
    3848:	4b03      	ldr	r3, [pc, #12]	; (3858 <SEGGER_RTT_HasDataUp+0x10>)
    384a:	2218      	movs	r2, #24
    384c:	fb02 3300 	mla	r3, r2, r0, r3
    3850:	6a9a      	ldr	r2, [r3, #40]	; 0x28
  return pRing->WrOff - v;
    3852:	6a58      	ldr	r0, [r3, #36]	; 0x24
}
    3854:	1a80      	subs	r0, r0, r2
    3856:	4770      	bx	lr
    3858:	20000518 	.word	0x20000518

0000385c <arch_swap>:
 * as BASEPRI is not available.
 */
int arch_swap(unsigned int key)
{
	/* store off key and return value */
	_current->arch.basepri = key;
    385c:	4a09      	ldr	r2, [pc, #36]	; (3884 <arch_swap+0x28>)
	_current->arch.swap_return_value = _k_neg_eagain;
    385e:	490a      	ldr	r1, [pc, #40]	; (3888 <arch_swap+0x2c>)
	_current->arch.basepri = key;
    3860:	6893      	ldr	r3, [r2, #8]
	_current->arch.swap_return_value = _k_neg_eagain;
    3862:	6809      	ldr	r1, [r1, #0]
    3864:	6799      	str	r1, [r3, #120]	; 0x78

#if defined(CONFIG_CPU_CORTEX_M)
	/* set pending bit to make sure we will take a PendSV exception */
	SCB->ICSR |= SCB_ICSR_PENDSVSET_Msk;
    3866:	4909      	ldr	r1, [pc, #36]	; (388c <arch_swap+0x30>)
	_current->arch.basepri = key;
    3868:	6758      	str	r0, [r3, #116]	; 0x74
	SCB->ICSR |= SCB_ICSR_PENDSVSET_Msk;
    386a:	684b      	ldr	r3, [r1, #4]
    386c:	f043 5380 	orr.w	r3, r3, #268435456	; 0x10000000
    3870:	604b      	str	r3, [r1, #4]
    3872:	2300      	movs	r3, #0
    3874:	f383 8811 	msr	BASEPRI, r3
    3878:	f3bf 8f6f 	isb	sy
#endif

	/* Context switch is performed here. Returning implies the
	 * thread has been context-switched-in again.
	 */
	return _current->arch.swap_return_value;
    387c:	6893      	ldr	r3, [r2, #8]
}
    387e:	6f98      	ldr	r0, [r3, #120]	; 0x78
    3880:	4770      	bx	lr
    3882:	bf00      	nop
    3884:	2000092c 	.word	0x2000092c
    3888:	000096dc 	.word	0x000096dc
    388c:	e000ed00 	.word	0xe000ed00

00003890 <z_arm_pendsv>:
    pop {r0, lr}
#endif /* CONFIG_ARMV6_M_ARMV8_M_BASELINE */
#endif /* CONFIG_TRACING */

    /* load _kernel into r1 and current k_thread into r2 */
    ldr r1, =_kernel
    3890:	490f      	ldr	r1, [pc, #60]	; (38d0 <z_arm_pendsv+0x40>)
    ldr r2, [r1, #_kernel_offset_to_current]
    3892:	688a      	ldr	r2, [r1, #8]

    /* addr of callee-saved regs in thread in r0 */
    ldr r0, =_thread_offset_to_callee_saved
    3894:	f04f 0030 	mov.w	r0, #48	; 0x30
    add r0, r2
    3898:	4410      	add	r0, r2

    /* save callee-saved + psp in thread */
#if defined(CONFIG_CPU_CORTEX_M)
    mrs ip, PSP
    389a:	f3ef 8c09 	mrs	ip, PSP
    mov r6, r11
    mov r7, ip
    /* store r8-12 */
    stmea r0!, {r3-r7}
#elif defined(CONFIG_ARMV7_M_ARMV8_M_MAINLINE)
    stmia r0, {v1-v8, ip}
    389e:	e880 1ff0 	stmia.w	r0, {r4, r5, r6, r7, r8, r9, sl, fp, ip}

    /* Protect the kernel state while we play with the thread lists */
#if defined(CONFIG_ARMV6_M_ARMV8_M_BASELINE)
    cpsid i
#elif defined(CONFIG_ARMV7_M_ARMV8_M_MAINLINE)
    movs.n r0, #_EXC_IRQ_DEFAULT_PRIO
    38a2:	2020      	movs	r0, #32
    msr BASEPRI, r0
    38a4:	f380 8811 	msr	BASEPRI, r0
    isb /* Make the effect of disabling interrupts be realized immediately */
    38a8:	f3bf 8f6f 	isb	sy
     * the new thread is context-switched in since all decisions
     * to pend PendSV have been taken with the current kernel
     * state and this is what we're handling currently.
     */
#if defined(CONFIG_CPU_CORTEX_M)
    ldr v4, =_SCS_ICSR
    38ac:	4f09      	ldr	r7, [pc, #36]	; (38d4 <z_arm_pendsv+0x44>)
    ldr v3, =_SCS_ICSR_UNPENDSV
    38ae:	f04f 6600 	mov.w	r6, #134217728	; 0x8000000
#endif

    /* _kernel is still in r1 */

    /* fetch the thread to run from the ready queue cache */
    ldr r2, [r1, #_kernel_offset_to_ready_q_cache]
    38b2:	6a4a      	ldr	r2, [r1, #36]	; 0x24

    str r2, [r1, #_kernel_offset_to_current]
    38b4:	608a      	str	r2, [r1, #8]
     * has been handled.
     */

    /* _SCS_ICSR is still in v4 and _SCS_ICSR_UNPENDSV in v3 */
#if defined(CONFIG_CPU_CORTEX_M)
    str v3, [v4, #0]
    38b6:	603e      	str	r6, [r7, #0]

    ldr r0, [r4]
    movs.n r3, #0
    str r3, [r4]
#else
    ldr r0, [r2, #_thread_offset_to_basepri]
    38b8:	6f50      	ldr	r0, [r2, #116]	; 0x74
    movs r3, #0
    38ba:	2300      	movs	r3, #0
    str r3, [r2, #_thread_offset_to_basepri]
    38bc:	6753      	str	r3, [r2, #116]	; 0x74
    /* restore r4-r7, go back 9*4 bytes to the start of the stored block */
    subs r0, #36
    ldmia r0!, {r4-r7}
#elif defined(CONFIG_ARMV7_M_ARMV8_M_MAINLINE)
    /* restore BASEPRI for the incoming thread */
    msr BASEPRI, r0
    38be:	f380 8811 	msr	BASEPRI, r0
    isb

#endif

    /* load callee-saved + psp from thread */
    add r0, r2, #_thread_offset_to_callee_saved
    38c2:	f102 0030 	add.w	r0, r2, #48	; 0x30
    ldmia r0, {v1-v8, ip}
    38c6:	e890 1ff0 	ldmia.w	r0, {r4, r5, r6, r7, r8, r9, sl, fp, ip}
#else
#error Unknown ARM architecture
#endif /* CONFIG_ARMV6_M_ARMV8_M_BASELINE */

#if defined(CONFIG_CPU_CORTEX_M)
    msr PSP, ip
    38ca:	f38c 8809 	msr	PSP, ip

    /*
     * Cortex-M: return from PendSV exception
     * Cortex-R: return to the caller (z_arm_{exc,int}_exit, or z_arm_svc)
     */
    bx lr
    38ce:	4770      	bx	lr
    ldr r1, =_kernel
    38d0:	2000092c 	.word	0x2000092c
    ldr v4, =_SCS_ICSR
    38d4:	e000ed04 	.word	0xe000ed04

000038d8 <z_arm_svc>:
  bne _stack_frame_endif
_stack_frame_msp:
  mrs r0, MSP
_stack_frame_endif:
#elif defined(CONFIG_ARMV7_M_ARMV8_M_MAINLINE)
    tst lr, #0x4    /* did we come from thread mode ? */
    38d8:	f01e 0f04 	tst.w	lr, #4
    ite eq  /* if zero (equal), came from handler mode */
    38dc:	bf0c      	ite	eq
        mrseq r0, MSP   /* handler mode, stack frame is on MSP */
    38de:	f3ef 8008 	mrseq	r0, MSP
        mrsne r0, PSP   /* thread mode, stack frame is on PSP */
    38e2:	f3ef 8009 	mrsne	r0, PSP
#endif


    /* Figure out what SVC call number was invoked */

    ldr r1, [r0, #24]   /* grab address of PC from stack frame */
    38e6:	6981      	ldr	r1, [r0, #24]
     */
#if defined(CONFIG_ARMV6_M_ARMV8_M_BASELINE)
    subs r1, r1, #2
    ldrb r1, [r1]
#elif defined(CONFIG_ARMV7_M_ARMV8_M_MAINLINE)
    ldrb r1, [r1, #-2]
    38e8:	f811 1c02 	ldrb.w	r1, [r1, #-2]
#endif
    bne _oops

#endif /* CONFIG_USERSPACE */

    cmp r1, #2
    38ec:	2902      	cmp	r1, #2
    beq _oops
    38ee:	d0ff      	beq.n	38f0 <_oops>

000038f0 <_oops>:
    /* exception return is done in z_arm_int_exit() */
    b z_arm_int_exit
#endif

_oops:
    push {r0, lr}
    38f0:	b501      	push	{r0, lr}
    bl z_do_kernel_oops
    38f2:	f004 ff81 	bl	87f8 <z_do_kernel_oops>
    /* return from SVC exception is done here */
    pop {r0, pc}
    38f6:	bd01      	pop	{r0, pc}

000038f8 <arch_irq_enable>:
#define REG_FROM_IRQ(irq) (irq / NUM_IRQS_PER_REG)
#define BIT_FROM_IRQ(irq) (irq % NUM_IRQS_PER_REG)

void arch_irq_enable(unsigned int irq)
{
	NVIC_EnableIRQ((IRQn_Type)irq);
    38f8:	b243      	sxtb	r3, r0
  if ((int32_t)(IRQn) >= 0)
    38fa:	2b00      	cmp	r3, #0
    38fc:	db08      	blt.n	3910 <arch_irq_enable+0x18>
    NVIC->ISER[(((uint32_t)IRQn) >> 5UL)] = (uint32_t)(1UL << (((uint32_t)IRQn) & 0x1FUL));
    38fe:	2201      	movs	r2, #1
    3900:	f000 001f 	and.w	r0, r0, #31
    3904:	fa02 f000 	lsl.w	r0, r2, r0
    3908:	095b      	lsrs	r3, r3, #5
    390a:	4a02      	ldr	r2, [pc, #8]	; (3914 <arch_irq_enable+0x1c>)
    390c:	f842 0023 	str.w	r0, [r2, r3, lsl #2]
}
    3910:	4770      	bx	lr
    3912:	bf00      	nop
    3914:	e000e100 	.word	0xe000e100

00003918 <arch_irq_is_enabled>:
	NVIC_DisableIRQ((IRQn_Type)irq);
}

int arch_irq_is_enabled(unsigned int irq)
{
	return NVIC->ISER[REG_FROM_IRQ(irq)] & BIT(BIT_FROM_IRQ(irq));
    3918:	4b05      	ldr	r3, [pc, #20]	; (3930 <arch_irq_is_enabled+0x18>)
    391a:	0942      	lsrs	r2, r0, #5
    391c:	f000 001f 	and.w	r0, r0, #31
    3920:	f853 2022 	ldr.w	r2, [r3, r2, lsl #2]
    3924:	2301      	movs	r3, #1
    3926:	fa03 f000 	lsl.w	r0, r3, r0
}
    392a:	4010      	ands	r0, r2
    392c:	4770      	bx	lr
    392e:	bf00      	nop
    3930:	e000e100 	.word	0xe000e100

00003934 <z_arm_irq_priority_set>:
	 */
	__ASSERT(prio <= (BIT(NUM_IRQ_PRIO_BITS) - 1),
		 "invalid priority %d for %d irq! values must be less than %lu\n",
		 prio - _IRQ_PRIO_OFFSET, irq,
		 BIT(NUM_IRQ_PRIO_BITS) - (_IRQ_PRIO_OFFSET));
	NVIC_SetPriority((IRQn_Type)irq, prio);
    3934:	b243      	sxtb	r3, r0
  \param [in]  priority  Priority to set.
  \note    The priority cannot be set for every processor exception.
 */
__STATIC_INLINE void __NVIC_SetPriority(IRQn_Type IRQn, uint32_t priority)
{
  if ((int32_t)(IRQn) >= 0)
    3936:	2b00      	cmp	r3, #0
  {
    NVIC->IP[((uint32_t)IRQn)]               = (uint8_t)((priority << (8U - __NVIC_PRIO_BITS)) & (uint32_t)0xFFUL);
    3938:	bfa8      	it	ge
    393a:	f103 4360 	addge.w	r3, r3, #3758096384	; 0xe0000000
		prio += _IRQ_PRIO_OFFSET;
    393e:	f101 0101 	add.w	r1, r1, #1
  }
  else
  {
    SCB->SHP[(((uint32_t)IRQn) & 0xFUL)-4UL] = (uint8_t)((priority << (8U - __NVIC_PRIO_BITS)) & (uint32_t)0xFFUL);
    3942:	bfb8      	it	lt
    3944:	4b06      	ldrlt	r3, [pc, #24]	; (3960 <z_arm_irq_priority_set+0x2c>)
    3946:	ea4f 1141 	mov.w	r1, r1, lsl #5
    NVIC->IP[((uint32_t)IRQn)]               = (uint8_t)((priority << (8U - __NVIC_PRIO_BITS)) & (uint32_t)0xFFUL);
    394a:	bfac      	ite	ge
    394c:	f503 4361 	addge.w	r3, r3, #57600	; 0xe100
    SCB->SHP[(((uint32_t)IRQn) & 0xFUL)-4UL] = (uint8_t)((priority << (8U - __NVIC_PRIO_BITS)) & (uint32_t)0xFFUL);
    3950:	f000 000f 	andlt.w	r0, r0, #15
    3954:	b2c9      	uxtb	r1, r1
    3956:	bfb4      	ite	lt
    3958:	5419      	strblt	r1, [r3, r0]
    NVIC->IP[((uint32_t)IRQn)]               = (uint8_t)((priority << (8U - __NVIC_PRIO_BITS)) & (uint32_t)0xFFUL);
    395a:	f883 1300 	strbge.w	r1, [r3, #768]	; 0x300
}
    395e:	4770      	bx	lr
    3960:	e000ed14 	.word	0xe000ed14

00003964 <arch_new_thread>:

#if defined(CONFIG_CPU_CORTEX_M)
	/* force ARM mode by clearing LSB of address */
	iframe->pc &= 0xfffffffe;
#endif
	iframe->a1 = (uint32_t)entry;
    3964:	f842 3c20 	str.w	r3, [r2, #-32]
	iframe->a2 = (uint32_t)p1;
    3968:	9b00      	ldr	r3, [sp, #0]
    396a:	f842 3c1c 	str.w	r3, [r2, #-28]
	iframe->pc &= 0xfffffffe;
    396e:	490a      	ldr	r1, [pc, #40]	; (3998 <arch_new_thread+0x34>)
	iframe->a3 = (uint32_t)p2;
    3970:	9b01      	ldr	r3, [sp, #4]
    3972:	f842 3c18 	str.w	r3, [r2, #-24]
	iframe->a4 = (uint32_t)p3;
    3976:	9b02      	ldr	r3, [sp, #8]
    3978:	f842 3c14 	str.w	r3, [r2, #-20]
	iframe->pc &= 0xfffffffe;
    397c:	f021 0101 	bic.w	r1, r1, #1

#if defined(CONFIG_CPU_CORTEX_M)
	iframe->xpsr =
    3980:	f04f 7380 	mov.w	r3, #16777216	; 0x1000000
    3984:	f842 3c04 	str.w	r3, [r2, #-4]
	iframe->pc &= 0xfffffffe;
    3988:	f842 1c08 	str.w	r1, [r2, #-8]
	iframe->xpsr |= T_BIT;
#endif /* CONFIG_COMPILER_ISA_THUMB2 */
#endif /* CONFIG_CPU_CORTEX_M */

	thread->callee_saved.psp = (uint32_t)iframe;
	thread->arch.basepri = 0;
    398c:	2300      	movs	r3, #0
	iframe = Z_STACK_PTR_TO_FRAME(struct __basic_sf, stack_ptr);
    398e:	3a20      	subs	r2, #32
	thread->callee_saved.psp = (uint32_t)iframe;
    3990:	6502      	str	r2, [r0, #80]	; 0x50
	thread->arch.basepri = 0;
    3992:	6743      	str	r3, [r0, #116]	; 0x74
#endif
	/*
	 * initial values in all other registers/thread entries are
	 * irrelevant.
	 */
}
    3994:	4770      	bx	lr
    3996:	bf00      	nop
    3998:	00007f9d 	.word	0x00007f9d

0000399c <arch_switch_to_main_thread>:
#endif
}

void arch_switch_to_main_thread(struct k_thread *main_thread, char *stack_ptr,
				k_thread_entry_t _main)
{
    399c:	b508      	push	{r3, lr}
    399e:	4606      	mov	r6, r0
    39a0:	460d      	mov	r5, r1
    39a2:	4614      	mov	r4, r2
	z_arm_configure_static_mpu_regions();
    39a4:	f000 fb0a 	bl	3fbc <z_arm_configure_static_mpu_regions>
	z_arm_prepare_switch_to_main();

	_current = main_thread;
    39a8:	4b07      	ldr	r3, [pc, #28]	; (39c8 <arch_switch_to_main_thread+0x2c>)
    39aa:	609e      	str	r6, [r3, #8]

	/*
	 * Set PSP to the highest address of the main stack
	 * before enabling interrupts and jumping to main.
	 */
	__asm__ volatile (
    39ac:	4620      	mov	r0, r4
    39ae:	f385 8809 	msr	PSP, r5
    39b2:	2100      	movs	r1, #0
    39b4:	b663      	cpsie	if
    39b6:	f381 8811 	msr	BASEPRI, r1
    39ba:	f3bf 8f6f 	isb	sy
    39be:	2200      	movs	r2, #0
    39c0:	2300      	movs	r3, #0
    39c2:	f004 faeb 	bl	7f9c <z_thread_entry>
	:
	: "r" (_main), "r" (stack_ptr)
	: "r0" /* not to be overwritten by msr PSP, %1 */
	);

	CODE_UNREACHABLE;
    39c6:	bf00      	nop
    39c8:	2000092c 	.word	0x2000092c

000039cc <z_arm_cpu_idle_init>:
 * void z_arm_cpu_idle_init(void);
 */

SECTION_FUNC(TEXT, z_arm_cpu_idle_init)
#if defined(CONFIG_CPU_CORTEX_M)
	ldr	r1, =_SCB_SCR
    39cc:	4901      	ldr	r1, [pc, #4]	; (39d4 <z_arm_cpu_idle_init+0x8>)
	movs.n	r2, #_SCR_INIT_BITS
    39ce:	2210      	movs	r2, #16
	str	r2, [r1]
    39d0:	600a      	str	r2, [r1, #0]
#endif
	bx	lr
    39d2:	4770      	bx	lr
	ldr	r1, =_SCB_SCR
    39d4:	e000ed10 	.word	0xe000ed10

000039d8 <arch_cpu_idle>:
	 * before entering low power state.
	 *
	 * Set PRIMASK before configuring BASEPRI to prevent interruption
	 * before wake-up.
	 */
	cpsid	i
    39d8:	b672      	cpsid	i

	/*
	 * Set wake-up interrupt priority to the lowest and synchronise to
	 * ensure that this is visible to the WFI instruction.
	 */
	eors.n	r0, r0
    39da:	4040      	eors	r0, r0
	msr	BASEPRI, r0
    39dc:	f380 8811 	msr	BASEPRI, r0
	isb
    39e0:	f3bf 8f6f 	isb	sy

	/*
	 * Wait for all memory transactions to complete before entering low
	 * power state.
	 */
	dsb
    39e4:	f3bf 8f4f 	dsb	sy

	/* Enter low power state */
	wfi
    39e8:	bf30      	wfi

	/*
	 * Clear PRIMASK and flush instruction buffer to immediately service
	 * the wake-up interrupt.
	 */
	cpsie	i
    39ea:	b662      	cpsie	i
	isb
    39ec:	f3bf 8f6f 	isb	sy

	bx	lr
    39f0:	4770      	bx	lr
    39f2:	bf00      	nop

000039f4 <arch_cpu_atomic_idle>:

	/*
	 * Lock PRIMASK while sleeping: wfe will still get interrupted by
	 * incoming interrupts but the CPU will not service them right away.
	 */
	cpsid	i
    39f4:	b672      	cpsid	i
	cpsie	i
_irq_disabled:

#elif defined(CONFIG_ARMV7_M_ARMV8_M_MAINLINE)
	/* r1: zero, for setting BASEPRI (needs a register) */
	eors.n	r1, r1
    39f6:	4049      	eors	r1, r1

	/* unlock BASEPRI so wfe gets interrupted by incoming interrupts */
	msr	BASEPRI, r1
    39f8:	f381 8811 	msr	BASEPRI, r1

	wfe
    39fc:	bf20      	wfe

	msr	BASEPRI, r0
    39fe:	f380 8811 	msr	BASEPRI, r0
	cpsie	i
    3a02:	b662      	cpsie	i
#else
#error Unknown ARM architecture
#endif /* CONFIG_ARMV6_M_ARMV8_M_BASELINE */
	bx	lr
    3a04:	4770      	bx	lr
    3a06:	bf00      	nop

00003a08 <z_arm_fatal_error>:
	LOG_ERR("Faulting instruction address (r15/pc): 0x%08x",
		esf->basic.pc);
}

void z_arm_fatal_error(unsigned int reason, const z_arch_esf_t *esf)
{
    3a08:	b573      	push	{r0, r1, r4, r5, r6, lr}
    3a0a:	4606      	mov	r6, r0

	if (esf != NULL) {
    3a0c:	460c      	mov	r4, r1
    3a0e:	b301      	cbz	r1, 3a52 <z_arm_fatal_error+0x4a>
	return ((uint8_t *)data - (uint8_t *)__log_const_start)/
    3a10:	4b13      	ldr	r3, [pc, #76]	; (3a60 <z_arm_fatal_error+0x58>)
    3a12:	4d14      	ldr	r5, [pc, #80]	; (3a64 <z_arm_fatal_error+0x5c>)
	LOG_ERR("r0/a1:  0x%08x  r1/a2:  0x%08x  r2/a3:  0x%08x",
    3a14:	4814      	ldr	r0, [pc, #80]	; (3a68 <z_arm_fatal_error+0x60>)
    3a16:	1aed      	subs	r5, r5, r3
    3a18:	08ed      	lsrs	r5, r5, #3
    3a1a:	01ad      	lsls	r5, r5, #6
    3a1c:	f045 0501 	orr.w	r5, r5, #1
    3a20:	f8ad 5000 	strh.w	r5, [sp]
    3a24:	e9d1 2301 	ldrd	r2, r3, [r1, #4]
    3a28:	6809      	ldr	r1, [r1, #0]
    3a2a:	f004 fb35 	bl	8098 <log_3>
	LOG_ERR("r3/a4:  0x%08x r12/ip:  0x%08x r14/lr:  0x%08x",
    3a2e:	f8ad 5000 	strh.w	r5, [sp]
    3a32:	e9d4 2304 	ldrd	r2, r3, [r4, #16]
    3a36:	68e1      	ldr	r1, [r4, #12]
    3a38:	480c      	ldr	r0, [pc, #48]	; (3a6c <z_arm_fatal_error+0x64>)
    3a3a:	f004 fb2d 	bl	8098 <log_3>
	LOG_ERR(" xpsr:  0x%08x", esf->basic.xpsr);
    3a3e:	69e1      	ldr	r1, [r4, #28]
    3a40:	480b      	ldr	r0, [pc, #44]	; (3a70 <z_arm_fatal_error+0x68>)
    3a42:	462a      	mov	r2, r5
    3a44:	f004 fafb 	bl	803e <log_1>
	LOG_ERR("Faulting instruction address (r15/pc): 0x%08x",
    3a48:	69a1      	ldr	r1, [r4, #24]
    3a4a:	480a      	ldr	r0, [pc, #40]	; (3a74 <z_arm_fatal_error+0x6c>)
    3a4c:	462a      	mov	r2, r5
    3a4e:	f004 faf6 	bl	803e <log_1>
		esf_dump(esf);
	}
	z_fatal_error(reason, esf);
    3a52:	4621      	mov	r1, r4
    3a54:	4630      	mov	r0, r6
}
    3a56:	b002      	add	sp, #8
    3a58:	e8bd 4070 	ldmia.w	sp!, {r4, r5, r6, lr}
	z_fatal_error(reason, esf);
    3a5c:	f002 beb0 	b.w	67c0 <z_fatal_error>
    3a60:	00009384 	.word	0x00009384
    3a64:	000093a4 	.word	0x000093a4
    3a68:	000098ae 	.word	0x000098ae
    3a6c:	000098dd 	.word	0x000098dd
    3a70:	0000990c 	.word	0x0000990c
    3a74:	0000991b 	.word	0x0000991b

00003a78 <z_SysNmiOnReset>:
_ASM_FILE_PROLOGUE

GTEXT(z_SysNmiOnReset)

SECTION_FUNC(TEXT, z_SysNmiOnReset)
    wfi
    3a78:	bf30      	wfi
    b z_SysNmiOnReset
    3a7a:	f7ff bffd 	b.w	3a78 <z_SysNmiOnReset>
    3a7e:	bf00      	nop

00003a80 <z_arm_prep_c>:

#define VECTOR_ADDRESS ((uintptr_t)_vector_start)

static inline void relocate_vector_table(void)
{
	SCB->VTOR = VECTOR_ADDRESS & SCB_VTOR_TBLOFF_Msk;
    3a80:	4a0e      	ldr	r2, [pc, #56]	; (3abc <z_arm_prep_c+0x3c>)
 * This routine prepares for the execution of and runs C code.
 *
 * @return N/A
 */
void z_arm_prep_c(void)
{
    3a82:	b508      	push	{r3, lr}
	SCB->VTOR = VECTOR_ADDRESS & SCB_VTOR_TBLOFF_Msk;
    3a84:	4b0e      	ldr	r3, [pc, #56]	; (3ac0 <z_arm_prep_c+0x40>)
    3a86:	f022 027f 	bic.w	r2, r2, #127	; 0x7f
    3a8a:	609a      	str	r2, [r3, #8]
  \details Acts as a special kind of Data Memory Barrier.
           It completes when all explicit memory accesses before this instruction complete.
 */
__STATIC_FORCEINLINE void __DSB(void)
{
  __ASM volatile ("dsb 0xF":::"memory");
    3a8c:	f3bf 8f4f 	dsb	sy
  __ASM volatile ("isb 0xF":::"memory");
    3a90:	f3bf 8f6f 	isb	sy
	SCB->CPACR &= (~(CPACR_CP10_Msk | CPACR_CP11_Msk));
    3a94:	f8d3 2088 	ldr.w	r2, [r3, #136]	; 0x88
    3a98:	f422 0270 	bic.w	r2, r2, #15728640	; 0xf00000
    3a9c:	f8c3 2088 	str.w	r2, [r3, #136]	; 0x88
  __ASM volatile ("MRS %0, control" : "=r" (result) );
    3aa0:	f3ef 8314 	mrs	r3, CONTROL
	__set_CONTROL(__get_CONTROL() & (~(CONTROL_FPCA_Msk)));
    3aa4:	f023 0304 	bic.w	r3, r3, #4
  __ASM volatile ("MSR control, %0" : : "r" (control) : "memory");
    3aa8:	f383 8814 	msr	CONTROL, r3
	relocate_vector_table();
#if defined(CONFIG_CPU_HAS_FPU)
	z_arm_floating_point_init();
#endif
	z_bss_zero();
    3aac:	f002 fefc 	bl	68a8 <z_bss_zero>
	z_data_copy();
    3ab0:	f003 fede 	bl	7870 <z_data_copy>
#if defined(CONFIG_ARMV7_R) && defined(CONFIG_INIT_STACKS)
	z_arm_init_stacks();
#endif
	z_arm_interrupt_init();
    3ab4:	f000 fa64 	bl	3f80 <z_arm_interrupt_init>
	z_cstart();
    3ab8:	f002 ff1a 	bl	68f0 <z_cstart>
    3abc:	00000000 	.word	0x00000000
    3ac0:	e000ed00 	.word	0xe000ed00

00003ac4 <_isr_wrapper>:
 * @return N/A
 */
SECTION_FUNC(TEXT, _isr_wrapper)

#if defined(CONFIG_CPU_CORTEX_M)
	push {r0,lr}		/* r0, lr are now the first items on the stack */
    3ac4:	b501      	push	{r0, lr}
	 * Disable interrupts to prevent nesting while exiting idle state. This
	 * is only necessary for the Cortex-M because it is the only ARM
	 * architecture variant that automatically enables interrupts when
	 * entering an ISR.
	 */
	cpsid i  /* PRIMASK = 1 */
    3ac6:	b672      	cpsid	i
#endif

	/* is this a wakeup from idle ? */
	ldr r2, =_kernel
    3ac8:	4a0b      	ldr	r2, [pc, #44]	; (3af8 <_isr_wrapper+0x34>)
	/* requested idle duration, in ticks */
	ldr r0, [r2, #_kernel_offset_to_idle]
    3aca:	6a10      	ldr	r0, [r2, #32]
	cmp r0, #0
    3acc:	2800      	cmp	r0, #0
	str r1, [r2, #_kernel_offset_to_idle]
	bl z_pm_save_idle_exit
_idle_state_cleared:

#elif defined(CONFIG_ARMV7_M_ARMV8_M_MAINLINE)
	ittt ne
    3ace:	bf1e      	ittt	ne
	movne	r1, #0
    3ad0:	2100      	movne	r1, #0
		/* clear kernel idle state */
		strne	r1, [r2, #_kernel_offset_to_idle]
    3ad2:	6211      	strne	r1, [r2, #32]
		blne	z_pm_save_idle_exit
    3ad4:	f005 f955 	blne	8d82 <z_pm_save_idle_exit>
#else
#error Unknown ARM architecture
#endif /* CONFIG_ARMV6_M_ARMV8_M_BASELINE */

#if defined(CONFIG_CPU_CORTEX_M)
	cpsie i		/* re-enable interrupts (PRIMASK = 0) */
    3ad8:	b662      	cpsie	i
#endif

#endif /* CONFIG_PM */

#if defined(CONFIG_CPU_CORTEX_M)
	mrs r0, IPSR	/* get exception number */
    3ada:	f3ef 8005 	mrs	r0, IPSR
#if defined(CONFIG_ARMV6_M_ARMV8_M_BASELINE)
	ldr r1, =16
	subs r0, r1	/* get IRQ number */
	lsls r0, #3	/* table is 8-byte wide */
#elif defined(CONFIG_ARMV7_M_ARMV8_M_MAINLINE)
	sub r0, r0, #16	/* get IRQ number */
    3ade:	f1a0 0010 	sub.w	r0, r0, #16
	lsl r0, r0, #3	/* table is 8-byte wide */
    3ae2:	ea4f 00c0 	mov.w	r0, r0, lsl #3
	 * interface function.
	 */
	cpsie i
#endif /* !CONFIG_CPU_CORTEX_M */

	ldr r1, =_sw_isr_table
    3ae6:	4905      	ldr	r1, [pc, #20]	; (3afc <_isr_wrapper+0x38>)
	add r1, r1, r0	/* table entry: ISRs must have their MSB set to stay
    3ae8:	4401      	add	r1, r0
			 * in thumb mode */

	ldm r1!,{r0,r3}	/* arg in r0, ISR in r3 */
    3aea:	c909      	ldmia	r1!, {r0, r3}
	blx r3		/* call ISR */
    3aec:	4798      	blx	r3

#if defined(CONFIG_ARMV6_M_ARMV8_M_BASELINE)
	pop {r0, r3}
	mov lr, r3
#elif defined(CONFIG_ARMV7_M_ARMV8_M_MAINLINE)
	pop {r0, lr}
    3aee:	e8bd 4001 	ldmia.w	sp!, {r0, lr}
#endif /* CONFIG_ARMV6_M_ARMV8_M_BASELINE */

	/* Use 'bx' instead of 'b' because 'bx' can jump further, and use
	 * 'bx' instead of 'blx' because exception return is done in
	 * z_arm_int_exit() */
	ldr r1, =z_arm_int_exit
    3af2:	4903      	ldr	r1, [pc, #12]	; (3b00 <_isr_wrapper+0x3c>)
	bx r1
    3af4:	4708      	bx	r1
    3af6:	0000      	.short	0x0000
	ldr r2, =_kernel
    3af8:	2000092c 	.word	0x2000092c
	ldr r1, =_sw_isr_table
    3afc:	00009204 	.word	0x00009204
	ldr r1, =z_arm_int_exit
    3b00:	00003f65 	.word	0x00003f65

00003b04 <__start>:
#endif /* CONFIG_CPU_CORTEX_M_HAS_SPLIM */

#endif /* CONFIG_INIT_ARCH_HW_AT_BOOT */

#if defined(CONFIG_PLATFORM_SPECIFIC_INIT)
    bl z_platform_init
    3b04:	f004 fe86 	bl	8814 <z_platform_init>

    /* lock interrupts: will get unlocked when switch to main task */
#if defined(CONFIG_ARMV6_M_ARMV8_M_BASELINE)
    cpsid i
#elif defined(CONFIG_ARMV7_M_ARMV8_M_MAINLINE)
    movs.n r0, #_EXC_IRQ_DEFAULT_PRIO
    3b08:	2020      	movs	r0, #32
    msr BASEPRI, r0
    3b0a:	f380 8811 	msr	BASEPRI, r0

    /*
     * Set PSP and use it to boot without using MSP, so that it
     * gets set to z_interrupt_stacks during initialization.
     */
    ldr r0, =z_interrupt_stacks
    3b0e:	4808      	ldr	r0, [pc, #32]	; (3b30 <__start+0x2c>)
    ldr r1, =CONFIG_ISR_STACK_SIZE + MPU_GUARD_ALIGN_AND_SIZE
    3b10:	f44f 6100 	mov.w	r1, #2048	; 0x800
    adds r0, r0, r1
    3b14:	1840      	adds	r0, r0, r1
    msr PSP, r0
    3b16:	f380 8809 	msr	PSP, r0
    mrs r0, CONTROL
    3b1a:	f3ef 8014 	mrs	r0, CONTROL
    movs r1, #2
    3b1e:	2102      	movs	r1, #2
    orrs r0, r1 /* CONTROL_SPSEL_Msk */
    3b20:	4308      	orrs	r0, r1
    msr CONTROL, r0
    3b22:	f380 8814 	msr	CONTROL, r0
    /*
     * When changing the stack pointer, software must use an ISB instruction
     * immediately after the MSR instruction. This ensures that instructions
     * after the ISB instruction execute using the new stack pointer.
     */
    isb
    3b26:	f3bf 8f6f 	isb	sy
    /*
     * 'bl' jumps the furthest of the branch instructions that are
     * supported on all platforms. So it is used when jumping to z_arm_prep_c
     * (even though we do not intend to return).
     */
    bl z_arm_prep_c
    3b2a:	f7ff ffa9 	bl	3a80 <z_arm_prep_c>
    3b2e:	0000      	.short	0x0000
    ldr r0, =z_interrupt_stacks
    3b30:	200016e0 	.word	0x200016e0

00003b34 <z_arm_bus_fault>:
#else
#error Unknown ARM architecture
#endif /* CONFIG_ARMV6_M_ARMV8_M_BASELINE */
SECTION_SUBSEC_FUNC(TEXT,__fault,z_arm_exc_spurious)

	mrs r0, MSP
    3b34:	f3ef 8008 	mrs	r0, MSP
	mrs r1, PSP
    3b38:	f3ef 8109 	mrs	r1, PSP
	push {r0, lr}
    3b3c:	b501      	push	{r0, lr}
#elif defined(CONFIG_ARMV7_M_ARMV8_M_MAINLINE)
	push {r4-r11}
#endif
	mov  r3, sp /* pointer to _callee_saved_t */
#endif /* CONFIG_EXTRA_EXCEPTION_INFO */
	mov r2, lr /* EXC_RETURN */
    3b3e:	4672      	mov	r2, lr
	bl z_arm_fault
    3b40:	f000 f934 	bl	3dac <z_arm_fault>
	 * in this routine. Therefore, we can just reset
	 * the MSP to its value prior to entering the function
	 */
	add sp, #40
#endif
	pop {r0, pc}
    3b44:	bd01      	pop	{r0, pc}
    3b46:	bf00      	nop

00003b48 <usage_fault.isra.0>:
 *
 * See z_arm_fault_dump() for example.
 *
 * @return error code to identify the fatal error reason
 */
static uint32_t usage_fault(const z_arch_esf_t *esf)
    3b48:	b570      	push	{r4, r5, r6, lr}
    3b4a:	4b23      	ldr	r3, [pc, #140]	; (3bd8 <usage_fault.isra.0+0x90>)
    3b4c:	4c23      	ldr	r4, [pc, #140]	; (3bdc <usage_fault.isra.0+0x94>)
	uint32_t reason = K_ERR_CPU_EXCEPTION;

	PR_FAULT_INFO("***** USAGE FAULT *****");

	/* bits are sticky: they stack and must be reset */
	if ((SCB->CFSR & SCB_CFSR_DIVBYZERO_Msk) != 0) {
    3b4e:	4d24      	ldr	r5, [pc, #144]	; (3be0 <usage_fault.isra.0+0x98>)
	PR_FAULT_INFO("***** USAGE FAULT *****");
    3b50:	4824      	ldr	r0, [pc, #144]	; (3be4 <usage_fault.isra.0+0x9c>)
    3b52:	1ae4      	subs	r4, r4, r3
    3b54:	08e4      	lsrs	r4, r4, #3
    3b56:	01a4      	lsls	r4, r4, #6
    3b58:	f044 0601 	orr.w	r6, r4, #1
    3b5c:	4631      	mov	r1, r6
    3b5e:	f004 fa61 	bl	8024 <log_0>
	if ((SCB->CFSR & SCB_CFSR_DIVBYZERO_Msk) != 0) {
    3b62:	6aaa      	ldr	r2, [r5, #40]	; 0x28
    3b64:	0193      	lsls	r3, r2, #6
    3b66:	d503      	bpl.n	3b70 <usage_fault.isra.0+0x28>
		PR_FAULT_INFO("  Division by zero");
    3b68:	481f      	ldr	r0, [pc, #124]	; (3be8 <usage_fault.isra.0+0xa0>)
    3b6a:	4631      	mov	r1, r6
    3b6c:	f004 fa5a 	bl	8024 <log_0>
	}
	if ((SCB->CFSR & SCB_CFSR_UNALIGNED_Msk) != 0) {
    3b70:	6aab      	ldr	r3, [r5, #40]	; 0x28
    3b72:	01dd      	lsls	r5, r3, #7
    3b74:	d504      	bpl.n	3b80 <usage_fault.isra.0+0x38>
		PR_FAULT_INFO("  Unaligned memory access");
    3b76:	481d      	ldr	r0, [pc, #116]	; (3bec <usage_fault.isra.0+0xa4>)
    3b78:	f044 0101 	orr.w	r1, r4, #1
    3b7c:	f004 fa52 	bl	8024 <log_0>
		 */
		reason = K_ERR_STACK_CHK_FAIL;
#endif /* CONFIG_BUILTIN_STACK_GUARD */
	}
#endif /* CONFIG_ARMV8_M_MAINLINE */
	if ((SCB->CFSR & SCB_CFSR_NOCP_Msk) != 0) {
    3b80:	4d17      	ldr	r5, [pc, #92]	; (3be0 <usage_fault.isra.0+0x98>)
    3b82:	6aaa      	ldr	r2, [r5, #40]	; 0x28
    3b84:	0310      	lsls	r0, r2, #12
    3b86:	d504      	bpl.n	3b92 <usage_fault.isra.0+0x4a>
		PR_FAULT_INFO("  No coprocessor instructions");
    3b88:	4819      	ldr	r0, [pc, #100]	; (3bf0 <usage_fault.isra.0+0xa8>)
    3b8a:	f044 0101 	orr.w	r1, r4, #1
    3b8e:	f004 fa49 	bl	8024 <log_0>
	}
	if ((SCB->CFSR & SCB_CFSR_INVPC_Msk) != 0) {
    3b92:	6aab      	ldr	r3, [r5, #40]	; 0x28
    3b94:	0359      	lsls	r1, r3, #13
    3b96:	d504      	bpl.n	3ba2 <usage_fault.isra.0+0x5a>
		PR_FAULT_INFO("  Illegal load of EXC_RETURN into PC");
    3b98:	4816      	ldr	r0, [pc, #88]	; (3bf4 <usage_fault.isra.0+0xac>)
    3b9a:	f044 0101 	orr.w	r1, r4, #1
    3b9e:	f004 fa41 	bl	8024 <log_0>
	}
	if ((SCB->CFSR & SCB_CFSR_INVSTATE_Msk) != 0) {
    3ba2:	4d0f      	ldr	r5, [pc, #60]	; (3be0 <usage_fault.isra.0+0x98>)
    3ba4:	6aaa      	ldr	r2, [r5, #40]	; 0x28
    3ba6:	0392      	lsls	r2, r2, #14
    3ba8:	d504      	bpl.n	3bb4 <usage_fault.isra.0+0x6c>
		PR_FAULT_INFO("  Illegal use of the EPSR");
    3baa:	4813      	ldr	r0, [pc, #76]	; (3bf8 <usage_fault.isra.0+0xb0>)
    3bac:	f044 0101 	orr.w	r1, r4, #1
    3bb0:	f004 fa38 	bl	8024 <log_0>
	}
	if ((SCB->CFSR & SCB_CFSR_UNDEFINSTR_Msk) != 0) {
    3bb4:	6aab      	ldr	r3, [r5, #40]	; 0x28
    3bb6:	03db      	lsls	r3, r3, #15
    3bb8:	d504      	bpl.n	3bc4 <usage_fault.isra.0+0x7c>
		PR_FAULT_INFO("  Attempt to execute undefined instruction");
    3bba:	4810      	ldr	r0, [pc, #64]	; (3bfc <usage_fault.isra.0+0xb4>)
    3bbc:	f044 0101 	orr.w	r1, r4, #1
    3bc0:	f004 fa30 	bl	8024 <log_0>
	}

	/* clear UFSR sticky bits */
	SCB->CFSR |= SCB_CFSR_USGFAULTSR_Msk;
    3bc4:	4a06      	ldr	r2, [pc, #24]	; (3be0 <usage_fault.isra.0+0x98>)
    3bc6:	6a93      	ldr	r3, [r2, #40]	; 0x28
    3bc8:	ea6f 4303 	mvn.w	r3, r3, lsl #16
    3bcc:	ea6f 4313 	mvn.w	r3, r3, lsr #16
    3bd0:	6293      	str	r3, [r2, #40]	; 0x28

	return reason;
}
    3bd2:	2000      	movs	r0, #0
    3bd4:	bd70      	pop	{r4, r5, r6, pc}
    3bd6:	bf00      	nop
    3bd8:	00009384 	.word	0x00009384
    3bdc:	000093a4 	.word	0x000093a4
    3be0:	e000ed00 	.word	0xe000ed00
    3be4:	00009949 	.word	0x00009949
    3be8:	00009961 	.word	0x00009961
    3bec:	00009974 	.word	0x00009974
    3bf0:	0000998e 	.word	0x0000998e
    3bf4:	000099ac 	.word	0x000099ac
    3bf8:	000099d1 	.word	0x000099d1
    3bfc:	000099eb 	.word	0x000099eb

00003c00 <mem_manage_fault.isra.0>:
static uint32_t mem_manage_fault(z_arch_esf_t *esf, int from_hard_fault,
    3c00:	e92d 41f0 	stmdb	sp!, {r4, r5, r6, r7, r8, lr}
    3c04:	4b28      	ldr	r3, [pc, #160]	; (3ca8 <mem_manage_fault.isra.0+0xa8>)
    3c06:	4c29      	ldr	r4, [pc, #164]	; (3cac <mem_manage_fault.isra.0+0xac>)
	if ((SCB->CFSR & SCB_CFSR_MSTKERR_Msk) != 0) {
    3c08:	4d29      	ldr	r5, [pc, #164]	; (3cb0 <mem_manage_fault.isra.0+0xb0>)
    3c0a:	1ae4      	subs	r4, r4, r3
    3c0c:	08e4      	lsrs	r4, r4, #3
	PR_FAULT_INFO("***** MPU FAULT *****");
    3c0e:	01a4      	lsls	r4, r4, #6
    3c10:	f044 0801 	orr.w	r8, r4, #1
static uint32_t mem_manage_fault(z_arch_esf_t *esf, int from_hard_fault,
    3c14:	4607      	mov	r7, r0
    3c16:	460e      	mov	r6, r1
	PR_FAULT_INFO("***** MPU FAULT *****");
    3c18:	4826      	ldr	r0, [pc, #152]	; (3cb4 <mem_manage_fault.isra.0+0xb4>)
    3c1a:	4641      	mov	r1, r8
    3c1c:	f004 fa02 	bl	8024 <log_0>
	if ((SCB->CFSR & SCB_CFSR_MSTKERR_Msk) != 0) {
    3c20:	6aaa      	ldr	r2, [r5, #40]	; 0x28
    3c22:	06d0      	lsls	r0, r2, #27
    3c24:	d503      	bpl.n	3c2e <mem_manage_fault.isra.0+0x2e>
		PR_FAULT_INFO("  Stacking error (context area might be"
    3c26:	4824      	ldr	r0, [pc, #144]	; (3cb8 <mem_manage_fault.isra.0+0xb8>)
    3c28:	4641      	mov	r1, r8
    3c2a:	f004 f9fb 	bl	8024 <log_0>
	if ((SCB->CFSR & SCB_CFSR_MUNSTKERR_Msk) != 0) {
    3c2e:	6aab      	ldr	r3, [r5, #40]	; 0x28
    3c30:	0719      	lsls	r1, r3, #28
    3c32:	d504      	bpl.n	3c3e <mem_manage_fault.isra.0+0x3e>
		PR_FAULT_INFO("  Unstacking error");
    3c34:	4821      	ldr	r0, [pc, #132]	; (3cbc <mem_manage_fault.isra.0+0xbc>)
    3c36:	f044 0101 	orr.w	r1, r4, #1
    3c3a:	f004 f9f3 	bl	8024 <log_0>
	if ((SCB->CFSR & SCB_CFSR_DACCVIOL_Msk) != 0) {
    3c3e:	4d1c      	ldr	r5, [pc, #112]	; (3cb0 <mem_manage_fault.isra.0+0xb0>)
    3c40:	6aab      	ldr	r3, [r5, #40]	; 0x28
    3c42:	079a      	lsls	r2, r3, #30
    3c44:	d512      	bpl.n	3c6c <mem_manage_fault.isra.0+0x6c>
		PR_FAULT_INFO("  Data Access Violation");
    3c46:	f044 0801 	orr.w	r8, r4, #1
    3c4a:	4641      	mov	r1, r8
    3c4c:	481c      	ldr	r0, [pc, #112]	; (3cc0 <mem_manage_fault.isra.0+0xc0>)
    3c4e:	f004 f9e9 	bl	8024 <log_0>
		uint32_t temp = SCB->MMFAR;
    3c52:	6b69      	ldr	r1, [r5, #52]	; 0x34
		if ((SCB->CFSR & SCB_CFSR_MMARVALID_Msk) != 0) {
    3c54:	6aab      	ldr	r3, [r5, #40]	; 0x28
    3c56:	061b      	lsls	r3, r3, #24
    3c58:	d508      	bpl.n	3c6c <mem_manage_fault.isra.0+0x6c>
			PR_EXC("  MMFAR Address: 0x%x", mmfar);
    3c5a:	481a      	ldr	r0, [pc, #104]	; (3cc4 <mem_manage_fault.isra.0+0xc4>)
    3c5c:	4642      	mov	r2, r8
    3c5e:	f004 f9ee 	bl	803e <log_1>
			if (from_hard_fault != 0) {
    3c62:	b11f      	cbz	r7, 3c6c <mem_manage_fault.isra.0+0x6c>
				SCB->CFSR &= ~SCB_CFSR_MMARVALID_Msk;
    3c64:	6aab      	ldr	r3, [r5, #40]	; 0x28
    3c66:	f023 0380 	bic.w	r3, r3, #128	; 0x80
    3c6a:	62ab      	str	r3, [r5, #40]	; 0x28
	if ((SCB->CFSR & SCB_CFSR_IACCVIOL_Msk) != 0) {
    3c6c:	4d10      	ldr	r5, [pc, #64]	; (3cb0 <mem_manage_fault.isra.0+0xb0>)
    3c6e:	6aaa      	ldr	r2, [r5, #40]	; 0x28
    3c70:	07d0      	lsls	r0, r2, #31
    3c72:	d504      	bpl.n	3c7e <mem_manage_fault.isra.0+0x7e>
		PR_FAULT_INFO("  Instruction Access Violation");
    3c74:	4814      	ldr	r0, [pc, #80]	; (3cc8 <mem_manage_fault.isra.0+0xc8>)
    3c76:	f044 0101 	orr.w	r1, r4, #1
    3c7a:	f004 f9d3 	bl	8024 <log_0>
	if ((SCB->CFSR & SCB_CFSR_MLSPERR_Msk) != 0) {
    3c7e:	6aab      	ldr	r3, [r5, #40]	; 0x28
    3c80:	0699      	lsls	r1, r3, #26
    3c82:	d504      	bpl.n	3c8e <mem_manage_fault.isra.0+0x8e>
		PR_FAULT_INFO(
    3c84:	4811      	ldr	r0, [pc, #68]	; (3ccc <mem_manage_fault.isra.0+0xcc>)
    3c86:	f044 0101 	orr.w	r1, r4, #1
    3c8a:	f004 f9cb 	bl	8024 <log_0>
	if ((SCB->CFSR & SCB_CFSR_MSTKERR_Msk) ||
    3c8e:	4b08      	ldr	r3, [pc, #32]	; (3cb0 <mem_manage_fault.isra.0+0xb0>)
    3c90:	6a9a      	ldr	r2, [r3, #40]	; 0x28
    3c92:	06d2      	lsls	r2, r2, #27
		(SCB->CFSR & SCB_CFSR_DACCVIOL_Msk)) {
    3c94:	bf58      	it	pl
    3c96:	6a9a      	ldrpl	r2, [r3, #40]	; 0x28
	SCB->CFSR |= SCB_CFSR_MEMFAULTSR_Msk;
    3c98:	6a9a      	ldr	r2, [r3, #40]	; 0x28
	*recoverable = memory_fault_recoverable(esf, true);
    3c9a:	2000      	movs	r0, #0
	SCB->CFSR |= SCB_CFSR_MEMFAULTSR_Msk;
    3c9c:	f042 02ff 	orr.w	r2, r2, #255	; 0xff
    3ca0:	629a      	str	r2, [r3, #40]	; 0x28
	*recoverable = memory_fault_recoverable(esf, true);
    3ca2:	7030      	strb	r0, [r6, #0]
}
    3ca4:	e8bd 81f0 	ldmia.w	sp!, {r4, r5, r6, r7, r8, pc}
    3ca8:	00009384 	.word	0x00009384
    3cac:	000093a4 	.word	0x000093a4
    3cb0:	e000ed00 	.word	0xe000ed00
    3cb4:	00009a16 	.word	0x00009a16
    3cb8:	00009a2c 	.word	0x00009a2c
    3cbc:	00009a5f 	.word	0x00009a5f
    3cc0:	00009a72 	.word	0x00009a72
    3cc4:	00009a8a 	.word	0x00009a8a
    3cc8:	00009aa0 	.word	0x00009aa0
    3ccc:	00009abf 	.word	0x00009abf

00003cd0 <bus_fault.isra.0>:
static int bus_fault(z_arch_esf_t *esf, int from_hard_fault, bool *recoverable)
    3cd0:	e92d 41f0 	stmdb	sp!, {r4, r5, r6, r7, r8, lr}
    3cd4:	4b2a      	ldr	r3, [pc, #168]	; (3d80 <bus_fault.isra.0+0xb0>)
    3cd6:	4c2b      	ldr	r4, [pc, #172]	; (3d84 <bus_fault.isra.0+0xb4>)
	if (SCB->CFSR & SCB_CFSR_STKERR_Msk) {
    3cd8:	4d2b      	ldr	r5, [pc, #172]	; (3d88 <bus_fault.isra.0+0xb8>)
    3cda:	1ae4      	subs	r4, r4, r3
    3cdc:	08e4      	lsrs	r4, r4, #3
	PR_FAULT_INFO("***** BUS FAULT *****");
    3cde:	01a4      	lsls	r4, r4, #6
    3ce0:	f044 0801 	orr.w	r8, r4, #1
static int bus_fault(z_arch_esf_t *esf, int from_hard_fault, bool *recoverable)
    3ce4:	4607      	mov	r7, r0
    3ce6:	460e      	mov	r6, r1
	PR_FAULT_INFO("***** BUS FAULT *****");
    3ce8:	4828      	ldr	r0, [pc, #160]	; (3d8c <bus_fault.isra.0+0xbc>)
    3cea:	4641      	mov	r1, r8
    3cec:	f004 f99a 	bl	8024 <log_0>
	if (SCB->CFSR & SCB_CFSR_STKERR_Msk) {
    3cf0:	6aaa      	ldr	r2, [r5, #40]	; 0x28
    3cf2:	04d1      	lsls	r1, r2, #19
    3cf4:	d503      	bpl.n	3cfe <bus_fault.isra.0+0x2e>
		PR_FAULT_INFO("  Stacking error");
    3cf6:	4826      	ldr	r0, [pc, #152]	; (3d90 <bus_fault.isra.0+0xc0>)
    3cf8:	4641      	mov	r1, r8
    3cfa:	f004 f993 	bl	8024 <log_0>
	if (SCB->CFSR & SCB_CFSR_UNSTKERR_Msk) {
    3cfe:	6aab      	ldr	r3, [r5, #40]	; 0x28
    3d00:	051a      	lsls	r2, r3, #20
    3d02:	d504      	bpl.n	3d0e <bus_fault.isra.0+0x3e>
		PR_FAULT_INFO("  Unstacking error");
    3d04:	4823      	ldr	r0, [pc, #140]	; (3d94 <bus_fault.isra.0+0xc4>)
    3d06:	f044 0101 	orr.w	r1, r4, #1
    3d0a:	f004 f98b 	bl	8024 <log_0>
	if (SCB->CFSR & SCB_CFSR_PRECISERR_Msk) {
    3d0e:	4d1e      	ldr	r5, [pc, #120]	; (3d88 <bus_fault.isra.0+0xb8>)
    3d10:	6aab      	ldr	r3, [r5, #40]	; 0x28
    3d12:	059b      	lsls	r3, r3, #22
    3d14:	d512      	bpl.n	3d3c <bus_fault.isra.0+0x6c>
		PR_FAULT_INFO("  Precise data bus error");
    3d16:	f044 0801 	orr.w	r8, r4, #1
    3d1a:	481f      	ldr	r0, [pc, #124]	; (3d98 <bus_fault.isra.0+0xc8>)
    3d1c:	4641      	mov	r1, r8
    3d1e:	f004 f981 	bl	8024 <log_0>
		STORE_xFAR(bfar, SCB->BFAR);
    3d22:	6ba9      	ldr	r1, [r5, #56]	; 0x38
		if ((SCB->CFSR & SCB_CFSR_BFARVALID_Msk) != 0) {
    3d24:	6aab      	ldr	r3, [r5, #40]	; 0x28
    3d26:	0418      	lsls	r0, r3, #16
    3d28:	d508      	bpl.n	3d3c <bus_fault.isra.0+0x6c>
			PR_EXC("  BFAR Address: 0x%x", bfar);
    3d2a:	481c      	ldr	r0, [pc, #112]	; (3d9c <bus_fault.isra.0+0xcc>)
    3d2c:	4642      	mov	r2, r8
    3d2e:	f004 f986 	bl	803e <log_1>
			if (from_hard_fault != 0) {
    3d32:	b11f      	cbz	r7, 3d3c <bus_fault.isra.0+0x6c>
				SCB->CFSR &= ~SCB_CFSR_BFARVALID_Msk;
    3d34:	6aab      	ldr	r3, [r5, #40]	; 0x28
    3d36:	f423 4300 	bic.w	r3, r3, #32768	; 0x8000
    3d3a:	62ab      	str	r3, [r5, #40]	; 0x28
	if (SCB->CFSR & SCB_CFSR_IMPRECISERR_Msk) {
    3d3c:	4d12      	ldr	r5, [pc, #72]	; (3d88 <bus_fault.isra.0+0xb8>)
    3d3e:	6aab      	ldr	r3, [r5, #40]	; 0x28
    3d40:	0559      	lsls	r1, r3, #21
    3d42:	d504      	bpl.n	3d4e <bus_fault.isra.0+0x7e>
		PR_FAULT_INFO("  Imprecise data bus error");
    3d44:	4816      	ldr	r0, [pc, #88]	; (3da0 <bus_fault.isra.0+0xd0>)
    3d46:	f044 0101 	orr.w	r1, r4, #1
    3d4a:	f004 f96b 	bl	8024 <log_0>
	if ((SCB->CFSR & SCB_CFSR_IBUSERR_Msk) != 0) {
    3d4e:	6aab      	ldr	r3, [r5, #40]	; 0x28
    3d50:	05da      	lsls	r2, r3, #23
    3d52:	d50d      	bpl.n	3d70 <bus_fault.isra.0+0xa0>
		PR_FAULT_INFO("  Instruction bus error");
    3d54:	4813      	ldr	r0, [pc, #76]	; (3da4 <bus_fault.isra.0+0xd4>)
    3d56:	f044 0101 	orr.w	r1, r4, #1
		PR_FAULT_INFO("  Floating-point lazy state preservation error");
    3d5a:	f004 f963 	bl	8024 <log_0>
	SCB->CFSR |= SCB_CFSR_BUSFAULTSR_Msk;
    3d5e:	4a0a      	ldr	r2, [pc, #40]	; (3d88 <bus_fault.isra.0+0xb8>)
    3d60:	6a93      	ldr	r3, [r2, #40]	; 0x28
	*recoverable = memory_fault_recoverable(esf, true);
    3d62:	2000      	movs	r0, #0
	SCB->CFSR |= SCB_CFSR_BUSFAULTSR_Msk;
    3d64:	f443 437f 	orr.w	r3, r3, #65280	; 0xff00
    3d68:	6293      	str	r3, [r2, #40]	; 0x28
	*recoverable = memory_fault_recoverable(esf, true);
    3d6a:	7030      	strb	r0, [r6, #0]
}
    3d6c:	e8bd 81f0 	ldmia.w	sp!, {r4, r5, r6, r7, r8, pc}
	} else if (SCB->CFSR & SCB_CFSR_LSPERR_Msk) {
    3d70:	6aab      	ldr	r3, [r5, #40]	; 0x28
    3d72:	049b      	lsls	r3, r3, #18
    3d74:	d5f3      	bpl.n	3d5e <bus_fault.isra.0+0x8e>
		PR_FAULT_INFO("  Floating-point lazy state preservation error");
    3d76:	480c      	ldr	r0, [pc, #48]	; (3da8 <bus_fault.isra.0+0xd8>)
    3d78:	f044 0101 	orr.w	r1, r4, #1
    3d7c:	e7ed      	b.n	3d5a <bus_fault.isra.0+0x8a>
    3d7e:	bf00      	nop
    3d80:	00009384 	.word	0x00009384
    3d84:	000093a4 	.word	0x000093a4
    3d88:	e000ed00 	.word	0xe000ed00
    3d8c:	00009aee 	.word	0x00009aee
    3d90:	00009b04 	.word	0x00009b04
    3d94:	00009a5f 	.word	0x00009a5f
    3d98:	00009b15 	.word	0x00009b15
    3d9c:	00009b2e 	.word	0x00009b2e
    3da0:	00009b43 	.word	0x00009b43
    3da4:	00009b5e 	.word	0x00009b5e
    3da8:	00009abf 	.word	0x00009abf

00003dac <z_arm_fault>:
 * @param callee_regs Callee-saved registers (R4-R11, PSP)
 *
 */
void z_arm_fault(uint32_t msp, uint32_t psp, uint32_t exc_return,
	_callee_saved_t *callee_regs)
{
    3dac:	e92d 41f0 	stmdb	sp!, {r4, r5, r6, r7, r8, lr}
    3db0:	460d      	mov	r5, r1
	uint32_t reason = K_ERR_CPU_EXCEPTION;
	int fault = SCB->ICSR & SCB_ICSR_VECTACTIVE_Msk;
    3db2:	495a      	ldr	r1, [pc, #360]	; (3f1c <z_arm_fault+0x170>)
    3db4:	684f      	ldr	r7, [r1, #4]
{
    3db6:	b08a      	sub	sp, #40	; 0x28
	int fault = SCB->ICSR & SCB_ICSR_VECTACTIVE_Msk;
    3db8:	f3c7 0408 	ubfx	r4, r7, #0, #9
    3dbc:	2600      	movs	r6, #0
    3dbe:	f386 8811 	msr	BASEPRI, r6
    3dc2:	f3bf 8f6f 	isb	sy
	if ((exc_return & EXC_RETURN_INDICATOR_PREFIX) !=
    3dc6:	f002 417f 	and.w	r1, r2, #4278190080	; 0xff000000
    3dca:	f1b1 4f7f 	cmp.w	r1, #4278190080	; 0xff000000
    3dce:	d10d      	bne.n	3dec <z_arm_fault+0x40>
	if ((exc_return & EXC_RETURN_MODE_THREAD) &&
    3dd0:	f002 010c 	and.w	r1, r2, #12
    3dd4:	2908      	cmp	r1, #8
    3dd6:	d10b      	bne.n	3df0 <z_arm_fault+0x44>
    3dd8:	4951      	ldr	r1, [pc, #324]	; (3f20 <z_arm_fault+0x174>)
    3dda:	4b52      	ldr	r3, [pc, #328]	; (3f24 <z_arm_fault+0x178>)
		PR_EXC("SPSEL in thread mode does not indicate PSP");
    3ddc:	4852      	ldr	r0, [pc, #328]	; (3f28 <z_arm_fault+0x17c>)
    3dde:	1ac9      	subs	r1, r1, r3
    3de0:	08c9      	lsrs	r1, r1, #3
    3de2:	0189      	lsls	r1, r1, #6
    3de4:	f041 0101 	orr.w	r1, r1, #1
    3de8:	f004 f91c 	bl	8024 <log_0>
		return NULL;
    3dec:	4635      	mov	r5, r6
    3dee:	e003      	b.n	3df8 <z_arm_fault+0x4c>
		if (exc_return & EXC_RETURN_MODE_THREAD) {
    3df0:	0712      	lsls	r2, r2, #28
    3df2:	d401      	bmi.n	3df8 <z_arm_fault+0x4c>
			ptr_esf = (z_arch_esf_t *)msp;
    3df4:	4605      	mov	r5, r0
			*nested_exc = true;
    3df6:	2601      	movs	r6, #1
	*recoverable = false;
    3df8:	2300      	movs	r3, #0
    3dfa:	f88d 3007 	strb.w	r3, [sp, #7]
	switch (fault) {
    3dfe:	1ee3      	subs	r3, r4, #3
    3e00:	2b09      	cmp	r3, #9
    3e02:	d871      	bhi.n	3ee8 <z_arm_fault+0x13c>
    3e04:	e8df f003 	tbb	[pc, r3]
    3e08:	3c635f05 	.word	0x3c635f05
    3e0c:	70707070 	.word	0x70707070
    3e10:	6770      	.short	0x6770
    3e12:	4b44      	ldr	r3, [pc, #272]	; (3f24 <z_arm_fault+0x178>)
    3e14:	4f42      	ldr	r7, [pc, #264]	; (3f20 <z_arm_fault+0x174>)
	PR_FAULT_INFO("***** HARD FAULT *****");
    3e16:	4845      	ldr	r0, [pc, #276]	; (3f2c <z_arm_fault+0x180>)
    3e18:	1aff      	subs	r7, r7, r3
    3e1a:	08ff      	lsrs	r7, r7, #3
    3e1c:	01bf      	lsls	r7, r7, #6
    3e1e:	f047 0701 	orr.w	r7, r7, #1
    3e22:	4639      	mov	r1, r7
    3e24:	f004 f8fe 	bl	8024 <log_0>
	if ((SCB->HFSR & SCB_HFSR_VECTTBL_Msk) != 0) {
    3e28:	4b3c      	ldr	r3, [pc, #240]	; (3f1c <z_arm_fault+0x170>)
    3e2a:	6adc      	ldr	r4, [r3, #44]	; 0x2c
	*recoverable = false;
    3e2c:	f04f 0800 	mov.w	r8, #0
	if ((SCB->HFSR & SCB_HFSR_VECTTBL_Msk) != 0) {
    3e30:	f014 0402 	ands.w	r4, r4, #2
	*recoverable = false;
    3e34:	f88d 8007 	strb.w	r8, [sp, #7]
	if ((SCB->HFSR & SCB_HFSR_VECTTBL_Msk) != 0) {
    3e38:	d005      	beq.n	3e46 <z_arm_fault+0x9a>
		PR_EXC("  Bus fault on vector table read");
    3e3a:	483d      	ldr	r0, [pc, #244]	; (3f30 <z_arm_fault+0x184>)
    3e3c:	4639      	mov	r1, r7
	PR_FAULT_INFO(
    3e3e:	f004 f8f1 	bl	8024 <log_0>
	uint32_t reason = K_ERR_CPU_EXCEPTION;
    3e42:	2400      	movs	r4, #0
}
    3e44:	e01f      	b.n	3e86 <z_arm_fault+0xda>
	} else if ((SCB->HFSR & SCB_HFSR_FORCED_Msk) != 0) {
    3e46:	6adb      	ldr	r3, [r3, #44]	; 0x2c
    3e48:	005b      	lsls	r3, r3, #1
    3e4a:	d51c      	bpl.n	3e86 <z_arm_fault+0xda>
		PR_EXC("  Fault escalation (see below)");
    3e4c:	4839      	ldr	r0, [pc, #228]	; (3f34 <z_arm_fault+0x188>)
    3e4e:	4639      	mov	r1, r7
    3e50:	f004 f8e8 	bl	8024 <log_0>
		if (SCB_MMFSR != 0) {
    3e54:	4b38      	ldr	r3, [pc, #224]	; (3f38 <z_arm_fault+0x18c>)
    3e56:	781b      	ldrb	r3, [r3, #0]
    3e58:	b12b      	cbz	r3, 3e66 <z_arm_fault+0xba>
			reason = mem_manage_fault(esf, 1, recoverable);
    3e5a:	f10d 0107 	add.w	r1, sp, #7
    3e5e:	2001      	movs	r0, #1
		reason = mem_manage_fault(esf, 0, recoverable);
    3e60:	f7ff fece 	bl	3c00 <mem_manage_fault.isra.0>
    3e64:	e00e      	b.n	3e84 <z_arm_fault+0xd8>
		} else if (SCB_BFSR != 0) {
    3e66:	4b35      	ldr	r3, [pc, #212]	; (3f3c <z_arm_fault+0x190>)
    3e68:	781b      	ldrb	r3, [r3, #0]
    3e6a:	b12b      	cbz	r3, 3e78 <z_arm_fault+0xcc>
			reason = bus_fault(esf, 1, recoverable);
    3e6c:	f10d 0107 	add.w	r1, sp, #7
    3e70:	2001      	movs	r0, #1
		reason = bus_fault(esf, 0, recoverable);
    3e72:	f7ff ff2d 	bl	3cd0 <bus_fault.isra.0>
    3e76:	e005      	b.n	3e84 <z_arm_fault+0xd8>
		} else if (SCB_UFSR != 0) {
    3e78:	4b31      	ldr	r3, [pc, #196]	; (3f40 <z_arm_fault+0x194>)
    3e7a:	881b      	ldrh	r3, [r3, #0]
    3e7c:	b29b      	uxth	r3, r3
    3e7e:	b113      	cbz	r3, 3e86 <z_arm_fault+0xda>
			reason = usage_fault(esf);
    3e80:	f7ff fe62 	bl	3b48 <usage_fault.isra.0>
    3e84:	4604      	mov	r4, r0
#ifdef CONFIG_DEBUG_COREDUMP
	z_arm_coredump_fault_sp = POINTER_TO_UINT(esf);
#endif

	reason = fault_handle(esf, fault, &recoverable);
	if (recoverable) {
    3e86:	f89d 3007 	ldrb.w	r3, [sp, #7]
    3e8a:	b9cb      	cbnz	r3, 3ec0 <z_arm_fault+0x114>
		return;
	}

	/* Copy ESF */
#if !defined(CONFIG_EXTRA_EXCEPTION_INFO)
	memcpy(&esf_copy, esf, sizeof(z_arch_esf_t));
    3e8c:	462b      	mov	r3, r5
    3e8e:	f103 0720 	add.w	r7, r3, #32
    3e92:	ad02      	add	r5, sp, #8
    3e94:	6818      	ldr	r0, [r3, #0]
    3e96:	6859      	ldr	r1, [r3, #4]
    3e98:	462a      	mov	r2, r5
    3e9a:	c203      	stmia	r2!, {r0, r1}
    3e9c:	3308      	adds	r3, #8
    3e9e:	42bb      	cmp	r3, r7
    3ea0:	4615      	mov	r5, r2
    3ea2:	d1f7      	bne.n	3e94 <z_arm_fault+0xe8>
	/* Overwrite stacked IPSR to mark a nested exception,
	 * or a return to Thread mode. Note that this may be
	 * required, if the retrieved ESF contents are invalid
	 * due to, for instance, a stacking error.
	 */
	if (nested_exc) {
    3ea4:	9b09      	ldr	r3, [sp, #36]	; 0x24
    3ea6:	b39e      	cbz	r6, 3f10 <z_arm_fault+0x164>
		if ((esf_copy.basic.xpsr & IPSR_ISR_Msk) == 0) {
    3ea8:	f3c3 0208 	ubfx	r2, r3, #0, #9
    3eac:	b922      	cbnz	r2, 3eb8 <z_arm_fault+0x10c>
			esf_copy.basic.xpsr |= IPSR_ISR_Msk;
    3eae:	ea6f 2353 	mvn.w	r3, r3, lsr #9
    3eb2:	ea6f 2343 	mvn.w	r3, r3, lsl #9
		}
	} else {
		esf_copy.basic.xpsr &= ~(IPSR_ISR_Msk);
    3eb6:	9309      	str	r3, [sp, #36]	; 0x24
	}

	z_arm_fatal_error(reason, &esf_copy);
    3eb8:	a902      	add	r1, sp, #8
    3eba:	4620      	mov	r0, r4
    3ebc:	f7ff fda4 	bl	3a08 <z_arm_fatal_error>
}
    3ec0:	b00a      	add	sp, #40	; 0x28
    3ec2:	e8bd 81f0 	ldmia.w	sp!, {r4, r5, r6, r7, r8, pc}
		reason = mem_manage_fault(esf, 0, recoverable);
    3ec6:	f10d 0107 	add.w	r1, sp, #7
    3eca:	2000      	movs	r0, #0
    3ecc:	e7c8      	b.n	3e60 <z_arm_fault+0xb4>
		reason = bus_fault(esf, 0, recoverable);
    3ece:	f10d 0107 	add.w	r1, sp, #7
    3ed2:	2000      	movs	r0, #0
    3ed4:	e7cd      	b.n	3e72 <z_arm_fault+0xc6>
    3ed6:	4912      	ldr	r1, [pc, #72]	; (3f20 <z_arm_fault+0x174>)
    3ed8:	4b12      	ldr	r3, [pc, #72]	; (3f24 <z_arm_fault+0x178>)
	PR_FAULT_INFO(
    3eda:	481a      	ldr	r0, [pc, #104]	; (3f44 <z_arm_fault+0x198>)
    3edc:	1ac9      	subs	r1, r1, r3
    3ede:	08c9      	lsrs	r1, r1, #3
    3ee0:	0189      	lsls	r1, r1, #6
    3ee2:	f041 0101 	orr.w	r1, r1, #1
    3ee6:	e7aa      	b.n	3e3e <z_arm_fault+0x92>
    3ee8:	4a0e      	ldr	r2, [pc, #56]	; (3f24 <z_arm_fault+0x178>)
    3eea:	4b0d      	ldr	r3, [pc, #52]	; (3f20 <z_arm_fault+0x174>)
	PR_FAULT_INFO("***** %s %d) *****",
    3eec:	4816      	ldr	r0, [pc, #88]	; (3f48 <z_arm_fault+0x19c>)
    3eee:	4917      	ldr	r1, [pc, #92]	; (3f4c <z_arm_fault+0x1a0>)
    3ef0:	1a9b      	subs	r3, r3, r2
    3ef2:	08db      	lsrs	r3, r3, #3
    3ef4:	f417 7ff8 	tst.w	r7, #496	; 0x1f0
    3ef8:	ea4f 1383 	mov.w	r3, r3, lsl #6
    3efc:	bf18      	it	ne
    3efe:	4601      	movne	r1, r0
    3f00:	f043 0301 	orr.w	r3, r3, #1
    3f04:	4812      	ldr	r0, [pc, #72]	; (3f50 <z_arm_fault+0x1a4>)
    3f06:	f1a4 0210 	sub.w	r2, r4, #16
    3f0a:	f004 f8ac 	bl	8066 <log_2>
    3f0e:	e798      	b.n	3e42 <z_arm_fault+0x96>
		esf_copy.basic.xpsr &= ~(IPSR_ISR_Msk);
    3f10:	f423 73ff 	bic.w	r3, r3, #510	; 0x1fe
    3f14:	f023 0301 	bic.w	r3, r3, #1
    3f18:	e7cd      	b.n	3eb6 <z_arm_fault+0x10a>
    3f1a:	bf00      	nop
    3f1c:	e000ed00 	.word	0xe000ed00
    3f20:	000093a4 	.word	0x000093a4
    3f24:	00009384 	.word	0x00009384
    3f28:	00009b76 	.word	0x00009b76
    3f2c:	00009ba1 	.word	0x00009ba1
    3f30:	00009bb8 	.word	0x00009bb8
    3f34:	00009bd9 	.word	0x00009bd9
    3f38:	e000ed28 	.word	0xe000ed28
    3f3c:	e000ed29 	.word	0xe000ed29
    3f40:	e000ed2a 	.word	0xe000ed2a
    3f44:	00009bf8 	.word	0x00009bf8
    3f48:	00009c31 	.word	0x00009c31
    3f4c:	00009c1c 	.word	0x00009c1c
    3f50:	00009c4a 	.word	0x00009c4a

00003f54 <z_arm_fault_init>:
 */
void z_arm_fault_init(void)
{
#if defined(CONFIG_ARMV6_M_ARMV8_M_BASELINE)
#elif defined(CONFIG_ARMV7_M_ARMV8_M_MAINLINE)
	SCB->CCR |= SCB_CCR_DIV_0_TRP_Msk;
    3f54:	4a02      	ldr	r2, [pc, #8]	; (3f60 <z_arm_fault_init+0xc>)
    3f56:	6953      	ldr	r3, [r2, #20]
    3f58:	f043 0310 	orr.w	r3, r3, #16
    3f5c:	6153      	str	r3, [r2, #20]
	 * Stack to attempt to descend into secure region, in which case a
	 * Secure Hard Fault will occur and we can track the fault from there.
	 */
	SCB->CCR |= SCB_CCR_STKOFHFNMIGN_Msk;
#endif /* CONFIG_BUILTIN_STACK_GUARD */
}
    3f5e:	4770      	bx	lr
    3f60:	e000ed00 	.word	0xe000ed00

00003f64 <z_arm_exc_exit>:
 */

SECTION_SUBSEC_FUNC(TEXT, _HandlerModeExit, z_arm_exc_exit)

#ifdef CONFIG_PREEMPT_ENABLED
	ldr r3, =_kernel
    3f64:	4b04      	ldr	r3, [pc, #16]	; (3f78 <_EXIT_EXC+0x2>)

	ldr r1, [r3, #_kernel_offset_to_current]
    3f66:	6899      	ldr	r1, [r3, #8]
	ldr r0, [r3, #_kernel_offset_to_ready_q_cache]
    3f68:	6a58      	ldr	r0, [r3, #36]	; 0x24
	cmp r0, r1
    3f6a:	4288      	cmp	r0, r1
	beq _EXIT_EXC
    3f6c:	d003      	beq.n	3f76 <_EXIT_EXC>

	/* context switch required, pend the PendSV exception */
	ldr r1, =_SCS_ICSR
    3f6e:	4903      	ldr	r1, [pc, #12]	; (3f7c <_EXIT_EXC+0x6>)
	ldr r2, =_SCS_ICSR_PENDSV
    3f70:	f04f 5280 	mov.w	r2, #268435456	; 0x10000000
	str r2, [r1]
    3f74:	600a      	str	r2, [r1, #0]

00003f76 <_EXIT_EXC>:
#else
	pop {r0, lr}
#endif /* CONFIG_ARMV6_M_ARMV8_M_BASELINE */
#endif /* CONFIG_STACK_SENTINEL */

	bx lr
    3f76:	4770      	bx	lr
	ldr r3, =_kernel
    3f78:	2000092c 	.word	0x2000092c
	ldr r1, =_SCS_ICSR
    3f7c:	e000ed04 	.word	0xe000ed04

00003f80 <z_arm_interrupt_init>:
    3f80:	4804      	ldr	r0, [pc, #16]	; (3f94 <z_arm_interrupt_init+0x14>)
 * @return N/A
 */

void z_arm_interrupt_init(void)
{
	int irq = 0;
    3f82:	2300      	movs	r3, #0
    3f84:	2120      	movs	r1, #32
    3f86:	18c2      	adds	r2, r0, r3

	for (; irq < CONFIG_NUM_IRQS; irq++) {
    3f88:	3301      	adds	r3, #1
    3f8a:	2b30      	cmp	r3, #48	; 0x30
    3f8c:	f882 1300 	strb.w	r1, [r2, #768]	; 0x300
    3f90:	d1f9      	bne.n	3f86 <z_arm_interrupt_init+0x6>
		NVIC_SetPriority((IRQn_Type)irq, _IRQ_PRIO_OFFSET);
	}
}
    3f92:	4770      	bx	lr
    3f94:	e000e100 	.word	0xe000e100

00003f98 <z_impl_k_thread_abort>:
#include <wait_q.h>
#include <sys/__assert.h>

void z_impl_k_thread_abort(k_tid_t thread)
{
	if (_current == thread) {
    3f98:	4b06      	ldr	r3, [pc, #24]	; (3fb4 <z_impl_k_thread_abort+0x1c>)
    3f9a:	689b      	ldr	r3, [r3, #8]
    3f9c:	4283      	cmp	r3, r0
    3f9e:	d107      	bne.n	3fb0 <z_impl_k_thread_abort+0x18>
  __ASM volatile ("MRS %0, ipsr" : "=r" (result) );
    3fa0:	f3ef 8305 	mrs	r3, IPSR
		if (arch_is_in_isr()) {
    3fa4:	b123      	cbz	r3, 3fb0 <z_impl_k_thread_abort+0x18>
			 * should no longer run after we return, so
			 * Trigger PendSV, in case we are in one of the
			 * situations where the isr check is true but there
			 * is not an implicit scheduler invocation.
			 */
			SCB->ICSR |= SCB_ICSR_PENDSVSET_Msk;
    3fa6:	4a04      	ldr	r2, [pc, #16]	; (3fb8 <z_impl_k_thread_abort+0x20>)
    3fa8:	6853      	ldr	r3, [r2, #4]
    3faa:	f043 5380 	orr.w	r3, r3, #268435456	; 0x10000000
    3fae:	6053      	str	r3, [r2, #4]
		}
	}

	z_thread_abort(thread);
    3fb0:	f003 b97e 	b.w	72b0 <z_thread_abort>
    3fb4:	2000092c 	.word	0x2000092c
    3fb8:	e000ed00 	.word	0xe000ed00

00003fbc <z_arm_configure_static_mpu_regions>:
	/* Configure the static MPU regions within firmware SRAM boundaries.
	 * Start address of the image is given by _image_ram_start. The end
	 * of the firmware SRAM area is marked by __kernel_ram_end, taking
	 * into account the unused SRAM area, as well.
	 */
	arm_core_mpu_configure_static_mpu_regions(static_regions,
    3fbc:	4b02      	ldr	r3, [pc, #8]	; (3fc8 <z_arm_configure_static_mpu_regions+0xc>)
    3fbe:	4a03      	ldr	r2, [pc, #12]	; (3fcc <z_arm_configure_static_mpu_regions+0x10>)
    3fc0:	4803      	ldr	r0, [pc, #12]	; (3fd0 <z_arm_configure_static_mpu_regions+0x14>)
    3fc2:	2101      	movs	r1, #1
    3fc4:	f000 b8a2 	b.w	410c <arm_core_mpu_configure_static_mpu_regions>
    3fc8:	20040000 	.word	0x20040000
    3fcc:	20000000 	.word	0x20000000
    3fd0:	000094d8 	.word	0x000094d8

00003fd4 <mpu_configure_regions>:
 * sanity check of the memory regions to be programmed.
 */
static int mpu_configure_regions(const struct z_arm_mpu_partition
	regions[], uint8_t regions_num, uint8_t start_reg_index,
	bool do_sanity_check)
{
    3fd4:	b5f8      	push	{r3, r4, r5, r6, r7, lr}
 */
static void region_init(const uint32_t index,
	const struct arm_mpu_region *region_conf)
{
	/* Select the region you want to access */
	MPU->RNR = index;
    3fd6:	4f28      	ldr	r7, [pc, #160]	; (4078 <mpu_configure_regions+0xa4>)
    3fd8:	460e      	mov	r6, r1
	int i;
	int reg_index = start_reg_index;

	for (i = 0; i < regions_num; i++) {
    3fda:	2100      	movs	r1, #0
    3fdc:	42b1      	cmp	r1, r6
    3fde:	da14      	bge.n	400a <mpu_configure_regions+0x36>
		if (regions[i].size == 0U) {
    3fe0:	6844      	ldr	r4, [r0, #4]
    3fe2:	2c00      	cmp	r4, #0
    3fe4:	d045      	beq.n	4072 <mpu_configure_regions+0x9e>
			continue;
		}
		/* Non-empty region. */

		if (do_sanity_check &&
    3fe6:	b1c3      	cbz	r3, 401a <mpu_configure_regions+0x46>
	 * and greater or equal to the minimum
	 * MPU region size. Start address of the
	 * partition must align with size.
	 */
	int partition_is_valid =
		((part->size & (part->size - 1U)) == 0U)
    3fe8:	f104 3cff 	add.w	ip, r4, #4294967295	; 0xffffffff
		&&
		(part->size >= CONFIG_ARM_MPU_REGION_MIN_ALIGN_AND_SIZE)
		&&
    3fec:	ea14 0f0c 	tst.w	r4, ip
    3ff0:	d00d      	beq.n	400e <mpu_configure_regions+0x3a>
    3ff2:	4a22      	ldr	r2, [pc, #136]	; (407c <mpu_configure_regions+0xa8>)
    3ff4:	4b22      	ldr	r3, [pc, #136]	; (4080 <mpu_configure_regions+0xac>)
				(!mpu_partition_is_valid(&regions[i]))) {
			LOG_ERR("Partition %u: sanity check failed.", i);
    3ff6:	4823      	ldr	r0, [pc, #140]	; (4084 <mpu_configure_regions+0xb0>)
    3ff8:	1ad2      	subs	r2, r2, r3
    3ffa:	08d2      	lsrs	r2, r2, #3
    3ffc:	0192      	lsls	r2, r2, #6
    3ffe:	f042 0201 	orr.w	r2, r2, #1
		LOG_ERR("Failed to allocate new MPU region %u\n", index);
    4002:	f004 f81c 	bl	803e <log_1>
			return -EINVAL;
		}

		reg_index = mpu_configure_region(reg_index, &regions[i]);
    4006:	f06f 0215 	mvn.w	r2, #21
		/* Increment number of programmed MPU indices. */
		reg_index++;
	}

	return reg_index;
}
    400a:	4610      	mov	r0, r2
    400c:	bdf8      	pop	{r3, r4, r5, r6, r7, pc}
		&&
    400e:	2c1f      	cmp	r4, #31
    4010:	d9ef      	bls.n	3ff2 <mpu_configure_regions+0x1e>
		((part->start & (part->size - 1U)) == 0U);
    4012:	6805      	ldr	r5, [r0, #0]
		&&
    4014:	ea1c 0f05 	tst.w	ip, r5
    4018:	d1eb      	bne.n	3ff2 <mpu_configure_regions+0x1e>
 * to that power-of-two value.
 */
static inline uint32_t size_to_mpu_rasr_size(uint32_t size)
{
	/* The minimal supported region size is 32 bytes */
	if (size <= 32U) {
    401a:	2c20      	cmp	r4, #32
		reg_index = mpu_configure_region(reg_index, &regions[i]);
    401c:	b2d5      	uxtb	r5, r2
	get_region_attr_from_mpu_partition_info(&region_conf.attr,
    401e:	f8d0 c008 	ldr.w	ip, [r0, #8]
	region_conf.base = new_region->start;
    4022:	6802      	ldr	r2, [r0, #0]
    4024:	d916      	bls.n	4054 <mpu_configure_regions+0x80>
	/*
	 * A size value greater than 2^31 could not be handled by
	 * round_up_to_next_power_of_two() properly. We handle
	 * it separately here.
	 */
	if (size > (1UL << 31)) {
    4026:	f1b4 4f00 	cmp.w	r4, #2147483648	; 0x80000000
    402a:	d815      	bhi.n	4058 <mpu_configure_regions+0x84>
		return REGION_4G;
	}

	return ((32 - __builtin_clz(size - 1U) - 2 + 1) << MPU_RASR_SIZE_Pos) &
    402c:	3c01      	subs	r4, #1
    402e:	fab4 f484 	clz	r4, r4
    4032:	f1c4 041f 	rsb	r4, r4, #31
    4036:	0064      	lsls	r4, r4, #1
	if (index > (get_num_regions() - 1U)) {
    4038:	2d07      	cmp	r5, #7
	/* in ARMv7-M MPU the base address is not required
	 * to determine region attributes
	 */
	(void) base;

	p_attr->rasr = attr->rasr_attr | size_to_mpu_rasr_size(size);
    403a:	ea4c 0404 	orr.w	r4, ip, r4
    403e:	d90d      	bls.n	405c <mpu_configure_regions+0x88>
    4040:	4a0e      	ldr	r2, [pc, #56]	; (407c <mpu_configure_regions+0xa8>)
    4042:	4b0f      	ldr	r3, [pc, #60]	; (4080 <mpu_configure_regions+0xac>)
		LOG_ERR("Failed to allocate new MPU region %u\n", index);
    4044:	4810      	ldr	r0, [pc, #64]	; (4088 <mpu_configure_regions+0xb4>)
    4046:	1ad2      	subs	r2, r2, r3
    4048:	08d2      	lsrs	r2, r2, #3
    404a:	0192      	lsls	r2, r2, #6
    404c:	f042 0201 	orr.w	r2, r2, #1
    4050:	4629      	mov	r1, r5
    4052:	e7d6      	b.n	4002 <mpu_configure_regions+0x2e>
		return REGION_32B;
    4054:	2408      	movs	r4, #8
    4056:	e7ef      	b.n	4038 <mpu_configure_regions+0x64>
		return REGION_4G;
    4058:	243e      	movs	r4, #62	; 0x3e
    405a:	e7ed      	b.n	4038 <mpu_configure_regions+0x64>
	MPU->RBAR = (region_conf->base & MPU_RBAR_ADDR_Msk)
    405c:	f022 021f 	bic.w	r2, r2, #31
				| MPU_RBAR_VALID_Msk | index;
    4060:	432a      	orrs	r2, r5
    4062:	f042 0210 	orr.w	r2, r2, #16
	MPU->RASR = region_conf->attr.rasr | MPU_RASR_ENABLE_Msk;
    4066:	f044 0401 	orr.w	r4, r4, #1
	MPU->RNR = index;
    406a:	60bd      	str	r5, [r7, #8]
	MPU->RBAR = (region_conf->base & MPU_RBAR_ADDR_Msk)
    406c:	60fa      	str	r2, [r7, #12]
	MPU->RASR = region_conf->attr.rasr | MPU_RASR_ENABLE_Msk;
    406e:	613c      	str	r4, [r7, #16]
		reg_index++;
    4070:	1c6a      	adds	r2, r5, #1
	for (i = 0; i < regions_num; i++) {
    4072:	3101      	adds	r1, #1
    4074:	300c      	adds	r0, #12
    4076:	e7b1      	b.n	3fdc <mpu_configure_regions+0x8>
    4078:	e000ed90 	.word	0xe000ed90
    407c:	0000939c 	.word	0x0000939c
    4080:	00009384 	.word	0x00009384
    4084:	00009c61 	.word	0x00009c61
    4088:	00009c84 	.word	0x00009c84

0000408c <arm_core_mpu_enable>:
void arm_core_mpu_enable(void)
{
	/* Enable MPU and use the default memory map as a
	 * background region for privileged software access.
	 */
	MPU->CTRL = MPU_CTRL_ENABLE_Msk | MPU_CTRL_PRIVDEFENA_Msk;
    408c:	4b03      	ldr	r3, [pc, #12]	; (409c <arm_core_mpu_enable+0x10>)
    408e:	2205      	movs	r2, #5
    4090:	605a      	str	r2, [r3, #4]
  __ASM volatile ("dsb 0xF":::"memory");
    4092:	f3bf 8f4f 	dsb	sy
  __ASM volatile ("isb 0xF":::"memory");
    4096:	f3bf 8f6f 	isb	sy

	/* Make sure that all the registers are set before proceeding */
	__DSB();
	__ISB();
}
    409a:	4770      	bx	lr
    409c:	e000ed90 	.word	0xe000ed90

000040a0 <arm_core_mpu_disable>:
  \details Ensures the apparent order of the explicit memory operations before
           and after the instruction, without ensuring their completion.
 */
__STATIC_FORCEINLINE void __DMB(void)
{
  __ASM volatile ("dmb 0xF":::"memory");
    40a0:	f3bf 8f5f 	dmb	sy
{
	/* Force any outstanding transfers to complete before disabling MPU */
	__DMB();

	/* Disable MPU */
	MPU->CTRL = 0;
    40a4:	4b01      	ldr	r3, [pc, #4]	; (40ac <arm_core_mpu_disable+0xc>)
    40a6:	2200      	movs	r2, #0
    40a8:	605a      	str	r2, [r3, #4]
}
    40aa:	4770      	bx	lr
    40ac:	e000ed90 	.word	0xe000ed90

000040b0 <arm_mpu_init>:
 */
static int arm_mpu_init(const struct device *arg)
{
	uint32_t r_index;

	if (mpu_config.num_regions > get_num_regions()) {
    40b0:	4913      	ldr	r1, [pc, #76]	; (4100 <arm_mpu_init+0x50>)
    40b2:	6808      	ldr	r0, [r1, #0]
    40b4:	2808      	cmp	r0, #8
{
    40b6:	b510      	push	{r4, lr}
	if (mpu_config.num_regions > get_num_regions()) {
    40b8:	d81e      	bhi.n	40f8 <arm_mpu_init+0x48>
		return -1;
	}

	LOG_DBG("total region count: %d", get_num_regions());

	arm_core_mpu_disable();
    40ba:	f7ff fff1 	bl	40a0 <arm_core_mpu_disable>
	MPU->RNR = index;
    40be:	4c11      	ldr	r4, [pc, #68]	; (4104 <arm_mpu_init+0x54>)
    40c0:	6849      	ldr	r1, [r1, #4]

	/* Architecture-specific configuration */
	mpu_init();

	/* Program fixed regions configured at SOC definition. */
	for (r_index = 0U; r_index < mpu_config.num_regions; r_index++) {
    40c2:	2200      	movs	r2, #0
    40c4:	4290      	cmp	r0, r2
    40c6:	f101 010c 	add.w	r1, r1, #12
    40ca:	d105      	bne.n	40d8 <arm_mpu_init+0x28>
		region_init(r_index, &mpu_config.mpu_regions[r_index]);
	}

	/* Update the number of programmed MPU regions. */
	static_regions_num = mpu_config.num_regions;
    40cc:	4b0e      	ldr	r3, [pc, #56]	; (4108 <arm_mpu_init+0x58>)
    40ce:	7018      	strb	r0, [r3, #0]


	arm_core_mpu_enable();
    40d0:	f7ff ffdc 	bl	408c <arm_core_mpu_enable>
	__ASSERT(
		(MPU->TYPE & MPU_TYPE_DREGION_Msk) >> MPU_TYPE_DREGION_Pos ==
		NUM_MPU_REGIONS,
		"Invalid number of MPU regions\n");
#endif /* CORTEX_M0PLUS || CPU_CORTEX_M3 || CPU_CORTEX_M4 */
	return 0;
    40d4:	2000      	movs	r0, #0
}
    40d6:	bd10      	pop	{r4, pc}
    40d8:	60a2      	str	r2, [r4, #8]
	MPU->RBAR = (region_conf->base & MPU_RBAR_ADDR_Msk)
    40da:	f851 3c0c 	ldr.w	r3, [r1, #-12]
    40de:	f023 031f 	bic.w	r3, r3, #31
				| MPU_RBAR_VALID_Msk | index;
    40e2:	4313      	orrs	r3, r2
    40e4:	f043 0310 	orr.w	r3, r3, #16
	MPU->RBAR = (region_conf->base & MPU_RBAR_ADDR_Msk)
    40e8:	60e3      	str	r3, [r4, #12]
	MPU->RASR = region_conf->attr.rasr | MPU_RASR_ENABLE_Msk;
    40ea:	f851 3c04 	ldr.w	r3, [r1, #-4]
    40ee:	f043 0301 	orr.w	r3, r3, #1
    40f2:	6123      	str	r3, [r4, #16]
	for (r_index = 0U; r_index < mpu_config.num_regions; r_index++) {
    40f4:	3201      	adds	r2, #1
    40f6:	e7e5      	b.n	40c4 <arm_mpu_init+0x14>
		return -1;
    40f8:	f04f 30ff 	mov.w	r0, #4294967295	; 0xffffffff
    40fc:	e7eb      	b.n	40d6 <arm_mpu_init+0x26>
    40fe:	bf00      	nop
    4100:	000094e4 	.word	0x000094e4
    4104:	e000ed90 	.word	0xe000ed90
    4108:	20000d99 	.word	0x20000d99

0000410c <arm_core_mpu_configure_static_mpu_regions>:
{
    410c:	b510      	push	{r4, lr}
static int mpu_configure_static_mpu_regions(const struct z_arm_mpu_partition
	static_regions[], const uint8_t regions_num,
	const uint32_t background_area_base,
	const uint32_t background_area_end)
{
	int mpu_reg_index = static_regions_num;
    410e:	4c03      	ldr	r4, [pc, #12]	; (411c <arm_core_mpu_configure_static_mpu_regions+0x10>)
	 * programmed on top of SRAM region configuration.
	 */
	ARG_UNUSED(background_area_base);
	ARG_UNUSED(background_area_end);

	mpu_reg_index = mpu_configure_regions(static_regions,
    4110:	2301      	movs	r3, #1
    4112:	7822      	ldrb	r2, [r4, #0]
    4114:	f7ff ff5e 	bl	3fd4 <mpu_configure_regions>
		regions_num, mpu_reg_index, true);

	static_regions_num = mpu_reg_index;
    4118:	7020      	strb	r0, [r4, #0]
}
    411a:	bd10      	pop	{r4, pc}
    411c:	20000d99 	.word	0x20000d99

00004120 <__stdout_hook_install>:

static int (*_stdout_hook)(int) = _stdout_hook_default;

void __stdout_hook_install(int (*hook)(int))
{
	_stdout_hook = hook;
    4120:	4b01      	ldr	r3, [pc, #4]	; (4128 <__stdout_hook_install+0x8>)
    4122:	6018      	str	r0, [r3, #0]
}
    4124:	4770      	bx	lr
    4126:	bf00      	nop
    4128:	2000000c 	.word	0x2000000c

0000412c <nordicsemi_nrf52_init>:
	__asm__ volatile(
    412c:	f04f 0320 	mov.w	r3, #32
    4130:	f3ef 8211 	mrs	r2, BASEPRI
    4134:	f383 8811 	msr	BASEPRI, r3
    4138:	f3bf 8f6f 	isb	sy

	key = irq_lock();

#ifdef CONFIG_NRF_ENABLE_ICACHE
	/* Enable the instruction cache */
	NRF_NVMC->ICACHECNF = NVMC_ICACHECNF_CACHEEN_Msk;
    413c:	4906      	ldr	r1, [pc, #24]	; (4158 <nordicsemi_nrf52_init+0x2c>)
    413e:	2301      	movs	r3, #1
    4140:	f8c1 3540 	str.w	r3, [r1, #1344]	; 0x540
#endif

#if NRF_POWER_HAS_DCDCEN
NRF_STATIC_INLINE void nrf_power_dcdcen_set(NRF_POWER_Type * p_reg, bool enable)
{
    p_reg->DCDCEN = (enable ? POWER_DCDCEN_DCDCEN_Enabled : POWER_DCDCEN_DCDCEN_Disabled) <<
    4144:	f04f 4180 	mov.w	r1, #1073741824	; 0x40000000
    4148:	f8c1 3578 	str.w	r3, [r1, #1400]	; 0x578
	__asm__ volatile(
    414c:	f382 8811 	msr	BASEPRI, r2
    4150:	f3bf 8f6f 	isb	sy
	NMI_INIT();

	irq_unlock(key);

	return 0;
}
    4154:	2000      	movs	r0, #0
    4156:	4770      	bx	lr
    4158:	4001e000 	.word	0x4001e000

0000415c <arch_busy_wait>:

#else // NRFX_CHECK(NRFX_DELAY_DWT_BASED)

NRF_STATIC_INLINE void nrfx_coredep_delay_us(uint32_t time_us)
{
    if (time_us == 0)
    415c:	b120      	cbz	r0, 4168 <arch_busy_wait+0xc>
    };

    typedef void (* delay_func_t)(uint32_t);
    const delay_func_t delay_cycles =
        // Set LSB to 1 to execute the code in the Thumb mode.
        (delay_func_t)((((uint32_t)delay_machine_code) | 1));
    415e:	4b03      	ldr	r3, [pc, #12]	; (416c <arch_busy_wait+0x10>)
    uint32_t cycles = time_us * NRFX_DELAY_CPU_FREQ_MHZ;
    delay_cycles(cycles);
    4160:	0180      	lsls	r0, r0, #6
    4162:	f043 0301 	orr.w	r3, r3, #1
    4166:	4718      	bx	r3

void arch_busy_wait(uint32_t time_us)
{
	nrfx_coredep_delay_us(time_us);
}
    4168:	4770      	bx	lr
    416a:	bf00      	nop
    416c:	00009430 	.word	0x00009430

00004170 <gpio_nrfx_init>:
}

#define GPIOTE_NODE DT_INST(0, nordic_nrf_gpiote)

static int gpio_nrfx_init(const struct device *port)
{
    4170:	b508      	push	{r3, lr}
	static bool gpio_initialized;

	if (!gpio_initialized) {
    4172:	4b09      	ldr	r3, [pc, #36]	; (4198 <gpio_nrfx_init+0x28>)
    4174:	781a      	ldrb	r2, [r3, #0]
    4176:	b96a      	cbnz	r2, 4194 <gpio_nrfx_init+0x24>
		gpio_initialized = true;
    4178:	2101      	movs	r1, #1
    417a:	7019      	strb	r1, [r3, #0]
		IRQ_CONNECT(DT_IRQN(GPIOTE_NODE), DT_IRQ(GPIOTE_NODE, priority),
    417c:	2006      	movs	r0, #6
    417e:	2105      	movs	r1, #5
    4180:	f7ff fbd8 	bl	3934 <z_arm_irq_priority_set>
			    gpiote_event_handler, NULL, 0);

		irq_enable(DT_IRQN(GPIOTE_NODE));
    4184:	2006      	movs	r0, #6
    4186:	f7ff fbb7 	bl	38f8 <arch_irq_enable>
    return ((uint32_t)p_reg + event);
}

NRF_STATIC_INLINE void nrf_gpiote_int_enable(NRF_GPIOTE_Type * p_reg, uint32_t mask)
{
    p_reg->INTENSET = mask;
    418a:	4b04      	ldr	r3, [pc, #16]	; (419c <gpio_nrfx_init+0x2c>)
    418c:	f04f 4200 	mov.w	r2, #2147483648	; 0x80000000
    4190:	f8c3 2304 	str.w	r2, [r3, #772]	; 0x304
		nrf_gpiote_int_enable(NRF_GPIOTE, NRF_GPIOTE_INT_PORT_MASK);
	}

	return 0;
}
    4194:	2000      	movs	r0, #0
    4196:	bd08      	pop	{r3, pc}
    4198:	20000d9a 	.word	0x20000d9a
    419c:	40006000 	.word	0x40006000

000041a0 <gpio_nrfx_config>:
	switch (flags & (GPIO_DS_LOW_MASK | GPIO_DS_HIGH_MASK |
    41a0:	4b2b      	ldr	r3, [pc, #172]	; (4250 <gpio_nrfx_config+0xb0>)
{
    41a2:	b5f0      	push	{r4, r5, r6, r7, lr}
	NRF_GPIO_Type *reg = get_port_cfg(port)->port;
    41a4:	6844      	ldr	r4, [r0, #4]
	switch (flags & (GPIO_DS_LOW_MASK | GPIO_DS_HIGH_MASK |
    41a6:	482b      	ldr	r0, [pc, #172]	; (4254 <gpio_nrfx_config+0xb4>)
    41a8:	4013      	ands	r3, r2
    41aa:	4283      	cmp	r3, r0
    41ac:	d041      	beq.n	4232 <gpio_nrfx_config+0x92>
    41ae:	d80d      	bhi.n	41cc <gpio_nrfx_config+0x2c>
    41b0:	2b06      	cmp	r3, #6
    41b2:	d015      	beq.n	41e0 <gpio_nrfx_config+0x40>
    41b4:	d805      	bhi.n	41c2 <gpio_nrfx_config+0x22>
    41b6:	b19b      	cbz	r3, 41e0 <gpio_nrfx_config+0x40>
    41b8:	2b02      	cmp	r3, #2
    41ba:	d03c      	beq.n	4236 <gpio_nrfx_config+0x96>
    41bc:	f06f 0015 	mvn.w	r0, #21
    41c0:	e036      	b.n	4230 <gpio_nrfx_config+0x90>
    41c2:	f5b3 1f80 	cmp.w	r3, #1048576	; 0x100000
    41c6:	d1f9      	bne.n	41bc <gpio_nrfx_config+0x1c>
		drive = NRF_GPIO_PIN_H0S1;
    41c8:	2301      	movs	r3, #1
    41ca:	e009      	b.n	41e0 <gpio_nrfx_config+0x40>
	switch (flags & (GPIO_DS_LOW_MASK | GPIO_DS_HIGH_MASK |
    41cc:	4822      	ldr	r0, [pc, #136]	; (4258 <gpio_nrfx_config+0xb8>)
    41ce:	4283      	cmp	r3, r0
    41d0:	d033      	beq.n	423a <gpio_nrfx_config+0x9a>
    41d2:	f5b3 0fa0 	cmp.w	r3, #5242880	; 0x500000
    41d6:	d032      	beq.n	423e <gpio_nrfx_config+0x9e>
    41d8:	f5b3 0f80 	cmp.w	r3, #4194304	; 0x400000
    41dc:	d1ee      	bne.n	41bc <gpio_nrfx_config+0x1c>
		drive = NRF_GPIO_PIN_S0H1;
    41de:	2302      	movs	r3, #2
	if ((flags & GPIO_PULL_UP) != 0) {
    41e0:	06d0      	lsls	r0, r2, #27
		pull = NRF_GPIO_PIN_NOPULL;
    41e2:	bf54      	ite	pl
    41e4:	f3c2 1640 	ubfxpl	r6, r2, #5, #1
		pull = NRF_GPIO_PIN_PULLUP;
    41e8:	2603      	movmi	r6, #3
		: NRF_GPIO_PIN_INPUT_DISCONNECT;
    41ea:	f482 7580 	eor.w	r5, r2, #256	; 0x100
	if ((flags & GPIO_OUTPUT) != 0) {
    41ee:	0597      	lsls	r7, r2, #22
	dir = ((flags & GPIO_OUTPUT) != 0)
    41f0:	f3c2 2040 	ubfx	r0, r2, #9, #1
		: NRF_GPIO_PIN_INPUT_DISCONNECT;
    41f4:	f3c5 2500 	ubfx	r5, r5, #8, #1
	if ((flags & GPIO_OUTPUT) != 0) {
    41f8:	d507      	bpl.n	420a <gpio_nrfx_config+0x6a>
		if ((flags & GPIO_OUTPUT_INIT_HIGH) != 0) {
    41fa:	f412 6f00 	tst.w	r2, #2048	; 0x800
	NRF_GPIO_Type *reg = get_port_cfg(port)->port;
    41fe:	6867      	ldr	r7, [r4, #4]
		if ((flags & GPIO_OUTPUT_INIT_HIGH) != 0) {
    4200:	d01f      	beq.n	4242 <gpio_nrfx_config+0xa2>
			nrf_gpio_port_out_set(reg, BIT(pin));
    4202:	2201      	movs	r2, #1
    4204:	408a      	lsls	r2, r1
}


NRF_STATIC_INLINE void nrf_gpio_port_out_set(NRF_GPIO_Type * p_reg, uint32_t set_mask)
{
    p_reg->OUTSET = set_mask;
    4206:	f8c7 2508 	str.w	r2, [r7, #1288]	; 0x508
NRF_STATIC_INLINE uint32_t nrf_gpio_pin_port_number_extract(uint32_t * p_pin)
{
    uint32_t pin_number = *p_pin;
    *p_pin = pin_number & 0x1F;

    return pin_number >> 5;
    420a:	7a22      	ldrb	r2, [r4, #8]
        case 1: return NRF_P1;
    420c:	4c13      	ldr	r4, [pc, #76]	; (425c <gpio_nrfx_config+0xbc>)
    420e:	2a01      	cmp	r2, #1
    *p_pin = pin_number & 0x1F;
    4210:	f001 011f 	and.w	r1, r1, #31
                               | ((uint32_t)drive << GPIO_PIN_CNF_DRIVE_Pos)
    4214:	ea40 0245 	orr.w	r2, r0, r5, lsl #1
        case 1: return NRF_P1;
    4218:	bf18      	it	ne
    421a:	f04f 44a0 	movne.w	r4, #1342177280	; 0x50000000
                               | ((uint32_t)drive << GPIO_PIN_CNF_DRIVE_Pos)
    421e:	ea42 2303 	orr.w	r3, r2, r3, lsl #8
    reg->PIN_CNF[pin_number] = ((uint32_t)dir << GPIO_PIN_CNF_DIR_Pos)
    4222:	f501 71e0 	add.w	r1, r1, #448	; 0x1c0
                               | ((uint32_t)drive << GPIO_PIN_CNF_DRIVE_Pos)
    4226:	ea43 0386 	orr.w	r3, r3, r6, lsl #2
    reg->PIN_CNF[pin_number] = ((uint32_t)dir << GPIO_PIN_CNF_DIR_Pos)
    422a:	f844 3021 	str.w	r3, [r4, r1, lsl #2]
	return 0;
    422e:	2000      	movs	r0, #0
}
    4230:	bdf0      	pop	{r4, r5, r6, r7, pc}
		drive = NRF_GPIO_PIN_H0D1;
    4232:	2307      	movs	r3, #7
    4234:	e7d4      	b.n	41e0 <gpio_nrfx_config+0x40>
		drive = NRF_GPIO_PIN_D0S1;
    4236:	2304      	movs	r3, #4
    4238:	e7d2      	b.n	41e0 <gpio_nrfx_config+0x40>
		drive = NRF_GPIO_PIN_D0H1;
    423a:	2305      	movs	r3, #5
    423c:	e7d0      	b.n	41e0 <gpio_nrfx_config+0x40>
		drive = NRF_GPIO_PIN_H0H1;
    423e:	2303      	movs	r3, #3
    4240:	e7ce      	b.n	41e0 <gpio_nrfx_config+0x40>
		} else if ((flags & GPIO_OUTPUT_INIT_LOW) != 0) {
    4242:	0552      	lsls	r2, r2, #21
			nrf_gpio_port_out_clear(reg, BIT(pin));
    4244:	bf42      	ittt	mi
    4246:	2201      	movmi	r2, #1
    4248:	408a      	lslmi	r2, r1
    p_reg->OUTCLR = clr_mask;
    424a:	f8c7 250c 	strmi.w	r2, [r7, #1292]	; 0x50c
}
    424e:	e7dc      	b.n	420a <gpio_nrfx_config+0x6a>
    4250:	00f00006 	.word	0x00f00006
    4254:	00100006 	.word	0x00100006
    4258:	00400002 	.word	0x00400002
    425c:	50000300 	.word	0x50000300

00004260 <nrf_gpio_cfg_sense_set>:
    *p_pin = pin_number & 0x1F;
    4260:	f000 021f 	and.w	r2, r0, #31
    return pin_number >> 5;
    4264:	0940      	lsrs	r0, r0, #5
        case 1: return NRF_P1;
    4266:	4b08      	ldr	r3, [pc, #32]	; (4288 <nrf_gpio_cfg_sense_set+0x28>)
    switch (nrf_gpio_pin_port_number_extract(p_pin))
    4268:	2801      	cmp	r0, #1
        case 1: return NRF_P1;
    426a:	bf18      	it	ne
    426c:	f04f 43a0 	movne.w	r3, #1342177280	; 0x50000000
    uint32_t cnf = reg->PIN_CNF[pin_number] & ~GPIO_PIN_CNF_SENSE_Msk;
    4270:	eb03 0382 	add.w	r3, r3, r2, lsl #2
    4274:	f8d3 2700 	ldr.w	r2, [r3, #1792]	; 0x700
    4278:	f422 3240 	bic.w	r2, r2, #196608	; 0x30000
    reg->PIN_CNF[pin_number] = cnf | (sense_config << GPIO_PIN_CNF_SENSE_Pos);
    427c:	ea42 4201 	orr.w	r2, r2, r1, lsl #16
    4280:	f8c3 2700 	str.w	r2, [r3, #1792]	; 0x700
}
    4284:	4770      	bx	lr
    4286:	bf00      	nop
    4288:	50000300 	.word	0x50000300

0000428c <check_level_trigger_pins>:
{
    428c:	e92d 4ff8 	stmdb	sp!, {r3, r4, r5, r6, r7, r8, r9, sl, fp, lr}
	struct gpio_nrfx_data *data = get_port_data(port);
    4290:	6903      	ldr	r3, [r0, #16]
	const struct gpio_nrfx_cfg *cfg = get_port_cfg(port);
    4292:	f8d0 a004 	ldr.w	sl, [r0, #4]
	uint32_t out = data->pin_int_en;
    4296:	68de      	ldr	r6, [r3, #12]
        case 1: return NRF_P1;
    4298:	f8df b07c 	ldr.w	fp, [pc, #124]	; 4318 <check_level_trigger_pins+0x8c>
{
    429c:	4688      	mov	r8, r1
	out &= ~data->trig_edge & ~data->double_edge;
    429e:	e9d3 2105 	ldrd	r2, r1, [r3, #20]
    42a2:	430a      	orrs	r2, r1
    42a4:	ea26 0602 	bic.w	r6, r6, r2
	uint32_t port_in = nrf_gpio_port_in_read(cfg->port);
    42a8:	f8da 2004 	ldr.w	r2, [sl, #4]
	uint32_t pin_states = ~(port_in ^ data->int_active_level);
    42ac:	691b      	ldr	r3, [r3, #16]
    return p_reg->IN;
    42ae:	f8d2 5510 	ldr.w	r5, [r2, #1296]	; 0x510
    42b2:	405d      	eors	r5, r3
	uint32_t out = pin_states & level_pins;
    42b4:	ea26 0505 	bic.w	r5, r6, r5
	uint32_t check_pins = level_pins;
    42b8:	4637      	mov	r7, r6
	uint32_t bit = 1U << pin;
    42ba:	2401      	movs	r4, #1
	uint32_t pin = 0U;
    42bc:	f04f 0900 	mov.w	r9, #0
	while (check_pins) {
    42c0:	b917      	cbnz	r7, 42c8 <check_level_trigger_pins+0x3c>
}
    42c2:	4628      	mov	r0, r5
    42c4:	e8bd 8ff8 	ldmia.w	sp!, {r3, r4, r5, r6, r7, r8, r9, sl, fp, pc}
		if (check_pins & bit) {
    42c8:	423c      	tst	r4, r7
    42ca:	d021      	beq.n	4310 <check_level_trigger_pins+0x84>
			uint32_t abs_pin = NRF_GPIO_PIN_MAP(cfg->port_num, pin);
    42cc:	f89a 3008 	ldrb.w	r3, [sl, #8]
    42d0:	f009 001f 	and.w	r0, r9, #31
			if (!(level_pins & bit)) {
    42d4:	4234      	tst	r4, r6
			uint32_t abs_pin = NRF_GPIO_PIN_MAP(cfg->port_num, pin);
    42d6:	ea40 1043 	orr.w	r0, r0, r3, lsl #5
			if (!(level_pins & bit)) {
    42da:	d114      	bne.n	4306 <check_level_trigger_pins+0x7a>
    return pin_number >> 5;
    42dc:	0942      	lsrs	r2, r0, #5
        case 1: return NRF_P1;
    42de:	2a01      	cmp	r2, #1
    *p_pin = pin_number & 0x1F;
    42e0:	f000 031f 	and.w	r3, r0, #31
        case 1: return NRF_P1;
    42e4:	bf14      	ite	ne
    42e6:	f04f 42a0 	movne.w	r2, #1342177280	; 0x50000000
    42ea:	465a      	moveq	r2, fp
    return (nrf_gpio_pin_sense_t)((reg->PIN_CNF[pin_number] &
    42ec:	f503 73e0 	add.w	r3, r3, #448	; 0x1c0
    42f0:	f852 3023 	ldr.w	r3, [r2, r3, lsl #2]
                                   GPIO_PIN_CNF_SENSE_Msk) >> GPIO_PIN_CNF_SENSE_Pos);
    42f4:	f3c3 4301 	ubfx	r3, r3, #16, #2
				if (high) {
    42f8:	2b02      	cmp	r3, #2
					*sense_levels |= bit;
    42fa:	bf02      	ittt	eq
    42fc:	f8d8 3000 	ldreq.w	r3, [r8]
    4300:	4323      	orreq	r3, r4
    4302:	f8c8 3000 	streq.w	r3, [r8]
			nrf_gpio_cfg_sense_set(abs_pin, NRF_GPIO_PIN_NOSENSE);
    4306:	2100      	movs	r1, #0
    4308:	f7ff ffaa 	bl	4260 <nrf_gpio_cfg_sense_set>
			check_pins &= ~bit;
    430c:	ea27 0704 	bic.w	r7, r7, r4
		++pin;
    4310:	f109 0901 	add.w	r9, r9, #1
		bit <<= 1;
    4314:	0064      	lsls	r4, r4, #1
    4316:	e7d3      	b.n	42c0 <check_level_trigger_pins+0x34>
    4318:	50000300 	.word	0x50000300

0000431c <gpio_nrfx_pin_interrupt_configure>:
{
    431c:	b5f7      	push	{r0, r1, r2, r4, r5, r6, r7, lr}
    431e:	460e      	mov	r6, r1
	uint32_t abs_pin = NRF_GPIO_PIN_MAP(get_port_cfg(port)->port_num, pin);
    4320:	6841      	ldr	r1, [r0, #4]
	struct gpio_nrfx_data *data = get_port_data(port);
    4322:	6907      	ldr	r7, [r0, #16]
	uint32_t abs_pin = NRF_GPIO_PIN_MAP(get_port_cfg(port)->port_num, pin);
    4324:	7a09      	ldrb	r1, [r1, #8]
    4326:	f006 051f 	and.w	r5, r6, #31
	if (!IS_ENABLED(CONFIG_GPIO_NRF_INT_EDGE_USING_SENSE) &&
    432a:	f5b2 3fa0 	cmp.w	r2, #81920	; 0x14000
    432e:	ea45 1541 	orr.w	r5, r5, r1, lsl #5
    4332:	d110      	bne.n	4356 <gpio_nrfx_pin_interrupt_configure+0x3a>
    return pin_number >> 5;
    4334:	0968      	lsrs	r0, r5, #5
        case 1: return NRF_P1;
    4336:	2801      	cmp	r0, #1
    *p_pin = pin_number & 0x1F;
    4338:	f005 011f 	and.w	r1, r5, #31
        case 1: return NRF_P1;
    433c:	485d      	ldr	r0, [pc, #372]	; (44b4 <gpio_nrfx_pin_interrupt_configure+0x198>)
    return (nrf_gpio_pin_dir_t)((reg->PIN_CNF[pin_number] &
    433e:	f501 71e0 	add.w	r1, r1, #448	; 0x1c0
        case 1: return NRF_P1;
    4342:	bf18      	it	ne
    4344:	f04f 40a0 	movne.w	r0, #1342177280	; 0x50000000
    return (nrf_gpio_pin_dir_t)((reg->PIN_CNF[pin_number] &
    4348:	f850 1021 	ldr.w	r1, [r0, r1, lsl #2]
	    (mode == GPIO_INT_MODE_EDGE) &&
    434c:	07c8      	lsls	r0, r1, #31
    434e:	d507      	bpl.n	4360 <gpio_nrfx_pin_interrupt_configure+0x44>
		return -ENOTSUP;
    4350:	f06f 0085 	mvn.w	r0, #133	; 0x85
    4354:	e093      	b.n	447e <gpio_nrfx_pin_interrupt_configure+0x162>
	WRITE_BIT(data->pin_int_en, pin, mode != GPIO_INT_MODE_DISABLED);
    4356:	f5b2 5f00 	cmp.w	r2, #8192	; 0x2000
    435a:	68f9      	ldr	r1, [r7, #12]
    435c:	f000 8091 	beq.w	4482 <gpio_nrfx_pin_interrupt_configure+0x166>
    4360:	68f8      	ldr	r0, [r7, #12]
    4362:	2101      	movs	r1, #1
    4364:	40b1      	lsls	r1, r6
    4366:	4301      	orrs	r1, r0
    4368:	6978      	ldr	r0, [r7, #20]
    436a:	60f9      	str	r1, [r7, #12]
	WRITE_BIT(data->trig_edge, pin, mode == GPIO_INT_MODE_EDGE);
    436c:	2101      	movs	r1, #1
    436e:	40b1      	lsls	r1, r6
    4370:	f5b2 3fa0 	cmp.w	r2, #81920	; 0x14000
    4374:	69ba      	ldr	r2, [r7, #24]
    4376:	bf0c      	ite	eq
    4378:	4308      	orreq	r0, r1
    437a:	4388      	bicne	r0, r1
	WRITE_BIT(data->double_edge, pin, trig == GPIO_INT_TRIG_BOTH);
    437c:	f5b3 2fc0 	cmp.w	r3, #393216	; 0x60000
    4380:	bf0c      	ite	eq
    4382:	430a      	orreq	r2, r1
    4384:	438a      	bicne	r2, r1
    4386:	61ba      	str	r2, [r7, #24]
    4388:	693a      	ldr	r2, [r7, #16]
	WRITE_BIT(data->trig_edge, pin, mode == GPIO_INT_MODE_EDGE);
    438a:	6178      	str	r0, [r7, #20]
	WRITE_BIT(data->int_active_level, pin, trig == GPIO_INT_TRIG_HIGH);
    438c:	f5b3 2f80 	cmp.w	r3, #262144	; 0x40000
    4390:	bf0c      	ite	eq
    4392:	4311      	orreq	r1, r2
    4394:	ea22 0101 	bicne.w	r1, r2, r1
    p_reg->INTENCLR = mask;
}

NRF_STATIC_INLINE uint32_t nrf_gpiote_int_enable_check(NRF_GPIOTE_Type const * p_reg, uint32_t mask)
{
    return p_reg->INTENSET & mask;
    4398:	4a47      	ldr	r2, [pc, #284]	; (44b8 <gpio_nrfx_pin_interrupt_configure+0x19c>)
    439a:	6139      	str	r1, [r7, #16]
    439c:	f8d2 3304 	ldr.w	r3, [r2, #772]	; 0x304
	for (size_t i = 0; i < GPIOTE_CH_NUM; i++) {
    43a0:	2000      	movs	r0, #0
    43a2:	b2db      	uxtb	r3, r3
                        ((polarity << GPIOTE_CONFIG_POLARITY_Pos) & GPIOTE_CONFIG_POLARITY_Msk);
}

NRF_STATIC_INLINE uint32_t nrf_gpiote_event_pin_get(NRF_GPIOTE_Type const * p_reg, uint32_t idx)
{
    return ((p_reg->CONFIG[idx] & GPIOTE_CONFIG_PORT_PIN_Msk) >> GPIOTE_CONFIG_PSEL_Pos);
    43a4:	f500 71a2 	add.w	r1, r0, #324	; 0x144
    43a8:	f852 1021 	ldr.w	r1, [r2, r1, lsl #2]
    43ac:	f3c1 2105 	ubfx	r1, r1, #8, #6
		if ((nrf_gpiote_event_pin_get(NRF_GPIOTE, i) == abs_pin)
    43b0:	428d      	cmp	r5, r1
    43b2:	d16b      	bne.n	448c <gpio_nrfx_pin_interrupt_configure+0x170>
		    && (intenset & BIT(i))) {
    43b4:	fa23 f100 	lsr.w	r1, r3, r0
    43b8:	07c9      	lsls	r1, r1, #31
    43ba:	d567      	bpl.n	448c <gpio_nrfx_pin_interrupt_configure+0x170>
   p_reg->CONFIG[idx] &= ~GPIOTE_CONFIG_MODE_Event;
    43bc:	0083      	lsls	r3, r0, #2
    43be:	f103 4380 	add.w	r3, r3, #1073741824	; 0x40000000
    43c2:	f503 43c0 	add.w	r3, r3, #24576	; 0x6000
    43c6:	f8d3 1510 	ldr.w	r1, [r3, #1296]	; 0x510
    43ca:	f021 0101 	bic.w	r1, r1, #1
    43ce:	f8c3 1510 	str.w	r1, [r3, #1296]	; 0x510
			nrf_gpiote_int_disable(NRF_GPIOTE, BIT(i));
    43d2:	2301      	movs	r3, #1
    43d4:	4083      	lsls	r3, r0
    p_reg->INTENCLR = mask;
    43d6:	f8c2 3308 	str.w	r3, [r2, #776]	; 0x308
			nrfx_gpiote_channel_free(i);
    43da:	b2c0      	uxtb	r0, r0
    43dc:	f001 ffe4 	bl	63a8 <nrfx_gpiote_channel_free>
	nrf_gpio_cfg_sense_set(abs_pin, NRF_GPIO_PIN_NOSENSE);
    43e0:	4628      	mov	r0, r5
    43e2:	2100      	movs	r1, #0
    43e4:	f7ff ff3c 	bl	4260 <nrf_gpio_cfg_sense_set>
	if (data->pin_int_en & BIT(pin)) {
    43e8:	68f8      	ldr	r0, [r7, #12]
    43ea:	40f0      	lsrs	r0, r6
    43ec:	f010 0001 	ands.w	r0, r0, #1
    43f0:	d045      	beq.n	447e <gpio_nrfx_pin_interrupt_configure+0x162>
		if (data->trig_edge & BIT(pin)) {
    43f2:	6978      	ldr	r0, [r7, #20]
    43f4:	40f0      	lsrs	r0, r6
    43f6:	f010 0401 	ands.w	r4, r0, #1
    43fa:	d04e      	beq.n	449a <gpio_nrfx_pin_interrupt_configure+0x17e>
				if (data->double_edge & BIT(pin)) {
    43fc:	69bb      	ldr	r3, [r7, #24]
    43fe:	40f3      	lsrs	r3, r6
    4400:	07db      	lsls	r3, r3, #31
				} else if ((data->int_active_level & BIT(pin)) != 0U) {
    4402:	bf5f      	itttt	pl
    4404:	6939      	ldrpl	r1, [r7, #16]
    4406:	fa21 f606 	lsrpl.w	r6, r1, r6
    440a:	f006 0601 	andpl.w	r6, r6, #1
    440e:	f1c6 0602 	rsbpl	r6, r6, #2
	if (nrfx_gpiote_channel_alloc(&channel) != NRFX_SUCCESS) {
    4412:	f10d 0007 	add.w	r0, sp, #7
				} else if ((data->int_active_level & BIT(pin)) != 0U) {
    4416:	bf54      	ite	pl
    4418:	b2f6      	uxtbpl	r6, r6
					pol = NRF_GPIOTE_POLARITY_TOGGLE;
    441a:	2603      	movmi	r6, #3
	if (nrfx_gpiote_channel_alloc(&channel) != NRFX_SUCCESS) {
    441c:	f001 ffe6 	bl	63ec <nrfx_gpiote_channel_alloc>
    4420:	4b26      	ldr	r3, [pc, #152]	; (44bc <gpio_nrfx_pin_interrupt_configure+0x1a0>)
    4422:	4298      	cmp	r0, r3
    4424:	d136      	bne.n	4494 <gpio_nrfx_pin_interrupt_configure+0x178>
	nrf_gpiote_event_t evt = offsetof(NRF_GPIOTE_Type, EVENTS_IN[channel]);
    4426:	f89d 1007 	ldrb.w	r1, [sp, #7]
  p_reg->CONFIG[idx] &= ~(GPIOTE_CONFIG_PORT_PIN_Msk | GPIOTE_CONFIG_POLARITY_Msk);
    442a:	008b      	lsls	r3, r1, #2
    442c:	f103 4380 	add.w	r3, r3, #1073741824	; 0x40000000
    4430:	f503 43c0 	add.w	r3, r3, #24576	; 0x6000
  p_reg->CONFIG[idx] |= ((pin << GPIOTE_CONFIG_PSEL_Pos) & GPIOTE_CONFIG_PORT_PIN_Msk) |
    4434:	022d      	lsls	r5, r5, #8
  p_reg->CONFIG[idx] &= ~(GPIOTE_CONFIG_PORT_PIN_Msk | GPIOTE_CONFIG_POLARITY_Msk);
    4436:	f8d3 2510 	ldr.w	r2, [r3, #1296]	; 0x510
    443a:	f422 324f 	bic.w	r2, r2, #211968	; 0x33c00
    443e:	f422 7240 	bic.w	r2, r2, #768	; 0x300
    4442:	f8c3 2510 	str.w	r2, [r3, #1296]	; 0x510
  p_reg->CONFIG[idx] |= ((pin << GPIOTE_CONFIG_PSEL_Pos) & GPIOTE_CONFIG_PORT_PIN_Msk) |
    4446:	f8d3 2510 	ldr.w	r2, [r3, #1296]	; 0x510
    444a:	f405 557c 	and.w	r5, r5, #16128	; 0x3f00
    444e:	4315      	orrs	r5, r2
    return ((uint32_t)p_reg + event);
    4450:	008a      	lsls	r2, r1, #2
    4452:	f102 4280 	add.w	r2, r2, #1073741824	; 0x40000000
    4456:	f502 42c2 	add.w	r2, r2, #24832	; 0x6100
  p_reg->CONFIG[idx] |= ((pin << GPIOTE_CONFIG_PSEL_Pos) & GPIOTE_CONFIG_PORT_PIN_Msk) |
    445a:	ea45 4606 	orr.w	r6, r5, r6, lsl #16
    *((volatile uint32_t *)nrf_gpiote_event_address_get(p_reg, event)) = 0;
    445e:	2000      	movs	r0, #0
  p_reg->CONFIG[idx] |= ((pin << GPIOTE_CONFIG_PSEL_Pos) & GPIOTE_CONFIG_PORT_PIN_Msk) |
    4460:	f8c3 6510 	str.w	r6, [r3, #1296]	; 0x510
    *((volatile uint32_t *)nrf_gpiote_event_address_get(p_reg, event)) = 0;
    4464:	6010      	str	r0, [r2, #0]
    4466:	6812      	ldr	r2, [r2, #0]
   p_reg->CONFIG[idx] |= GPIOTE_CONFIG_MODE_Event;
    4468:	f8d3 2510 	ldr.w	r2, [r3, #1296]	; 0x510
    446c:	f042 0201 	orr.w	r2, r2, #1
    4470:	f8c3 2510 	str.w	r2, [r3, #1296]	; 0x510
    p_reg->INTENSET = mask;
    4474:	4a10      	ldr	r2, [pc, #64]	; (44b8 <gpio_nrfx_pin_interrupt_configure+0x19c>)
	nrf_gpiote_int_enable(NRF_GPIOTE, BIT(channel));
    4476:	2301      	movs	r3, #1
    4478:	408b      	lsls	r3, r1
    447a:	f8c2 3304 	str.w	r3, [r2, #772]	; 0x304
}
    447e:	b003      	add	sp, #12
    4480:	bdf0      	pop	{r4, r5, r6, r7, pc}
	WRITE_BIT(data->pin_int_en, pin, mode != GPIO_INT_MODE_DISABLED);
    4482:	2001      	movs	r0, #1
    4484:	40b0      	lsls	r0, r6
    4486:	ea21 0100 	bic.w	r1, r1, r0
    448a:	e76d      	b.n	4368 <gpio_nrfx_pin_interrupt_configure+0x4c>
	for (size_t i = 0; i < GPIOTE_CH_NUM; i++) {
    448c:	3001      	adds	r0, #1
    448e:	2808      	cmp	r0, #8
    4490:	d188      	bne.n	43a4 <gpio_nrfx_pin_interrupt_configure+0x88>
    4492:	e7a5      	b.n	43e0 <gpio_nrfx_pin_interrupt_configure+0xc4>
		return -ENODEV;
    4494:	f06f 0012 	mvn.w	r0, #18
    4498:	e7f1      	b.n	447e <gpio_nrfx_pin_interrupt_configure+0x162>
	if ((BIT(pin) & data->int_active_level) != 0U) {
    449a:	6939      	ldr	r1, [r7, #16]
    449c:	40f1      	lsrs	r1, r6
    449e:	f001 0101 	and.w	r1, r1, #1
    44a2:	f1c1 0103 	rsb	r1, r1, #3
			nrf_gpio_cfg_sense_set(abs_pin, sense);
    44a6:	4628      	mov	r0, r5
    44a8:	b2c9      	uxtb	r1, r1
    44aa:	f7ff fed9 	bl	4260 <nrf_gpio_cfg_sense_set>
	int res = 0;
    44ae:	4620      	mov	r0, r4
    44b0:	e7e5      	b.n	447e <gpio_nrfx_pin_interrupt_configure+0x162>
    44b2:	bf00      	nop
    44b4:	50000300 	.word	0x50000300
    44b8:	40006000 	.word	0x40006000
    44bc:	0bad0000 	.word	0x0bad0000

000044c0 <gpiote_event_handler>:
{
    44c0:	b5f0      	push	{r4, r5, r6, r7, lr}
	uint32_t fired_triggers[GPIO_COUNT] = {0};
    44c2:	2400      	movs	r4, #0
{
    44c4:	b085      	sub	sp, #20
	uint32_t fired_triggers[GPIO_COUNT] = {0};
    44c6:	e9cd 4400 	strd	r4, r4, [sp]
	uint32_t sense_levels[GPIO_COUNT] = {0};
    44ca:	e9cd 4402 	strd	r4, r4, [sp, #8]
    return (bool)*(volatile uint32_t *)((uint8_t *)p_reg + (uint32_t)event);
    44ce:	4e26      	ldr	r6, [pc, #152]	; (4568 <gpiote_event_handler+0xa8>)
    44d0:	6835      	ldr	r5, [r6, #0]
	if (port_event) {
    44d2:	b15d      	cbz	r5, 44ec <gpiote_event_handler+0x2c>
			check_level_trigger_pins(DEVICE_DT_GET(GPIO(0)),
    44d4:	a902      	add	r1, sp, #8
    44d6:	4825      	ldr	r0, [pc, #148]	; (456c <gpiote_event_handler+0xac>)
    44d8:	f7ff fed8 	bl	428c <check_level_trigger_pins>
			check_level_trigger_pins(DEVICE_DT_GET(GPIO(1)),
    44dc:	a903      	add	r1, sp, #12
		fired_triggers[0] =
    44de:	9000      	str	r0, [sp, #0]
			check_level_trigger_pins(DEVICE_DT_GET(GPIO(1)),
    44e0:	4823      	ldr	r0, [pc, #140]	; (4570 <gpiote_event_handler+0xb0>)
    44e2:	f7ff fed3 	bl	428c <check_level_trigger_pins>
		fired_triggers[1] =
    44e6:	9001      	str	r0, [sp, #4]
    *((volatile uint32_t *)nrf_gpiote_event_address_get(p_reg, event)) = 0;
    44e8:	6034      	str	r4, [r6, #0]
    44ea:	6833      	ldr	r3, [r6, #0]
    return p_reg->INTENSET & mask;
    44ec:	4c21      	ldr	r4, [pc, #132]	; (4574 <gpiote_event_handler+0xb4>)
{
    44ee:	2200      	movs	r2, #0
		if (nrf_gpiote_int_enable_check(NRF_GPIOTE, BIT(i)) &&
    44f0:	2601      	movs	r6, #1
    *((volatile uint32_t *)nrf_gpiote_event_address_get(p_reg, event)) = 0;
    44f2:	4694      	mov	ip, r2
    return p_reg->INTENSET & mask;
    44f4:	f8d4 3304 	ldr.w	r3, [r4, #772]	; 0x304
    44f8:	fa06 f102 	lsl.w	r1, r6, r2
    44fc:	4219      	tst	r1, r3
    44fe:	d01b      	beq.n	4538 <gpiote_event_handler+0x78>
    return (bool)*(volatile uint32_t *)((uint8_t *)p_reg + (uint32_t)event);
    4500:	0091      	lsls	r1, r2, #2
    4502:	f101 4180 	add.w	r1, r1, #1073741824	; 0x40000000
    4506:	f501 41c2 	add.w	r1, r1, #24832	; 0x6100
    450a:	680b      	ldr	r3, [r1, #0]
    450c:	b1a3      	cbz	r3, 4538 <gpiote_event_handler+0x78>
    return ((p_reg->CONFIG[idx] & GPIOTE_CONFIG_PORT_PIN_Msk) >> GPIOTE_CONFIG_PSEL_Pos);
    450e:	f502 73a2 	add.w	r3, r2, #324	; 0x144
			fired_triggers[abs_pin / 32U] |= BIT(abs_pin % 32);
    4512:	af04      	add	r7, sp, #16
    4514:	f854 3023 	ldr.w	r3, [r4, r3, lsl #2]
    *((volatile uint32_t *)nrf_gpiote_event_address_get(p_reg, event)) = 0;
    4518:	f8c1 c000 	str.w	ip, [r1]
    451c:	f3c3 3040 	ubfx	r0, r3, #13, #1
    4520:	eb07 0080 	add.w	r0, r7, r0, lsl #2
    4524:	f3c3 2304 	ubfx	r3, r3, #8, #5
    4528:	f850 7c10 	ldr.w	r7, [r0, #-16]
    452c:	fa06 f303 	lsl.w	r3, r6, r3
    4530:	433b      	orrs	r3, r7
    4532:	f840 3c10 	str.w	r3, [r0, #-16]
    4536:	680b      	ldr	r3, [r1, #0]
	for (size_t i = 0; i < GPIOTE_CH_NUM; i++) {
    4538:	3201      	adds	r2, #1
    453a:	2a08      	cmp	r2, #8
    453c:	d1da      	bne.n	44f4 <gpiote_event_handler+0x34>
	if (fired_triggers[0]) {
    453e:	9a00      	ldr	r2, [sp, #0]
    4540:	b11a      	cbz	r2, 454a <gpiote_event_handler+0x8a>
	gpio_fire_callbacks(list, port, pins);
    4542:	490a      	ldr	r1, [pc, #40]	; (456c <gpiote_event_handler+0xac>)
    4544:	480c      	ldr	r0, [pc, #48]	; (4578 <gpiote_event_handler+0xb8>)
    4546:	f004 f985 	bl	8854 <gpio_fire_callbacks>
	if (fired_triggers[1]) {
    454a:	9a01      	ldr	r2, [sp, #4]
    454c:	b11a      	cbz	r2, 4556 <gpiote_event_handler+0x96>
	gpio_fire_callbacks(list, port, pins);
    454e:	4908      	ldr	r1, [pc, #32]	; (4570 <gpiote_event_handler+0xb0>)
    4550:	480a      	ldr	r0, [pc, #40]	; (457c <gpiote_event_handler+0xbc>)
    4552:	f004 f97f 	bl	8854 <gpio_fire_callbacks>
	if (port_event) {
    4556:	b12d      	cbz	r5, 4564 <gpiote_event_handler+0xa4>
		cfg_level_pins(DEVICE_DT_GET(GPIO(0)));
    4558:	4804      	ldr	r0, [pc, #16]	; (456c <gpiote_event_handler+0xac>)
    455a:	f004 f9e5 	bl	8928 <cfg_level_pins>
		cfg_level_pins(DEVICE_DT_GET(GPIO(1)));
    455e:	4804      	ldr	r0, [pc, #16]	; (4570 <gpiote_event_handler+0xb0>)
    4560:	f004 f9e2 	bl	8928 <cfg_level_pins>
}
    4564:	b005      	add	sp, #20
    4566:	bdf0      	pop	{r4, r5, r6, r7, pc}
    4568:	4000617c 	.word	0x4000617c
    456c:	200000ec 	.word	0x200000ec
    4570:	20000104 	.word	0x20000104
    4574:	40006000 	.word	0x40006000
    4578:	200005cc 	.word	0x200005cc
    457c:	200005e8 	.word	0x200005e8

00004580 <spi_1_init>:
#ifdef CONFIG_SPI_0_NRF_SPI
SPI_NRFX_SPI_DEVICE(0);
#endif

#ifdef CONFIG_SPI_1_NRF_SPI
SPI_NRFX_SPI_DEVICE(1);
    4580:	b538      	push	{r3, r4, r5, lr}
    4582:	4604      	mov	r4, r0
    4584:	2200      	movs	r2, #0
    4586:	2101      	movs	r1, #1
    4588:	2004      	movs	r0, #4
    458a:	f7ff f9d3 	bl	3934 <z_arm_irq_priority_set>
	struct spi_nrfx_data *dev_data = get_dev_data(dev);
    458e:	6923      	ldr	r3, [r4, #16]
	result = nrfx_spi_init(&get_dev_config(dev)->spi,
    4590:	4a0e      	ldr	r2, [pc, #56]	; (45cc <spi_1_init+0x4c>)
	dev_data->dev = dev;
    4592:	64dc      	str	r4, [r3, #76]	; 0x4c
	result = nrfx_spi_init(&get_dev_config(dev)->spi,
    4594:	6860      	ldr	r0, [r4, #4]
    4596:	f100 0108 	add.w	r1, r0, #8
    459a:	f001 ff6d 	bl	6478 <nrfx_spi_init>
	if (result != NRFX_SUCCESS) {
    459e:	4b0c      	ldr	r3, [pc, #48]	; (45d0 <spi_1_init+0x50>)
    45a0:	4298      	cmp	r0, r3
    45a2:	d011      	beq.n	45c8 <spi_1_init+0x48>
    45a4:	4b0b      	ldr	r3, [pc, #44]	; (45d4 <spi_1_init+0x54>)
    45a6:	4a0c      	ldr	r2, [pc, #48]	; (45d8 <spi_1_init+0x58>)
		LOG_ERR("Failed to initialize device: %s", dev->name);
    45a8:	6821      	ldr	r1, [r4, #0]
    45aa:	480c      	ldr	r0, [pc, #48]	; (45dc <spi_1_init+0x5c>)
    45ac:	1ad2      	subs	r2, r2, r3
    45ae:	08d2      	lsrs	r2, r2, #3
    45b0:	0192      	lsls	r2, r2, #6
    45b2:	f042 0201 	orr.w	r2, r2, #1
    45b6:	f003 fd42 	bl	803e <log_1>
		return -EBUSY;
    45ba:	f06f 050f 	mvn.w	r5, #15
SPI_NRFX_SPI_DEVICE(1);
    45be:	6920      	ldr	r0, [r4, #16]
    45c0:	f004 fa0d 	bl	89de <spi_context_unlock_unconditionally>
    45c4:	4628      	mov	r0, r5
    45c6:	bd38      	pop	{r3, r4, r5, pc}
	return 0;
    45c8:	2500      	movs	r5, #0
    45ca:	e7f8      	b.n	45be <spi_1_init+0x3e>
    45cc:	000048e1 	.word	0x000048e1
    45d0:	0bad0000 	.word	0x0bad0000
    45d4:	00009384 	.word	0x00009384
    45d8:	000093bc 	.word	0x000093bc
    45dc:	00009ccb 	.word	0x00009ccb

000045e0 <transfer_next_chunk>:
{
    45e0:	b530      	push	{r4, r5, lr}
	struct spi_nrfx_data *dev_data = get_dev_data(dev);
    45e2:	6905      	ldr	r5, [r0, #16]
 * directions have a continuous buffer, i.e. the maximum SPI transfer that
 * can be done with DMA that handles only non-scattered buffers.
 */
static inline size_t spi_context_max_continuous_chunk(struct spi_context *ctx)
{
	if (!ctx->tx_len) {
    45e4:	6c2a      	ldr	r2, [r5, #64]	; 0x40
    45e6:	6cab      	ldr	r3, [r5, #72]	; 0x48
{
    45e8:	b085      	sub	sp, #20
    45ea:	b982      	cbnz	r2, 460e <transfer_next_chunk+0x2e>
	if (chunk_len > 0) {
    45ec:	bb73      	cbnz	r3, 464c <transfer_next_chunk+0x6c>
	int error = 0;
    45ee:	461c      	mov	r4, r3
	_spi_context_cs_control(ctx, on, false);
    45f0:	2200      	movs	r2, #0
    45f2:	4611      	mov	r1, r2
    45f4:	4628      	mov	r0, r5
    45f6:	f004 f9cd 	bl	8994 <_spi_context_cs_control.isra.0>
	ctx->sync_status = status;
    45fa:	62ac      	str	r4, [r5, #40]	; 0x28
	z_impl_k_sem_give(sem);
    45fc:	f105 0018 	add.w	r0, r5, #24
    4600:	f002 feba 	bl	7378 <z_impl_k_sem_give>
	dev_data->busy = false;
    4604:	2300      	movs	r3, #0
    4606:	f885 3054 	strb.w	r3, [r5, #84]	; 0x54
}
    460a:	b005      	add	sp, #20
    460c:	bd30      	pop	{r4, r5, pc}
		return ctx->rx_len;
	} else if (!ctx->rx_len) {
    460e:	4611      	mov	r1, r2
    4610:	b113      	cbz	r3, 4618 <transfer_next_chunk+0x38>
		return ctx->tx_len;
	}

	return MIN(ctx->tx_len, ctx->rx_len);
    4612:	429a      	cmp	r2, r3
    4614:	bf28      	it	cs
    4616:	4619      	movcs	r1, r3
		xfer.p_tx_buffer = ctx->tx_buf;
    4618:	6bec      	ldr	r4, [r5, #60]	; 0x3c
		dev_data->chunk_len = chunk_len;
    461a:	6529      	str	r1, [r5, #80]	; 0x50
		xfer.p_tx_buffer = ctx->tx_buf;
    461c:	9400      	str	r4, [sp, #0]
	return !!(ctx->tx_buf && ctx->tx_len);
    461e:	b1bc      	cbz	r4, 4650 <transfer_next_chunk+0x70>
    4620:	2a00      	cmp	r2, #0
    4622:	bf18      	it	ne
    4624:	460a      	movne	r2, r1
		xfer.tx_length   = spi_context_tx_buf_on(ctx) ? chunk_len : 0;
    4626:	9201      	str	r2, [sp, #4]
		xfer.p_rx_buffer = ctx->rx_buf;
    4628:	6c6a      	ldr	r2, [r5, #68]	; 0x44
    462a:	9202      	str	r2, [sp, #8]
	return !!(ctx->rx_buf && ctx->rx_len);
    462c:	b192      	cbz	r2, 4654 <transfer_next_chunk+0x74>
    462e:	2b00      	cmp	r3, #0
    4630:	bf18      	it	ne
    4632:	460b      	movne	r3, r1
		result = nrfx_spi_xfer(&get_dev_config(dev)->spi, &xfer, 0);
    4634:	6840      	ldr	r0, [r0, #4]
		xfer.rx_length   = spi_context_rx_buf_on(ctx) ? chunk_len : 0;
    4636:	9303      	str	r3, [sp, #12]
		result = nrfx_spi_xfer(&get_dev_config(dev)->spi, &xfer, 0);
    4638:	2200      	movs	r2, #0
    463a:	4669      	mov	r1, sp
    463c:	f001 ffbe 	bl	65bc <nrfx_spi_xfer>
		if (result == NRFX_SUCCESS) {
    4640:	4b05      	ldr	r3, [pc, #20]	; (4658 <transfer_next_chunk+0x78>)
    4642:	4298      	cmp	r0, r3
    4644:	d0e1      	beq.n	460a <transfer_next_chunk+0x2a>
		error = -EIO;
    4646:	f06f 0404 	mvn.w	r4, #4
    464a:	e7d1      	b.n	45f0 <transfer_next_chunk+0x10>
    464c:	4619      	mov	r1, r3
    464e:	e7e3      	b.n	4618 <transfer_next_chunk+0x38>
		xfer.tx_length   = spi_context_tx_buf_on(ctx) ? chunk_len : 0;
    4650:	4622      	mov	r2, r4
    4652:	e7e8      	b.n	4626 <transfer_next_chunk+0x46>
		xfer.rx_length   = spi_context_rx_buf_on(ctx) ? chunk_len : 0;
    4654:	4613      	mov	r3, r2
    4656:	e7ed      	b.n	4634 <transfer_next_chunk+0x54>
    4658:	0bad0000 	.word	0x0bad0000

0000465c <spi_nrfx_transceive>:
{
    465c:	e92d 4ff7 	stmdb	sp!, {r0, r1, r2, r4, r5, r6, r7, r8, r9, sl, fp, lr}
    4660:	461e      	mov	r6, r3
	if ((spi_cfg->operation & SPI_LOCK_ON) &&
    4662:	888b      	ldrh	r3, [r1, #4]
	struct spi_nrfx_data *dev_data = get_dev_data(dev);
    4664:	6904      	ldr	r4, [r0, #16]
    4666:	045b      	lsls	r3, r3, #17
{
    4668:	4680      	mov	r8, r0
    466a:	460d      	mov	r5, r1
    466c:	4617      	mov	r7, r2
    466e:	d42d      	bmi.n	46cc <spi_nrfx_transceive+0x70>
	return z_impl_k_sem_take(sem, timeout);
    4670:	f04f 32ff 	mov.w	r2, #4294967295	; 0xffffffff
    4674:	f04f 33ff 	mov.w	r3, #4294967295	; 0xffffffff
    4678:	f104 0008 	add.w	r0, r4, #8
    467c:	f002 fe9c 	bl	73b8 <z_impl_k_sem_take>
	ctx->owner = spi_cfg;
    4680:	6065      	str	r5, [r4, #4]
	struct spi_context *ctx = &get_dev_data(dev)->ctx;
    4682:	f8d8 2010 	ldr.w	r2, [r8, #16]
	if (spi_context_configured(ctx, spi_cfg)) {
    4686:	6813      	ldr	r3, [r2, #0]
    4688:	429d      	cmp	r5, r3
    468a:	f000 80b3 	beq.w	47f4 <spi_nrfx_transceive+0x198>
	if (SPI_OP_MODE_GET(spi_cfg->operation) != SPI_OP_MODE_MASTER) {
    468e:	88ab      	ldrh	r3, [r5, #4]
    4690:	07d8      	lsls	r0, r3, #31
    4692:	d522      	bpl.n	46da <spi_nrfx_transceive+0x7e>
    4694:	4a83      	ldr	r2, [pc, #524]	; (48a4 <spi_nrfx_transceive+0x248>)
    4696:	4b84      	ldr	r3, [pc, #528]	; (48a8 <spi_nrfx_transceive+0x24c>)
		LOG_ERR("Slave mode is not supported on %s",
    4698:	f8d8 1000 	ldr.w	r1, [r8]
    469c:	4883      	ldr	r0, [pc, #524]	; (48ac <spi_nrfx_transceive+0x250>)
    469e:	1ad2      	subs	r2, r2, r3
    46a0:	08d2      	lsrs	r2, r2, #3
    46a2:	0192      	lsls	r2, r2, #6
    46a4:	f042 0201 	orr.w	r2, r2, #1
    46a8:	f003 fcc9 	bl	803e <log_1>
		return -EINVAL;
    46ac:	f06f 0515 	mvn.w	r5, #21
	if (!(ctx->config->operation & SPI_LOCK_ON)) {
    46b0:	6823      	ldr	r3, [r4, #0]
    46b2:	889b      	ldrh	r3, [r3, #4]
    46b4:	f413 4380 	ands.w	r3, r3, #16384	; 0x4000
    46b8:	d104      	bne.n	46c4 <spi_nrfx_transceive+0x68>
		ctx->owner = NULL;
    46ba:	6063      	str	r3, [r4, #4]
	z_impl_k_sem_give(sem);
    46bc:	f104 0008 	add.w	r0, r4, #8
    46c0:	f002 fe5a 	bl	7378 <z_impl_k_sem_give>
}
    46c4:	4628      	mov	r0, r5
    46c6:	b003      	add	sp, #12
    46c8:	e8bd 8ff0 	ldmia.w	sp!, {r4, r5, r6, r7, r8, r9, sl, fp, pc}
	if ((spi_cfg->operation & SPI_LOCK_ON) &&
    46cc:	6923      	ldr	r3, [r4, #16]
    46ce:	2b00      	cmp	r3, #0
    46d0:	d1ce      	bne.n	4670 <spi_nrfx_transceive+0x14>
		(k_sem_count_get(&ctx->lock) == 0) &&
    46d2:	6863      	ldr	r3, [r4, #4]
    46d4:	4299      	cmp	r1, r3
    46d6:	d1cb      	bne.n	4670 <spi_nrfx_transceive+0x14>
    46d8:	e7d3      	b.n	4682 <spi_nrfx_transceive+0x26>
	if (spi_cfg->operation & SPI_MODE_LOOP) {
    46da:	0719      	lsls	r1, r3, #28
    46dc:	d50a      	bpl.n	46f4 <spi_nrfx_transceive+0x98>
    46de:	4971      	ldr	r1, [pc, #452]	; (48a4 <spi_nrfx_transceive+0x248>)
    46e0:	4b71      	ldr	r3, [pc, #452]	; (48a8 <spi_nrfx_transceive+0x24c>)
		LOG_ERR("Loopback mode is not supported");
    46e2:	4873      	ldr	r0, [pc, #460]	; (48b0 <spi_nrfx_transceive+0x254>)
    46e4:	1ac9      	subs	r1, r1, r3
    46e6:	08c9      	lsrs	r1, r1, #3
    46e8:	0189      	lsls	r1, r1, #6
    46ea:	f041 0101 	orr.w	r1, r1, #1
		LOG_ERR("Word sizes other than 8 bits"
    46ee:	f003 fc99 	bl	8024 <log_0>
    46f2:	e7db      	b.n	46ac <spi_nrfx_transceive+0x50>
	if ((spi_cfg->operation & SPI_LINES_MASK) != SPI_LINES_SINGLE) {
    46f4:	f413 5fc0 	tst.w	r3, #6144	; 0x1800
    46f8:	d008      	beq.n	470c <spi_nrfx_transceive+0xb0>
    46fa:	496a      	ldr	r1, [pc, #424]	; (48a4 <spi_nrfx_transceive+0x248>)
    46fc:	4b6a      	ldr	r3, [pc, #424]	; (48a8 <spi_nrfx_transceive+0x24c>)
		LOG_ERR("Only single line mode is supported");
    46fe:	486d      	ldr	r0, [pc, #436]	; (48b4 <spi_nrfx_transceive+0x258>)
    4700:	1ac9      	subs	r1, r1, r3
    4702:	08c9      	lsrs	r1, r1, #3
    4704:	0189      	lsls	r1, r1, #6
    4706:	f041 0101 	orr.w	r1, r1, #1
    470a:	e7f0      	b.n	46ee <spi_nrfx_transceive+0x92>
	if (SPI_WORD_SIZE_GET(spi_cfg->operation) != 8) {
    470c:	f3c3 1345 	ubfx	r3, r3, #5, #6
    4710:	2b08      	cmp	r3, #8
    4712:	d008      	beq.n	4726 <spi_nrfx_transceive+0xca>
    4714:	4963      	ldr	r1, [pc, #396]	; (48a4 <spi_nrfx_transceive+0x248>)
    4716:	4b64      	ldr	r3, [pc, #400]	; (48a8 <spi_nrfx_transceive+0x24c>)
		LOG_ERR("Word sizes other than 8 bits"
    4718:	4867      	ldr	r0, [pc, #412]	; (48b8 <spi_nrfx_transceive+0x25c>)
    471a:	1ac9      	subs	r1, r1, r3
    471c:	08c9      	lsrs	r1, r1, #3
    471e:	0189      	lsls	r1, r1, #6
    4720:	f041 0101 	orr.w	r1, r1, #1
    4724:	e7e3      	b.n	46ee <spi_nrfx_transceive+0x92>
	if (spi_cfg->frequency < 125000) {
    4726:	6829      	ldr	r1, [r5, #0]
    4728:	4b64      	ldr	r3, [pc, #400]	; (48bc <spi_nrfx_transceive+0x260>)
    472a:	4299      	cmp	r1, r3
    472c:	d808      	bhi.n	4740 <spi_nrfx_transceive+0xe4>
    472e:	495d      	ldr	r1, [pc, #372]	; (48a4 <spi_nrfx_transceive+0x248>)
    4730:	4b5d      	ldr	r3, [pc, #372]	; (48a8 <spi_nrfx_transceive+0x24c>)
		LOG_ERR("Frequencies lower than 125 kHz are not supported");
    4732:	4863      	ldr	r0, [pc, #396]	; (48c0 <spi_nrfx_transceive+0x264>)
    4734:	1ac9      	subs	r1, r1, r3
    4736:	08c9      	lsrs	r1, r1, #3
    4738:	0189      	lsls	r1, r1, #6
    473a:	f041 0101 	orr.w	r1, r1, #1
    473e:	e7d6      	b.n	46ee <spi_nrfx_transceive+0x92>
	if (ctx->config->cs && ctx->config->cs->gpio_dev) {
    4740:	68ab      	ldr	r3, [r5, #8]
	const nrfx_spi_t *spi = &get_dev_config(dev)->spi;
    4742:	f8d8 9004 	ldr.w	r9, [r8, #4]
	ctx->config = spi_cfg;
    4746:	6015      	str	r5, [r2, #0]
    4748:	2b00      	cmp	r3, #0
    474a:	d07d      	beq.n	4848 <spi_nrfx_transceive+0x1ec>
    474c:	6818      	ldr	r0, [r3, #0]
    474e:	2800      	cmp	r0, #0
    4750:	d07a      	beq.n	4848 <spi_nrfx_transceive+0x1ec>
				   ctx->config->cs->gpio_dt_flags |
    4752:	f893 a009 	ldrb.w	sl, [r3, #9]
		gpio_pin_configure(ctx->config->cs->gpio_dev,
    4756:	7a19      	ldrb	r1, [r3, #8]
{
	const struct gpio_driver_api *api =
		(const struct gpio_driver_api *)port->api;
	const struct gpio_driver_config *const cfg =
		(const struct gpio_driver_config *)port->config;
	struct gpio_driver_data *data =
    4758:	f8d0 b010 	ldr.w	fp, [r0, #16]
		 != (GPIO_OUTPUT_INIT_LOW | GPIO_OUTPUT_INIT_HIGH),
		 "Output cannot be initialized low and high");

	if (((flags & GPIO_OUTPUT_INIT_LOGICAL) != 0)
	    && ((flags & (GPIO_OUTPUT_INIT_LOW | GPIO_OUTPUT_INIT_HIGH)) != 0)
	    && ((flags & GPIO_ACTIVE_LOW) != 0)) {
    475c:	f01a 0f01 	tst.w	sl, #1
    4760:	bf0c      	ite	eq
    4762:	f44a 5ab0 	orreq.w	sl, sl, #5632	; 0x1600
		flags ^= GPIO_OUTPUT_INIT_LOW | GPIO_OUTPUT_INIT_HIGH;
    4766:	f48a 5ad0 	eorne.w	sl, sl, #6656	; 0x1a00
	return api->pin_configure(port, pin, flags);
    476a:	6883      	ldr	r3, [r0, #8]
    476c:	9101      	str	r1, [sp, #4]
    476e:	681b      	ldr	r3, [r3, #0]
	}

	flags &= ~GPIO_OUTPUT_INIT_LOGICAL;
    4770:	f42a 5280 	bic.w	r2, sl, #4096	; 0x1000
	return api->pin_configure(port, pin, flags);
    4774:	4798      	blx	r3
	(void)cfg;
	__ASSERT((cfg->port_pin_mask & (gpio_port_pins_t)BIT(pin)) != 0U,
		 "Unsupported pin");

	ret = gpio_config(port, pin, flags);
	if (ret != 0) {
    4776:	b968      	cbnz	r0, 4794 <spi_nrfx_transceive+0x138>
		return ret;
	}

	if ((flags & GPIO_ACTIVE_LOW) != 0) {
    4778:	9901      	ldr	r1, [sp, #4]
    477a:	f8db 2000 	ldr.w	r2, [fp]
    477e:	2301      	movs	r3, #1
    4780:	fa03 f101 	lsl.w	r1, r3, r1
    4784:	f01a 0f01 	tst.w	sl, #1
		data->invert |= (gpio_port_pins_t)BIT(pin);
    4788:	bf14      	ite	ne
    478a:	4311      	orrne	r1, r2
	} else {
		data->invert &= ~(gpio_port_pins_t)BIT(pin);
    478c:	ea22 0101 	biceq.w	r1, r2, r1
    4790:	f8cb 1000 	str.w	r1, [fp]
	nrf_spi_configure(spi->p_reg,
    4794:	88a9      	ldrh	r1, [r5, #4]
    4796:	f8d9 2000 	ldr.w	r2, [r9]
	if (SPI_MODE_GET(operation) & SPI_MODE_CPOL) {
    479a:	0788      	lsls	r0, r1, #30
    479c:	f001 0304 	and.w	r3, r1, #4
    47a0:	d55d      	bpl.n	485e <spi_nrfx_transceive+0x202>
			return NRF_SPI_MODE_2;
    47a2:	2b00      	cmp	r3, #0
    47a4:	bf14      	ite	ne
    47a6:	2303      	movne	r3, #3
    47a8:	2302      	moveq	r3, #2
                                         nrf_spi_mode_t      spi_mode,
                                         nrf_spi_bit_order_t spi_bit_order)
{
    uint32_t config = (spi_bit_order == NRF_SPI_BIT_ORDER_MSB_FIRST ?
        SPI_CONFIG_ORDER_MsbFirst : SPI_CONFIG_ORDER_LsbFirst);
    switch (spi_mode)
    47aa:	2b02      	cmp	r3, #2
	if (operation & SPI_TRANSFER_LSB) {
    47ac:	f3c1 1100 	ubfx	r1, r1, #4, #1
    47b0:	d059      	beq.n	4866 <spi_nrfx_transceive+0x20a>
    47b2:	2b03      	cmp	r3, #3
    47b4:	d05a      	beq.n	486c <spi_nrfx_transceive+0x210>
    47b6:	2b01      	cmp	r3, #1
    47b8:	d101      	bne.n	47be <spi_nrfx_transceive+0x162>
        config |= (SPI_CONFIG_CPOL_ActiveHigh << SPI_CONFIG_CPOL_Pos) |
                  (SPI_CONFIG_CPHA_Leading    << SPI_CONFIG_CPHA_Pos);
        break;

    case NRF_SPI_MODE_1:
        config |= (SPI_CONFIG_CPOL_ActiveHigh << SPI_CONFIG_CPOL_Pos) |
    47ba:	f041 0102 	orr.w	r1, r1, #2
	if (frequency < 250000) {
    47be:	4b41      	ldr	r3, [pc, #260]	; (48c4 <spi_nrfx_transceive+0x268>)
    case NRF_SPI_MODE_3:
        config |= (SPI_CONFIG_CPOL_ActiveLow  << SPI_CONFIG_CPOL_Pos) |
                  (SPI_CONFIG_CPHA_Trailing   << SPI_CONFIG_CPHA_Pos);
        break;
    }
    p_reg->CONFIG = config;
    47c0:	f8c2 1554 	str.w	r1, [r2, #1364]	; 0x554
	nrf_spi_frequency_set(spi->p_reg,
    47c4:	6829      	ldr	r1, [r5, #0]
	if (frequency < 250000) {
    47c6:	4299      	cmp	r1, r3
    47c8:	d953      	bls.n	4872 <spi_nrfx_transceive+0x216>
	} else if (frequency < 500000) {
    47ca:	4b3f      	ldr	r3, [pc, #252]	; (48c8 <spi_nrfx_transceive+0x26c>)
    47cc:	4299      	cmp	r1, r3
    47ce:	d953      	bls.n	4878 <spi_nrfx_transceive+0x21c>
	} else if (frequency < 1000000) {
    47d0:	4b3e      	ldr	r3, [pc, #248]	; (48cc <spi_nrfx_transceive+0x270>)
    47d2:	4299      	cmp	r1, r3
    47d4:	d953      	bls.n	487e <spi_nrfx_transceive+0x222>
	} else if (frequency < 2000000) {
    47d6:	4b3e      	ldr	r3, [pc, #248]	; (48d0 <spi_nrfx_transceive+0x274>)
    47d8:	4299      	cmp	r1, r3
    47da:	d953      	bls.n	4884 <spi_nrfx_transceive+0x228>
	} else if (frequency < 4000000) {
    47dc:	4b3d      	ldr	r3, [pc, #244]	; (48d4 <spi_nrfx_transceive+0x278>)
    47de:	4299      	cmp	r1, r3
    47e0:	d953      	bls.n	488a <spi_nrfx_transceive+0x22e>
		return NRF_SPI_FREQ_8M;
    47e2:	4b3d      	ldr	r3, [pc, #244]	; (48d8 <spi_nrfx_transceive+0x27c>)
    47e4:	4299      	cmp	r1, r3
    47e6:	bf34      	ite	cc
    47e8:	f04f 4180 	movcc.w	r1, #1073741824	; 0x40000000
    47ec:	f04f 4100 	movcs.w	r1, #2147483648	; 0x80000000
    p_reg->FREQUENCY = (uint32_t)frequency;
    47f0:	f8c2 1524 	str.w	r1, [r2, #1316]	; 0x524
		dev_data->busy = true;
    47f4:	2301      	movs	r3, #1
    47f6:	f884 3054 	strb.w	r3, [r4, #84]	; 0x54
	if (tx_bufs) {
    47fa:	2f00      	cmp	r7, #0
    47fc:	d048      	beq.n	4890 <spi_nrfx_transceive+0x234>
		ctx->current_tx = tx_bufs->buffers;
    47fe:	683b      	ldr	r3, [r7, #0]
		ctx->tx_count = tx_bufs->count;
    4800:	687a      	ldr	r2, [r7, #4]
		ctx->current_tx = tx_bufs->buffers;
    4802:	62e3      	str	r3, [r4, #44]	; 0x2c
		ctx->tx_count = tx_bufs->count;
    4804:	6322      	str	r2, [r4, #48]	; 0x30
		ctx->tx_buf = (const uint8_t *)ctx->current_tx->buf;
    4806:	681a      	ldr	r2, [r3, #0]
		ctx->tx_len = ctx->current_tx->len / dfs;
    4808:	685b      	ldr	r3, [r3, #4]
		ctx->tx_buf = (const uint8_t *)ctx->current_tx->buf;
    480a:	63e2      	str	r2, [r4, #60]	; 0x3c
		ctx->tx_len = ctx->current_tx->len / dfs;
    480c:	6423      	str	r3, [r4, #64]	; 0x40
	if (rx_bufs) {
    480e:	2e00      	cmp	r6, #0
    4810:	d043      	beq.n	489a <spi_nrfx_transceive+0x23e>
		ctx->current_rx = rx_bufs->buffers;
    4812:	6833      	ldr	r3, [r6, #0]
		ctx->rx_count = rx_bufs->count;
    4814:	6872      	ldr	r2, [r6, #4]
		ctx->current_rx = rx_bufs->buffers;
    4816:	6363      	str	r3, [r4, #52]	; 0x34
		ctx->rx_count = rx_bufs->count;
    4818:	63a2      	str	r2, [r4, #56]	; 0x38
		ctx->rx_buf = (uint8_t *)ctx->current_rx->buf;
    481a:	681a      	ldr	r2, [r3, #0]
		ctx->rx_len = ctx->current_rx->len / dfs;
    481c:	685b      	ldr	r3, [r3, #4]
		ctx->rx_buf = (uint8_t *)ctx->current_rx->buf;
    481e:	6462      	str	r2, [r4, #68]	; 0x44
		ctx->rx_len = ctx->current_rx->len / dfs;
    4820:	64a3      	str	r3, [r4, #72]	; 0x48
	ctx->sync_status = 0;
    4822:	2200      	movs	r2, #0
    4824:	62a2      	str	r2, [r4, #40]	; 0x28
	_spi_context_cs_control(ctx, on, false);
    4826:	2101      	movs	r1, #1
    4828:	4620      	mov	r0, r4
    482a:	f004 f8b3 	bl	8994 <_spi_context_cs_control.isra.0>
		transfer_next_chunk(dev);
    482e:	4640      	mov	r0, r8
    4830:	f7ff fed6 	bl	45e0 <transfer_next_chunk>
	return z_impl_k_sem_take(sem, timeout);
    4834:	f04f 32ff 	mov.w	r2, #4294967295	; 0xffffffff
    4838:	f04f 33ff 	mov.w	r3, #4294967295	; 0xffffffff
    483c:	f104 0018 	add.w	r0, r4, #24
    4840:	f002 fdba 	bl	73b8 <z_impl_k_sem_take>
	status = ctx->sync_status;
    4844:	6aa5      	ldr	r5, [r4, #40]	; 0x28
	return status;
    4846:	e733      	b.n	46b0 <spi_nrfx_transceive+0x54>
    4848:	4b17      	ldr	r3, [pc, #92]	; (48a8 <spi_nrfx_transceive+0x24c>)
    484a:	4916      	ldr	r1, [pc, #88]	; (48a4 <spi_nrfx_transceive+0x248>)
		LOG_INF("CS control inhibited (no GPIO device)");
    484c:	4823      	ldr	r0, [pc, #140]	; (48dc <spi_nrfx_transceive+0x280>)
    484e:	1ac9      	subs	r1, r1, r3
    4850:	08c9      	lsrs	r1, r1, #3
    4852:	0189      	lsls	r1, r1, #6
    4854:	f041 0103 	orr.w	r1, r1, #3
    4858:	f003 fbe4 	bl	8024 <log_0>
    485c:	e79a      	b.n	4794 <spi_nrfx_transceive+0x138>
			return NRF_SPI_MODE_0;
    485e:	3b00      	subs	r3, #0
    4860:	bf18      	it	ne
    4862:	2301      	movne	r3, #1
    4864:	e7a1      	b.n	47aa <spi_nrfx_transceive+0x14e>
        config |= (SPI_CONFIG_CPOL_ActiveLow  << SPI_CONFIG_CPOL_Pos) |
    4866:	f041 0104 	orr.w	r1, r1, #4
        break;
    486a:	e7a8      	b.n	47be <spi_nrfx_transceive+0x162>
        config |= (SPI_CONFIG_CPOL_ActiveLow  << SPI_CONFIG_CPOL_Pos) |
    486c:	f041 0106 	orr.w	r1, r1, #6
        break;
    4870:	e7a5      	b.n	47be <spi_nrfx_transceive+0x162>
		return NRF_SPI_FREQ_125K;
    4872:	f04f 7100 	mov.w	r1, #33554432	; 0x2000000
    4876:	e7bb      	b.n	47f0 <spi_nrfx_transceive+0x194>
		return NRF_SPI_FREQ_250K;
    4878:	f04f 6180 	mov.w	r1, #67108864	; 0x4000000
    487c:	e7b8      	b.n	47f0 <spi_nrfx_transceive+0x194>
		return NRF_SPI_FREQ_500K;
    487e:	f04f 6100 	mov.w	r1, #134217728	; 0x8000000
    4882:	e7b5      	b.n	47f0 <spi_nrfx_transceive+0x194>
		return NRF_SPI_FREQ_1M;
    4884:	f04f 5180 	mov.w	r1, #268435456	; 0x10000000
    4888:	e7b2      	b.n	47f0 <spi_nrfx_transceive+0x194>
		return NRF_SPI_FREQ_2M;
    488a:	f04f 5100 	mov.w	r1, #536870912	; 0x20000000
    488e:	e7af      	b.n	47f0 <spi_nrfx_transceive+0x194>
		ctx->tx_count = 0;
    4890:	e9c4 770b 	strd	r7, r7, [r4, #44]	; 0x2c
		ctx->tx_len = 0;
    4894:	e9c4 770f 	strd	r7, r7, [r4, #60]	; 0x3c
    4898:	e7b9      	b.n	480e <spi_nrfx_transceive+0x1b2>
		ctx->rx_count = 0;
    489a:	e9c4 660d 	strd	r6, r6, [r4, #52]	; 0x34
		ctx->rx_len = 0;
    489e:	e9c4 6611 	strd	r6, r6, [r4, #68]	; 0x44
    48a2:	e7be      	b.n	4822 <spi_nrfx_transceive+0x1c6>
    48a4:	000093bc 	.word	0x000093bc
    48a8:	00009384 	.word	0x00009384
    48ac:	00009ceb 	.word	0x00009ceb
    48b0:	00009d0d 	.word	0x00009d0d
    48b4:	00009d2c 	.word	0x00009d2c
    48b8:	00009d4f 	.word	0x00009d4f
    48bc:	0001e847 	.word	0x0001e847
    48c0:	00009d7e 	.word	0x00009d7e
    48c4:	0003d08f 	.word	0x0003d08f
    48c8:	0007a11f 	.word	0x0007a11f
    48cc:	000f423f 	.word	0x000f423f
    48d0:	001e847f 	.word	0x001e847f
    48d4:	003d08ff 	.word	0x003d08ff
    48d8:	007a1200 	.word	0x007a1200
    48dc:	00009daf 	.word	0x00009daf

000048e0 <event_handler>:
{
    48e0:	b510      	push	{r4, lr}
	if (p_event->type == NRFX_SPI_EVENT_DONE) {
    48e2:	7803      	ldrb	r3, [r0, #0]
{
    48e4:	460c      	mov	r4, r1
	if (p_event->type == NRFX_SPI_EVENT_DONE) {
    48e6:	2b00      	cmp	r3, #0
    48e8:	d14e      	bne.n	4988 <event_handler+0xa8>
	if (!ctx->tx_len) {
    48ea:	6c0b      	ldr	r3, [r1, #64]	; 0x40
    48ec:	b163      	cbz	r3, 4908 <event_handler+0x28>
		spi_context_update_tx(&dev_data->ctx, 1, dev_data->chunk_len);
    48ee:	6d0a      	ldr	r2, [r1, #80]	; 0x50
	if (len > ctx->tx_len) {
    48f0:	429a      	cmp	r2, r3
    48f2:	d91d      	bls.n	4930 <event_handler+0x50>
    48f4:	4925      	ldr	r1, [pc, #148]	; (498c <event_handler+0xac>)
    48f6:	4b26      	ldr	r3, [pc, #152]	; (4990 <event_handler+0xb0>)
		LOG_ERR("Update exceeds current buffer");
    48f8:	4826      	ldr	r0, [pc, #152]	; (4994 <event_handler+0xb4>)
    48fa:	1ac9      	subs	r1, r1, r3
    48fc:	08c9      	lsrs	r1, r1, #3
    48fe:	0189      	lsls	r1, r1, #6
    4900:	f041 0101 	orr.w	r1, r1, #1
    4904:	f003 fb8e 	bl	8024 <log_0>
	if (!ctx->rx_len) {
    4908:	6ca3      	ldr	r3, [r4, #72]	; 0x48
    490a:	b163      	cbz	r3, 4926 <event_handler+0x46>
		spi_context_update_rx(&dev_data->ctx, 1, dev_data->chunk_len);
    490c:	6d22      	ldr	r2, [r4, #80]	; 0x50
	if (len > ctx->rx_len) {
    490e:	429a      	cmp	r2, r3
    4910:	d924      	bls.n	495c <event_handler+0x7c>
    4912:	491e      	ldr	r1, [pc, #120]	; (498c <event_handler+0xac>)
    4914:	4b1e      	ldr	r3, [pc, #120]	; (4990 <event_handler+0xb0>)
		LOG_ERR("Update exceeds current buffer");
    4916:	481f      	ldr	r0, [pc, #124]	; (4994 <event_handler+0xb4>)
    4918:	1ac9      	subs	r1, r1, r3
    491a:	08c9      	lsrs	r1, r1, #3
    491c:	0189      	lsls	r1, r1, #6
    491e:	f041 0101 	orr.w	r1, r1, #1
    4922:	f003 fb7f 	bl	8024 <log_0>
		transfer_next_chunk(dev_data->dev);
    4926:	6ce0      	ldr	r0, [r4, #76]	; 0x4c
}
    4928:	e8bd 4010 	ldmia.w	sp!, {r4, lr}
		transfer_next_chunk(dev_data->dev);
    492c:	f7ff be58 	b.w	45e0 <transfer_next_chunk>
	ctx->tx_len -= len;
    4930:	1a9b      	subs	r3, r3, r2
    4932:	640b      	str	r3, [r1, #64]	; 0x40
	if (!ctx->tx_len) {
    4934:	b963      	cbnz	r3, 4950 <event_handler+0x70>
		ctx->tx_count--;
    4936:	6b0b      	ldr	r3, [r1, #48]	; 0x30
    4938:	3b01      	subs	r3, #1
    493a:	630b      	str	r3, [r1, #48]	; 0x30
		if (ctx->tx_count) {
    493c:	b163      	cbz	r3, 4958 <event_handler+0x78>
			ctx->current_tx++;
    493e:	6acb      	ldr	r3, [r1, #44]	; 0x2c
    4940:	f103 0208 	add.w	r2, r3, #8
    4944:	62ca      	str	r2, [r1, #44]	; 0x2c
			ctx->tx_buf = (const uint8_t *)ctx->current_tx->buf;
    4946:	689a      	ldr	r2, [r3, #8]
			ctx->tx_len = ctx->current_tx->len / dfs;
    4948:	68db      	ldr	r3, [r3, #12]
			ctx->tx_buf = (const uint8_t *)ctx->current_tx->buf;
    494a:	63ca      	str	r2, [r1, #60]	; 0x3c
			ctx->tx_len = ctx->current_tx->len / dfs;
    494c:	640b      	str	r3, [r1, #64]	; 0x40
    494e:	e7db      	b.n	4908 <event_handler+0x28>
	} else if (ctx->tx_buf) {
    4950:	6bcb      	ldr	r3, [r1, #60]	; 0x3c
    4952:	2b00      	cmp	r3, #0
    4954:	d0d8      	beq.n	4908 <event_handler+0x28>
		ctx->tx_buf += dfs * len;
    4956:	4413      	add	r3, r2
    4958:	63e3      	str	r3, [r4, #60]	; 0x3c
    495a:	e7d5      	b.n	4908 <event_handler+0x28>
	ctx->rx_len -= len;
    495c:	1a9b      	subs	r3, r3, r2
    495e:	64a3      	str	r3, [r4, #72]	; 0x48
	if (!ctx->rx_len) {
    4960:	b963      	cbnz	r3, 497c <event_handler+0x9c>
		ctx->rx_count--;
    4962:	6ba3      	ldr	r3, [r4, #56]	; 0x38
    4964:	3b01      	subs	r3, #1
    4966:	63a3      	str	r3, [r4, #56]	; 0x38
		if (ctx->rx_count) {
    4968:	b163      	cbz	r3, 4984 <event_handler+0xa4>
			ctx->current_rx++;
    496a:	6b63      	ldr	r3, [r4, #52]	; 0x34
    496c:	f103 0208 	add.w	r2, r3, #8
    4970:	6362      	str	r2, [r4, #52]	; 0x34
			ctx->rx_buf = (uint8_t *)ctx->current_rx->buf;
    4972:	689a      	ldr	r2, [r3, #8]
			ctx->rx_len = ctx->current_rx->len / dfs;
    4974:	68db      	ldr	r3, [r3, #12]
			ctx->rx_buf = (uint8_t *)ctx->current_rx->buf;
    4976:	6462      	str	r2, [r4, #68]	; 0x44
			ctx->rx_len = ctx->current_rx->len / dfs;
    4978:	64a3      	str	r3, [r4, #72]	; 0x48
    497a:	e7d4      	b.n	4926 <event_handler+0x46>
	} else if (ctx->rx_buf) {
    497c:	6c63      	ldr	r3, [r4, #68]	; 0x44
    497e:	2b00      	cmp	r3, #0
    4980:	d0d1      	beq.n	4926 <event_handler+0x46>
		ctx->rx_buf += dfs * len;
    4982:	4413      	add	r3, r2
    4984:	6463      	str	r3, [r4, #68]	; 0x44
    4986:	e7ce      	b.n	4926 <event_handler+0x46>
}
    4988:	bd10      	pop	{r4, pc}
    498a:	bf00      	nop
    498c:	000093bc 	.word	0x000093bc
    4990:	00009384 	.word	0x00009384
    4994:	00009dd5 	.word	0x00009dd5

00004998 <timer_callback>:
	return k_work_submit_to_queue(&k_sys_work_q, work);
    4998:	4901      	ldr	r1, [pc, #4]	; (49a0 <timer_callback+0x8>)
    499a:	4802      	ldr	r0, [pc, #8]	; (49a4 <timer_callback+0xc>)
    499c:	f004 bb2b 	b.w	8ff6 <k_work_submit_to_queue>
    49a0:	20000068 	.word	0x20000068
    49a4:	20000368 	.word	0x20000368

000049a8 <RtcGetTimerElapsedTime>:
{
	return k_uptime_get_32();
}

uint32_t RtcGetTimerElapsedTime(void)
{
    49a8:	b508      	push	{r3, lr}
	return (uint32_t)k_uptime_get();
    49aa:	f004 f83c 	bl	8a26 <k_uptime_get>
	return (k_uptime_get_32() - saved_time);
    49ae:	4b02      	ldr	r3, [pc, #8]	; (49b8 <RtcGetTimerElapsedTime+0x10>)
    49b0:	681b      	ldr	r3, [r3, #0]
}
    49b2:	1ac0      	subs	r0, r0, r3
    49b4:	bd08      	pop	{r3, pc}
    49b6:	bf00      	nop
    49b8:	20000604 	.word	0x20000604

000049bc <RtcStopAlarm>:
	z_impl_k_timer_stop(timer);
    49bc:	4801      	ldr	r0, [pc, #4]	; (49c4 <RtcStopAlarm+0x8>)
    49be:	f004 bb89 	b.w	90d4 <z_impl_k_timer_stop>
    49c2:	bf00      	nop
    49c4:	20000150 	.word	0x20000150

000049c8 <RtcSetAlarm>:
{
	k_timer_stop(&lora_timer);
}

void RtcSetAlarm(uint32_t timeout)
{
    49c8:	b537      	push	{r0, r1, r2, r4, r5, lr}
		}
	} else {
		if (result32) {
			return (uint32_t)((t * to_hz + off) / from_hz);
		} else {
			return (t * to_hz + off) / from_hz;
    49ca:	f44f 4100 	mov.w	r1, #32768	; 0x8000
    49ce:	f240 34e7 	movw	r4, #999	; 0x3e7
    49d2:	2500      	movs	r5, #0
    49d4:	fbe1 4500 	umlal	r4, r5, r1, r0
    49d8:	f44f 727a 	mov.w	r2, #1000	; 0x3e8
    49dc:	2300      	movs	r3, #0
    49de:	4620      	mov	r0, r4
    49e0:	4629      	mov	r1, r5
    49e2:	f7fc f82b 	bl	a3c <__aeabi_uldivmod>
    49e6:	4602      	mov	r2, r0
    49e8:	460b      	mov	r3, r1
	z_impl_k_timer_start(timer, duration, period);
    49ea:	2100      	movs	r1, #0
    49ec:	2000      	movs	r0, #0
    49ee:	e9cd 0100 	strd	r0, r1, [sp]
    49f2:	4802      	ldr	r0, [pc, #8]	; (49fc <RtcSetAlarm+0x34>)
    49f4:	f003 f8e4 	bl	7bc0 <z_impl_k_timer_start>
	k_timer_start(&lora_timer, K_MSEC(timeout), K_NO_WAIT);
}
    49f8:	b003      	add	sp, #12
    49fa:	bd30      	pop	{r4, r5, pc}
    49fc:	20000150 	.word	0x20000150

00004a00 <RtcSetTimerContext>:

uint32_t RtcSetTimerContext(void)
{
    4a00:	b508      	push	{r3, lr}
    4a02:	f004 f810 	bl	8a26 <k_uptime_get>
	saved_time = k_uptime_get_32();
    4a06:	4b01      	ldr	r3, [pc, #4]	; (4a0c <RtcSetTimerContext+0xc>)
    4a08:	6018      	str	r0, [r3, #0]

	return saved_time;
}
    4a0a:	bd08      	pop	{r3, pc}
    4a0c:	20000604 	.word	0x20000604

00004a10 <RtcGetTimerContext>:

/* For us, 1 tick = 1 milli second. So no need to do any conversion here */
uint32_t RtcGetTimerContext(void)
{
	return saved_time;
}
    4a10:	4b01      	ldr	r3, [pc, #4]	; (4a18 <RtcGetTimerContext+0x8>)
    4a12:	6818      	ldr	r0, [r3, #0]
    4a14:	4770      	bx	lr
    4a16:	bf00      	nop
    4a18:	20000604 	.word	0x20000604

00004a1c <sx12xx_ev_tx_done>:
	k_sem_give(&dev_data.data_sem);
}

static void sx12xx_ev_tx_done(void)
{
	Radio.Sleep();
    4a1c:	4b01      	ldr	r3, [pc, #4]	; (4a24 <sx12xx_ev_tx_done+0x8>)
    4a1e:	6adb      	ldr	r3, [r3, #44]	; 0x2c
    4a20:	4718      	bx	r3
    4a22:	bf00      	nop
    4a24:	00009560 	.word	0x00009560

00004a28 <sx12xx_ev_rx_done>:
{
    4a28:	b5f8      	push	{r3, r4, r5, r6, r7, lr}
    4a2a:	461c      	mov	r4, r3
	Radio.Sleep();
    4a2c:	4b08      	ldr	r3, [pc, #32]	; (4a50 <sx12xx_ev_rx_done+0x28>)
    4a2e:	6adb      	ldr	r3, [r3, #44]	; 0x2c
{
    4a30:	4607      	mov	r7, r0
    4a32:	460e      	mov	r6, r1
    4a34:	4615      	mov	r5, r2
	Radio.Sleep();
    4a36:	4798      	blx	r3
	dev_data.rx_buf = payload;
    4a38:	4806      	ldr	r0, [pc, #24]	; (4a54 <sx12xx_ev_rx_done+0x2c>)
    4a3a:	62c7      	str	r7, [r0, #44]	; 0x2c
	dev_data.rx_len = size;
    4a3c:	f880 6030 	strb.w	r6, [r0, #48]	; 0x30
	dev_data.rssi = rssi;
    4a40:	8645      	strh	r5, [r0, #50]	; 0x32
	dev_data.snr = snr;
    4a42:	f880 4031 	strb.w	r4, [r0, #49]	; 0x31
}
    4a46:	e8bd 40f8 	ldmia.w	sp!, {r3, r4, r5, r6, r7, lr}
	z_impl_k_sem_give(sem);
    4a4a:	f002 bc95 	b.w	7378 <z_impl_k_sem_give>
    4a4e:	bf00      	nop
    4a50:	00009560 	.word	0x00009560
    4a54:	20000608 	.word	0x20000608

00004a58 <__sx12xx_configure_pin>:
{
    4a58:	e92d 47f3 	stmdb	sp!, {r0, r1, r4, r5, r6, r7, r8, r9, sl, lr}
    4a5c:	4606      	mov	r6, r0
    4a5e:	460f      	mov	r7, r1
    4a60:	4690      	mov	r8, r2
    4a62:	461c      	mov	r4, r3
    4a64:	4608      	mov	r0, r1
    4a66:	f001 fe67 	bl	6738 <z_impl_device_get_binding>
    4a6a:	4605      	mov	r5, r0
	*dev = device_get_binding(controller);
    4a6c:	6030      	str	r0, [r6, #0]
	if (!(*dev)) {
    4a6e:	b980      	cbnz	r0, 4a92 <__sx12xx_configure_pin+0x3a>
    4a70:	4b2f      	ldr	r3, [pc, #188]	; (4b30 <__sx12xx_configure_pin+0xd8>)
    4a72:	4a30      	ldr	r2, [pc, #192]	; (4b34 <__sx12xx_configure_pin+0xdc>)
		LOG_ERR("Cannot get pointer to %s device", controller);
    4a74:	4830      	ldr	r0, [pc, #192]	; (4b38 <__sx12xx_configure_pin+0xe0>)
    4a76:	1ad2      	subs	r2, r2, r3
    4a78:	08d2      	lsrs	r2, r2, #3
    4a7a:	0192      	lsls	r2, r2, #6
    4a7c:	f042 0201 	orr.w	r2, r2, #1
    4a80:	4639      	mov	r1, r7
    4a82:	f003 fadc 	bl	803e <log_1>
		return -EIO;
    4a86:	f06f 0604 	mvn.w	r6, #4
}
    4a8a:	4630      	mov	r0, r6
    4a8c:	b002      	add	sp, #8
    4a8e:	e8bd 87f0 	ldmia.w	sp!, {r4, r5, r6, r7, r8, r9, sl, pc}
	if (((flags & GPIO_OUTPUT_INIT_LOGICAL) != 0)
    4a92:	04e6      	lsls	r6, r4, #19
	const struct gpio_driver_api *api =
    4a94:	f8d0 a008 	ldr.w	sl, [r0, #8]
	struct gpio_driver_data *data =
    4a98:	f8d0 9010 	ldr.w	r9, [r0, #16]
	if (((flags & GPIO_OUTPUT_INIT_LOGICAL) != 0)
    4a9c:	d506      	bpl.n	4aac <__sx12xx_configure_pin+0x54>
	    && ((flags & (GPIO_OUTPUT_INIT_LOW | GPIO_OUTPUT_INIT_HIGH)) != 0)
    4a9e:	f414 6f40 	tst.w	r4, #3072	; 0xc00
    4aa2:	d003      	beq.n	4aac <__sx12xx_configure_pin+0x54>
	    && ((flags & GPIO_ACTIVE_LOW) != 0)) {
    4aa4:	07e0      	lsls	r0, r4, #31
		flags ^= GPIO_OUTPUT_INIT_LOW | GPIO_OUTPUT_INIT_HIGH;
    4aa6:	bf48      	it	mi
    4aa8:	f484 6440 	eormi.w	r4, r4, #3072	; 0xc00
	return api->pin_configure(port, pin, flags);
    4aac:	68ab      	ldr	r3, [r5, #8]
    4aae:	f424 5280 	bic.w	r2, r4, #4096	; 0x1000
    4ab2:	681b      	ldr	r3, [r3, #0]
    4ab4:	4641      	mov	r1, r8
    4ab6:	4628      	mov	r0, r5
    4ab8:	4798      	blx	r3
	if (ret != 0) {
    4aba:	4606      	mov	r6, r0
    4abc:	bb38      	cbnz	r0, 4b0e <__sx12xx_configure_pin+0xb6>
	if ((flags & GPIO_ACTIVE_LOW) != 0) {
    4abe:	f8d9 2000 	ldr.w	r2, [r9]
    4ac2:	2301      	movs	r3, #1
    4ac4:	07e1      	lsls	r1, r4, #31
		data->invert |= (gpio_port_pins_t)BIT(pin);
    4ac6:	fa03 f308 	lsl.w	r3, r3, r8
    4aca:	bf4c      	ite	mi
    4acc:	431a      	orrmi	r2, r3
		data->invert &= ~(gpio_port_pins_t)BIT(pin);
    4ace:	439a      	bicpl	r2, r3
	}
	if (((flags & (GPIO_INT_DISABLE | GPIO_INT_ENABLE)) != 0U)
    4ad0:	f414 4fc0 	tst.w	r4, #24576	; 0x6000
    4ad4:	f8c9 2000 	str.w	r2, [r9]
    4ad8:	d0d7      	beq.n	4a8a <__sx12xx_configure_pin+0x32>
	    && (api->pin_interrupt_configure != NULL)) {
    4ada:	f8da 2018 	ldr.w	r2, [sl, #24]
    4ade:	2a00      	cmp	r2, #0
    4ae0:	d0d3      	beq.n	4a8a <__sx12xx_configure_pin+0x32>
	if (((flags & GPIO_INT_LEVELS_LOGICAL) != 0) &&
    4ae2:	0420      	lsls	r0, r4, #16
	const struct gpio_driver_api *api =
    4ae4:	68a9      	ldr	r1, [r5, #8]
		flags &= ~GPIO_INT_DEBOUNCE;
    4ae6:	f424 2201 	bic.w	r2, r4, #528384	; 0x81000
	if (((flags & GPIO_INT_LEVELS_LOGICAL) != 0) &&
    4aea:	d505      	bpl.n	4af8 <__sx12xx_configure_pin+0xa0>
	    ((data->invert & (gpio_port_pins_t)BIT(pin)) != 0)) {
    4aec:	6928      	ldr	r0, [r5, #16]
    4aee:	6800      	ldr	r0, [r0, #0]
	if (((flags & GPIO_INT_LEVELS_LOGICAL) != 0) &&
    4af0:	4203      	tst	r3, r0
		flags ^= (GPIO_INT_LOW_0 | GPIO_INT_HIGH_1);
    4af2:	bf18      	it	ne
    4af4:	f482 22c0 	eorne.w	r2, r2, #393216	; 0x60000
	return api->pin_interrupt_configure(port, pin, mode, trig);
    4af8:	698c      	ldr	r4, [r1, #24]
    4afa:	f402 23c0 	and.w	r3, r2, #393216	; 0x60000
    4afe:	4641      	mov	r1, r8
    4b00:	f402 32b0 	and.w	r2, r2, #90112	; 0x16000
    4b04:	4628      	mov	r0, r5
    4b06:	47a0      	blx	r4
	if (err) {
    4b08:	2800      	cmp	r0, #0
    4b0a:	d0be      	beq.n	4a8a <__sx12xx_configure_pin+0x32>
    4b0c:	4606      	mov	r6, r0
    4b0e:	4a08      	ldr	r2, [pc, #32]	; (4b30 <__sx12xx_configure_pin+0xd8>)
    4b10:	4b08      	ldr	r3, [pc, #32]	; (4b34 <__sx12xx_configure_pin+0xdc>)
		LOG_ERR("Cannot configure gpio %s %d: %d", controller, pin,
    4b12:	480a      	ldr	r0, [pc, #40]	; (4b3c <__sx12xx_configure_pin+0xe4>)
    4b14:	1a9b      	subs	r3, r3, r2
    4b16:	08db      	lsrs	r3, r3, #3
    4b18:	019b      	lsls	r3, r3, #6
    4b1a:	f043 0301 	orr.w	r3, r3, #1
    4b1e:	f8ad 3000 	strh.w	r3, [sp]
    4b22:	4642      	mov	r2, r8
    4b24:	4633      	mov	r3, r6
    4b26:	4639      	mov	r1, r7
    4b28:	f003 fab6 	bl	8098 <log_3>
		return err;
    4b2c:	e7ad      	b.n	4a8a <__sx12xx_configure_pin+0x32>
    4b2e:	bf00      	nop
    4b30:	00009384 	.word	0x00009384
    4b34:	000093cc 	.word	0x000093cc
    4b38:	00009e06 	.word	0x00009e06
    4b3c:	00009e26 	.word	0x00009e26

00004b40 <sx12xx_lora_send>:
}

int sx12xx_lora_send(const struct device *dev, uint8_t *data,
		     uint32_t data_len)
{
    4b40:	b570      	push	{r4, r5, r6, lr}
	Radio.SetMaxPayloadLength(MODEM_LORA, data_len);
    4b42:	4e06      	ldr	r6, [pc, #24]	; (4b5c <sx12xx_lora_send+0x1c>)
    4b44:	b2d4      	uxtb	r4, r2
    4b46:	6d73      	ldr	r3, [r6, #84]	; 0x54
{
    4b48:	460d      	mov	r5, r1
	Radio.SetMaxPayloadLength(MODEM_LORA, data_len);
    4b4a:	2001      	movs	r0, #1
    4b4c:	4621      	mov	r1, r4
    4b4e:	4798      	blx	r3

	Radio.Send(data, data_len);
    4b50:	4628      	mov	r0, r5
    4b52:	6ab3      	ldr	r3, [r6, #40]	; 0x28
    4b54:	4621      	mov	r1, r4
    4b56:	4798      	blx	r3

	return 0;
}
    4b58:	2000      	movs	r0, #0
    4b5a:	bd70      	pop	{r4, r5, r6, pc}
    4b5c:	00009560 	.word	0x00009560

00004b60 <sx12xx_lora_recv>:

int sx12xx_lora_recv(const struct device *dev, uint8_t *data, uint8_t size,
		     k_timeout_t timeout, int16_t *rssi, int8_t *snr)
{
    4b60:	e92d 43f8 	stmdb	sp!, {r3, r4, r5, r6, r7, r8, r9, lr}
	int ret;

	Radio.SetMaxPayloadLength(MODEM_LORA, 255);
    4b64:	4c1e      	ldr	r4, [pc, #120]	; (4be0 <sx12xx_lora_recv+0x80>)
{
    4b66:	460f      	mov	r7, r1
	Radio.SetMaxPayloadLength(MODEM_LORA, 255);
    4b68:	6d63      	ldr	r3, [r4, #84]	; 0x54
    4b6a:	21ff      	movs	r1, #255	; 0xff
    4b6c:	2001      	movs	r0, #1
{
    4b6e:	4616      	mov	r6, r2
    4b70:	e9dd 980a 	ldrd	r9, r8, [sp, #40]	; 0x28
	Radio.SetMaxPayloadLength(MODEM_LORA, 255);
    4b74:	4798      	blx	r3
	Radio.Rx(0);
    4b76:	6b63      	ldr	r3, [r4, #52]	; 0x34
    4b78:	2000      	movs	r0, #0
    4b7a:	4798      	blx	r3
	return z_impl_k_sem_take(sem, timeout);
    4b7c:	4c19      	ldr	r4, [pc, #100]	; (4be4 <sx12xx_lora_recv+0x84>)
    4b7e:	e9dd 2308 	ldrd	r2, r3, [sp, #32]
    4b82:	4620      	mov	r0, r4
    4b84:	f002 fc18 	bl	73b8 <z_impl_k_sem_take>

	ret = k_sem_take(&dev_data.data_sem, timeout);
	if (ret < 0) {
    4b88:	1e05      	subs	r5, r0, #0
    4b8a:	da0c      	bge.n	4ba6 <sx12xx_lora_recv+0x46>
    4b8c:	4916      	ldr	r1, [pc, #88]	; (4be8 <sx12xx_lora_recv+0x88>)
    4b8e:	4b17      	ldr	r3, [pc, #92]	; (4bec <sx12xx_lora_recv+0x8c>)
		LOG_ERR("Receive timeout!");
    4b90:	4817      	ldr	r0, [pc, #92]	; (4bf0 <sx12xx_lora_recv+0x90>)
    4b92:	1ac9      	subs	r1, r1, r3
    4b94:	08c9      	lsrs	r1, r1, #3
    4b96:	0189      	lsls	r1, r1, #6
    4b98:	f041 0101 	orr.w	r1, r1, #1
    4b9c:	f003 fa42 	bl	8024 <log_0>
	if (snr != NULL) {
		*snr = dev_data.snr;
	}

	return dev_data.rx_len;
}
    4ba0:	4628      	mov	r0, r5
    4ba2:	e8bd 83f8 	ldmia.w	sp!, {r3, r4, r5, r6, r7, r8, r9, pc}
	if (dev_data.rx_len > size)
    4ba6:	f894 3030 	ldrb.w	r3, [r4, #48]	; 0x30
    4baa:	6ae1      	ldr	r1, [r4, #44]	; 0x2c
    4bac:	42b3      	cmp	r3, r6
		dev_data.rx_len = size;
    4bae:	bf88      	it	hi
    4bb0:	f884 6030 	strbhi.w	r6, [r4, #48]	; 0x30
    4bb4:	f894 2030 	ldrb.w	r2, [r4, #48]	; 0x30
    4bb8:	4638      	mov	r0, r7
    4bba:	f004 faa9 	bl	9110 <memcpy>
	if (rssi != NULL) {
    4bbe:	f1b9 0f00 	cmp.w	r9, #0
    4bc2:	d003      	beq.n	4bcc <sx12xx_lora_recv+0x6c>
		*rssi = dev_data.rssi;
    4bc4:	f9b4 3032 	ldrsh.w	r3, [r4, #50]	; 0x32
    4bc8:	f8a9 3000 	strh.w	r3, [r9]
	if (snr != NULL) {
    4bcc:	f1b8 0f00 	cmp.w	r8, #0
    4bd0:	d003      	beq.n	4bda <sx12xx_lora_recv+0x7a>
		*snr = dev_data.snr;
    4bd2:	f994 3031 	ldrsb.w	r3, [r4, #49]	; 0x31
    4bd6:	f888 3000 	strb.w	r3, [r8]
	return dev_data.rx_len;
    4bda:	f894 5030 	ldrb.w	r5, [r4, #48]	; 0x30
    4bde:	e7df      	b.n	4ba0 <sx12xx_lora_recv+0x40>
    4be0:	00009560 	.word	0x00009560
    4be4:	20000608 	.word	0x20000608
    4be8:	000093cc 	.word	0x000093cc
    4bec:	00009384 	.word	0x00009384
    4bf0:	00009e46 	.word	0x00009e46

00004bf4 <sx12xx_lora_config>:

int sx12xx_lora_config(const struct device *dev,
		       struct lora_modem_config *config)
{
    4bf4:	b5f0      	push	{r4, r5, r6, r7, lr}
	Radio.SetChannel(config->frequency);
    4bf6:	4e19      	ldr	r6, [pc, #100]	; (4c5c <sx12xx_lora_config+0x68>)
    4bf8:	6808      	ldr	r0, [r1, #0]
    4bfa:	68f3      	ldr	r3, [r6, #12]
{
    4bfc:	460c      	mov	r4, r1
    4bfe:	b08b      	sub	sp, #44	; 0x2c
	Radio.SetChannel(config->frequency);
    4c00:	4798      	blx	r3

	if (config->tx) {
    4c02:	7ae5      	ldrb	r5, [r4, #11]
    4c04:	7921      	ldrb	r1, [r4, #4]
    4c06:	f8b4 c008 	ldrh.w	ip, [r4, #8]
    4c0a:	79a3      	ldrb	r3, [r4, #6]
    4c0c:	7967      	ldrb	r7, [r4, #5]
    4c0e:	b1a5      	cbz	r5, 4c3a <sx12xx_lora_config+0x46>
		Radio.SetTxConfig(MODEM_LORA, config->tx_power, 0,
    4c10:	2200      	movs	r2, #0
    4c12:	f44f 607a 	mov.w	r0, #4000	; 0xfa0
    4c16:	e9cd 2007 	strd	r2, r0, [sp, #28]
    4c1a:	2001      	movs	r0, #1
    4c1c:	e9cd 3c01 	strd	r3, ip, [sp, #4]
    4c20:	e9cd 2205 	strd	r2, r2, [sp, #20]
    4c24:	e9cd 2003 	strd	r2, r0, [sp, #12]
    4c28:	9700      	str	r7, [sp, #0]
    4c2a:	460b      	mov	r3, r1
    4c2c:	69f5      	ldr	r5, [r6, #28]
    4c2e:	f994 100a 	ldrsb.w	r1, [r4, #10]
    4c32:	47a8      	blx	r5
				  0, config->preamble_len, 10, false, 0,
				  false, 0, 0, false, true);
	}

	return 0;
}
    4c34:	2000      	movs	r0, #0
    4c36:	b00b      	add	sp, #44	; 0x2c
    4c38:	bdf0      	pop	{r4, r5, r6, r7, pc}
		Radio.SetRxConfig(MODEM_LORA, config->bandwidth,
    4c3a:	2001      	movs	r0, #1
    4c3c:	220a      	movs	r2, #10
    4c3e:	e9cd c201 	strd	ip, r2, [sp, #4]
    4c42:	e9cd 5008 	strd	r5, r0, [sp, #32]
    4c46:	e9cd 5506 	strd	r5, r5, [sp, #24]
    4c4a:	e9cd 5504 	strd	r5, r5, [sp, #16]
    4c4e:	69b4      	ldr	r4, [r6, #24]
    4c50:	9503      	str	r5, [sp, #12]
    4c52:	9500      	str	r5, [sp, #0]
    4c54:	463a      	mov	r2, r7
    4c56:	47a0      	blx	r4
    4c58:	e7ec      	b.n	4c34 <sx12xx_lora_config+0x40>
    4c5a:	bf00      	nop
    4c5c:	00009560 	.word	0x00009560

00004c60 <sx12xx_lora_test_cw>:

int sx12xx_lora_test_cw(const struct device *dev, uint32_t frequency,
			int8_t tx_power,
			uint16_t duration)
{
    4c60:	b510      	push	{r4, lr}
    4c62:	4608      	mov	r0, r1
    4c64:	4611      	mov	r1, r2
	Radio.SetTxContinuousWave(frequency, tx_power, duration);
    4c66:	4a03      	ldr	r2, [pc, #12]	; (4c74 <sx12xx_lora_test_cw+0x14>)
    4c68:	6bd4      	ldr	r4, [r2, #60]	; 0x3c
    4c6a:	461a      	mov	r2, r3
    4c6c:	47a0      	blx	r4
	return 0;
}
    4c6e:	2000      	movs	r0, #0
    4c70:	bd10      	pop	{r4, pc}
    4c72:	bf00      	nop
    4c74:	00009560 	.word	0x00009560

00004c78 <sx12xx_init>:

int sx12xx_init(const struct device *dev)
{
    4c78:	b538      	push	{r3, r4, r5, lr}
	return z_impl_k_sem_init(sem, initial_count, limit);
    4c7a:	4c0a      	ldr	r4, [pc, #40]	; (4ca4 <sx12xx_init+0x2c>)
	k_sem_init(&dev_data.data_sem, 0, K_SEM_MAX_LIMIT);

	dev_data.events.TxDone = sx12xx_ev_tx_done;
	dev_data.events.RxDone = sx12xx_ev_rx_done;
	Radio.Init(&dev_data.events);
    4c7c:	4d0a      	ldr	r5, [pc, #40]	; (4ca8 <sx12xx_init+0x30>)
    4c7e:	f04f 32ff 	mov.w	r2, #4294967295	; 0xffffffff
    4c82:	2100      	movs	r1, #0
    4c84:	4620      	mov	r0, r4
    4c86:	f004 f989 	bl	8f9c <z_impl_k_sem_init>
	dev_data.events.TxDone = sx12xx_ev_tx_done;
    4c8a:	4b08      	ldr	r3, [pc, #32]	; (4cac <sx12xx_init+0x34>)
    4c8c:	6123      	str	r3, [r4, #16]
	dev_data.events.RxDone = sx12xx_ev_rx_done;
    4c8e:	4b08      	ldr	r3, [pc, #32]	; (4cb0 <sx12xx_init+0x38>)
    4c90:	61a3      	str	r3, [r4, #24]
	Radio.Init(&dev_data.events);
    4c92:	f104 0010 	add.w	r0, r4, #16
    4c96:	682b      	ldr	r3, [r5, #0]
    4c98:	4798      	blx	r3
	 * The required `lora_config` call before transmission or reception
	 * will bring the radio out of sleep mode before it is used. The radio
	 * is automatically placed back into sleep mode upon TX or RX
	 * completion.
	 */
	Radio.Sleep();
    4c9a:	6aeb      	ldr	r3, [r5, #44]	; 0x2c
    4c9c:	4798      	blx	r3

	return 0;
}
    4c9e:	2000      	movs	r0, #0
    4ca0:	bd38      	pop	{r3, r4, r5, pc}
    4ca2:	bf00      	nop
    4ca4:	20000608 	.word	0x20000608
    4ca8:	00009560 	.word	0x00009560
    4cac:	00004a1d 	.word	0x00004a1d
    4cb0:	00004a29 	.word	0x00004a29

00004cb4 <sx127x_dio_work_handle>:
	k_sleep(K_MSEC(6));
}

static void sx127x_dio_work_handle(struct k_work *work)
{
	int dio = work - dev_data.dio_work;
    4cb4:	4b03      	ldr	r3, [pc, #12]	; (4cc4 <sx127x_dio_work_handle+0x10>)
    4cb6:	1ac0      	subs	r0, r0, r3
    4cb8:	1100      	asrs	r0, r0, #4

	(*DioIrq[dio])(NULL);
    4cba:	4b03      	ldr	r3, [pc, #12]	; (4cc8 <sx127x_dio_work_handle+0x14>)
    4cbc:	f853 3020 	ldr.w	r3, [r3, r0, lsl #2]
    4cc0:	2000      	movs	r0, #0
    4cc2:	4718      	bx	r3
    4cc4:	200006a4 	.word	0x200006a4
    4cc8:	20000078 	.word	0x20000078

00004ccc <sx127x_irq_callback>:
}

static void sx127x_irq_callback(const struct device *dev,
				struct gpio_callback *cb, uint32_t pins)
{
    4ccc:	e92d 47f0 	stmdb	sp!, {r4, r5, r6, r7, r8, r9, sl, lr}
    4cd0:	4d11      	ldr	r5, [pc, #68]	; (4d18 <sx127x_irq_callback+0x4c>)

	pin = find_lsb_set(pins) - 1;

	for (i = 0; i < SX127X_MAX_DIO; i++) {
		if (dev == dev_data.dio_dev[i] &&
		    pin == sx127x_dios[i].pin) {
    4cd2:	f8df 8048 	ldr.w	r8, [pc, #72]	; 4d1c <sx127x_irq_callback+0x50>
	return k_work_submit_to_queue(&k_sys_work_q, work);
    4cd6:	f8df a048 	ldr.w	sl, [pc, #72]	; 4d20 <sx127x_irq_callback+0x54>
 * @return least significant bit set, 0 if @a op is 0
 */

static ALWAYS_INLINE unsigned int find_lsb_set(uint32_t op)
{
	return __builtin_ffs(op);
    4cda:	fa92 f7a2 	rbit	r7, r2
    4cde:	2a00      	cmp	r2, #0
    4ce0:	fab7 f787 	clz	r7, r7
{
    4ce4:	4606      	mov	r6, r0
    4ce6:	bf08      	it	eq
    4ce8:	f04f 37ff 	moveq.w	r7, #4294967295	; 0xffffffff
	for (i = 0; i < SX127X_MAX_DIO; i++) {
    4cec:	2400      	movs	r4, #0
    4cee:	f105 0914 	add.w	r9, r5, #20
		if (dev == dev_data.dio_dev[i] &&
    4cf2:	f855 3b04 	ldr.w	r3, [r5], #4
    4cf6:	42b3      	cmp	r3, r6
    4cf8:	d109      	bne.n	4d0e <sx127x_irq_callback+0x42>
		    pin == sx127x_dios[i].pin) {
    4cfa:	eb08 03c4 	add.w	r3, r8, r4, lsl #3
    4cfe:	791b      	ldrb	r3, [r3, #4]
		if (dev == dev_data.dio_dev[i] &&
    4d00:	42bb      	cmp	r3, r7
    4d02:	d104      	bne.n	4d0e <sx127x_irq_callback+0x42>
    4d04:	eb09 1104 	add.w	r1, r9, r4, lsl #4
    4d08:	4650      	mov	r0, sl
    4d0a:	f004 f974 	bl	8ff6 <k_work_submit_to_queue>
	for (i = 0; i < SX127X_MAX_DIO; i++) {
    4d0e:	3401      	adds	r4, #1
    4d10:	2c05      	cmp	r4, #5
    4d12:	d1ee      	bne.n	4cf2 <sx127x_irq_callback+0x26>
			k_work_submit(&dev_data.dio_work[i]);
		}
	}
}
    4d14:	e8bd 87f0 	ldmia.w	sp!, {r4, r5, r6, r7, r8, r9, sl, pc}
    4d18:	20000690 	.word	0x20000690
    4d1c:	000095cc 	.word	0x000095cc
    4d20:	20000368 	.word	0x20000368

00004d24 <SX1276Reset>:
{
    4d24:	b510      	push	{r4, lr}
	gpio_pin_set(dev_data.reset, GPIO_RESET_PIN, 1);
    4d26:	4c09      	ldr	r4, [pc, #36]	; (4d4c <SX1276Reset+0x28>)
    4d28:	2101      	movs	r1, #1
    4d2a:	6820      	ldr	r0, [r4, #0]
    4d2c:	f003 feca 	bl	8ac4 <gpio_pin_set.constprop.0>
	return z_impl_k_sleep(timeout);
    4d30:	2100      	movs	r1, #0
    4d32:	2021      	movs	r0, #33	; 0x21
    4d34:	f002 fa84 	bl	7240 <z_impl_k_sleep>
	gpio_pin_set(dev_data.reset, GPIO_RESET_PIN, 0);
    4d38:	6820      	ldr	r0, [r4, #0]
    4d3a:	2100      	movs	r1, #0
    4d3c:	f003 fec2 	bl	8ac4 <gpio_pin_set.constprop.0>
    4d40:	20c5      	movs	r0, #197	; 0xc5
}
    4d42:	e8bd 4010 	ldmia.w	sp!, {r4, lr}
    4d46:	2100      	movs	r1, #0
    4d48:	f002 ba7a 	b.w	7240 <z_impl_k_sleep>
    4d4c:	2000067c 	.word	0x2000067c

00004d50 <SX1276IoIrqInit>:

void SX127xIoIrqInit(DioIrqHandler **irqHandlers)
{
    4d50:	e92d 4ff7 	stmdb	sp!, {r0, r1, r2, r4, r5, r6, r7, r8, r9, sl, fp, lr}
    4d54:	4c37      	ldr	r4, [pc, #220]	; (4e34 <SX1276IoIrqInit+0xe4>)
    4d56:	4e38      	ldr	r6, [pc, #224]	; (4e38 <SX1276IoIrqInit+0xe8>)
    4d58:	4d38      	ldr	r5, [pc, #224]	; (4e3c <SX1276IoIrqInit+0xec>)
    4d5a:	f100 0310 	add.w	r3, r0, #16
    4d5e:	f1a0 0804 	sub.w	r8, r0, #4
    4d62:	f1a4 0914 	sub.w	r9, r4, #20
    4d66:	9301      	str	r3, [sp, #4]
	unsigned int i;
	static struct gpio_callback callbacks[SX127X_MAX_DIO];

	/* Setup DIO gpios */
	for (i = 0; i < SX127X_MAX_DIO; i++) {
		if (!irqHandlers[i]) {
    4d68:	f858 3f04 	ldr.w	r3, [r8, #4]!
    4d6c:	2b00      	cmp	r3, #0
    4d6e:	d053      	beq.n	4e18 <SX1276IoIrqInit+0xc8>
			continue;
		}

		dev_data.dio_dev[i] = device_get_binding(sx127x_dios[i].port);
    4d70:	682f      	ldr	r7, [r5, #0]
    4d72:	4638      	mov	r0, r7
    4d74:	f001 fce0 	bl	6738 <z_impl_device_get_binding>
    4d78:	6020      	str	r0, [r4, #0]
		if (dev_data.dio_dev[i] == NULL) {
    4d7a:	b968      	cbnz	r0, 4d98 <SX1276IoIrqInit+0x48>
    4d7c:	4b30      	ldr	r3, [pc, #192]	; (4e40 <SX1276IoIrqInit+0xf0>)
    4d7e:	4a31      	ldr	r2, [pc, #196]	; (4e44 <SX1276IoIrqInit+0xf4>)
			LOG_ERR("Cannot get pointer to %s device",
    4d80:	4831      	ldr	r0, [pc, #196]	; (4e48 <SX1276IoIrqInit+0xf8>)
    4d82:	1ad2      	subs	r2, r2, r3
    4d84:	08d2      	lsrs	r2, r2, #3
    4d86:	0192      	lsls	r2, r2, #6
    4d88:	f042 0201 	orr.w	r2, r2, #1
    4d8c:	4639      	mov	r1, r7
		gpio_pin_interrupt_configure(dev_data.dio_dev[i],
					     sx127x_dios[i].pin,
					     GPIO_INT_EDGE_TO_ACTIVE);
	}

}
    4d8e:	b003      	add	sp, #12
    4d90:	e8bd 4ff0 	ldmia.w	sp!, {r4, r5, r6, r7, r8, r9, sl, fp, lr}
			LOG_ERR("Cannot get pointer to %s device",
    4d94:	f003 b953 	b.w	803e <log_1>
		k_work_init(&dev_data.dio_work[i], sx127x_dio_work_handle);
    4d98:	f109 0028 	add.w	r0, r9, #40	; 0x28
    4d9c:	492b      	ldr	r1, [pc, #172]	; (4e4c <SX1276IoIrqInit+0xfc>)
    4d9e:	f004 f921 	bl	8fe4 <k_work_init>
		gpio_pin_configure(dev_data.dio_dev[i], sx127x_dios[i].pin,
    4da2:	6820      	ldr	r0, [r4, #0]
    4da4:	792f      	ldrb	r7, [r5, #4]
				   | sx127x_dios[i].flags);
    4da6:	f895 b005 	ldrb.w	fp, [r5, #5]
	struct gpio_driver_data *data =
    4daa:	f8d0 a010 	ldr.w	sl, [r0, #16]
	return api->pin_configure(port, pin, flags);
    4dae:	6883      	ldr	r3, [r0, #8]
    4db0:	f44b 2200 	orr.w	r2, fp, #524288	; 0x80000
    4db4:	681b      	ldr	r3, [r3, #0]
    4db6:	f442 7280 	orr.w	r2, r2, #256	; 0x100
    4dba:	4639      	mov	r1, r7
    4dbc:	4798      	blx	r3
	if (ret != 0) {
    4dbe:	b950      	cbnz	r0, 4dd6 <SX1276IoIrqInit+0x86>
	if ((flags & GPIO_ACTIVE_LOW) != 0) {
    4dc0:	f8da 3000 	ldr.w	r3, [sl]
    4dc4:	2201      	movs	r2, #1
    4dc6:	40ba      	lsls	r2, r7
    4dc8:	f01b 0f01 	tst.w	fp, #1
		data->invert |= (gpio_port_pins_t)BIT(pin);
    4dcc:	bf14      	ite	ne
    4dce:	4313      	orrne	r3, r2
		data->invert &= ~(gpio_port_pins_t)BIT(pin);
    4dd0:	4393      	biceq	r3, r2
    4dd2:	f8ca 3000 	str.w	r3, [sl]
				      gpio_port_pins_t pin_mask)
{
	__ASSERT(callback, "Callback pointer should not be NULL");
	__ASSERT(handler, "Callback handler pointer should not be NULL");

	callback->handler = handler;
    4dd6:	4b1e      	ldr	r3, [pc, #120]	; (4e50 <SX1276IoIrqInit+0x100>)
		if (gpio_add_callback(dev_data.dio_dev[i], &callbacks[i]) < 0) {
    4dd8:	6820      	ldr	r0, [r4, #0]
    4dda:	6073      	str	r3, [r6, #4]
				   BIT(sx127x_dios[i].pin));
    4ddc:	2201      	movs	r2, #1
    4dde:	fa02 f307 	lsl.w	r3, r2, r7
	callback->pin_mask = pin_mask;
    4de2:	60b3      	str	r3, [r6, #8]
				    struct gpio_callback *callback)
{
	const struct gpio_driver_api *api =
		(const struct gpio_driver_api *)port->api;

	if (api->manage_callback == NULL) {
    4de4:	6883      	ldr	r3, [r0, #8]
    4de6:	69db      	ldr	r3, [r3, #28]
    4de8:	b963      	cbnz	r3, 4e04 <SX1276IoIrqInit+0xb4>
    4dea:	4b15      	ldr	r3, [pc, #84]	; (4e40 <SX1276IoIrqInit+0xf0>)
    4dec:	4915      	ldr	r1, [pc, #84]	; (4e44 <SX1276IoIrqInit+0xf4>)
			LOG_ERR("Could not set gpio callback.");
    4dee:	4819      	ldr	r0, [pc, #100]	; (4e54 <SX1276IoIrqInit+0x104>)
    4df0:	1ac9      	subs	r1, r1, r3
    4df2:	08c9      	lsrs	r1, r1, #3
    4df4:	0189      	lsls	r1, r1, #6
    4df6:	f041 0101 	orr.w	r1, r1, #1
}
    4dfa:	b003      	add	sp, #12
    4dfc:	e8bd 4ff0 	ldmia.w	sp!, {r4, r5, r6, r7, r8, r9, sl, fp, lr}
			LOG_ERR("Could not set gpio callback.");
    4e00:	f003 b910 	b.w	8024 <log_0>
		return -ENOTSUP;
	}

	return api->manage_callback(port, callback, true);
    4e04:	4631      	mov	r1, r6
    4e06:	4798      	blx	r3
		if (gpio_add_callback(dev_data.dio_dev[i], &callbacks[i]) < 0) {
    4e08:	2800      	cmp	r0, #0
    4e0a:	dbee      	blt.n	4dea <SX1276IoIrqInit+0x9a>
		gpio_pin_interrupt_configure(dev_data.dio_dev[i],
    4e0c:	6820      	ldr	r0, [r4, #0]
	if (z_syscall_trap()) {
		return (int) arch_syscall_invoke3(*(uintptr_t *)&port, *(uintptr_t *)&pin, *(uintptr_t *)&flags, K_SYSCALL_GPIO_PIN_INTERRUPT_CONFIGURE);
	}
#endif
	compiler_barrier();
	return z_impl_gpio_pin_interrupt_configure(port, pin, flags);
    4e0e:	f44f 22b8 	mov.w	r2, #376832	; 0x5c000
    4e12:	4639      	mov	r1, r7
    4e14:	f003 fe40 	bl	8a98 <z_impl_gpio_pin_interrupt_configure>
	for (i = 0; i < SX127X_MAX_DIO; i++) {
    4e18:	9b01      	ldr	r3, [sp, #4]
    4e1a:	4598      	cmp	r8, r3
    4e1c:	f104 0404 	add.w	r4, r4, #4
    4e20:	f106 060c 	add.w	r6, r6, #12
    4e24:	f109 0910 	add.w	r9, r9, #16
    4e28:	f105 0508 	add.w	r5, r5, #8
    4e2c:	d19c      	bne.n	4d68 <SX1276IoIrqInit+0x18>
}
    4e2e:	b003      	add	sp, #12
    4e30:	e8bd 8ff0 	ldmia.w	sp!, {r4, r5, r6, r7, r8, r9, sl, fp, pc}
    4e34:	20000690 	.word	0x20000690
    4e38:	20000640 	.word	0x20000640
    4e3c:	000095cc 	.word	0x000095cc
    4e40:	00009384 	.word	0x00009384
    4e44:	000093c4 	.word	0x000093c4
    4e48:	00009e06 	.word	0x00009e06
    4e4c:	00004cb5 	.word	0x00004cb5
    4e50:	00004ccd 	.word	0x00004ccd
    4e54:	00009e65 	.word	0x00009e65

00004e58 <sx127x_read>:

	return spi_write(dev_data.spi, &dev_data.spi_cfg, &tx);
}

int sx127x_read(uint8_t reg_addr, uint8_t *data, uint8_t len)
{
    4e58:	b510      	push	{r4, lr}
    4e5a:	b08a      	sub	sp, #40	; 0x28
	const struct spi_buf buf[2] = {
    4e5c:	f10d 0307 	add.w	r3, sp, #7
    4e60:	9306      	str	r3, [sp, #24]
    4e62:	2301      	movs	r3, #1
    4e64:	e9cd 3107 	strd	r3, r1, [sp, #28]
		return spi_transceive(dev_data.spi, &dev_data.spi_cfg, &tx, &rx);
    4e68:	4909      	ldr	r1, [pc, #36]	; (4e90 <sx127x_read+0x38>)
	return sx127x_transceive(reg_addr, false, data, len);
    4e6a:	9209      	str	r2, [sp, #36]	; 0x24
	struct spi_buf_set tx = {
    4e6c:	2302      	movs	r3, #2
    4e6e:	aa06      	add	r2, sp, #24
    4e70:	f88d 0007 	strb.w	r0, [sp, #7]
		const struct spi_buf_set rx = {
    4e74:	e9cd 3203 	strd	r3, r2, [sp, #12]
		return spi_transceive(dev_data.spi, &dev_data.spi_cfg, &tx, &rx);
    4e78:	6848      	ldr	r0, [r1, #4]
	struct spi_buf_set tx = {
    4e7a:	9202      	str	r2, [sp, #8]
		const struct spi_buf_set rx = {
    4e7c:	9305      	str	r3, [sp, #20]
					const struct spi_buf_set *rx_bufs)
{
	const struct spi_driver_api *api =
		(const struct spi_driver_api *)dev->api;

	return api->transceive(dev, config, tx_bufs, rx_bufs);
    4e7e:	6883      	ldr	r3, [r0, #8]
    4e80:	aa02      	add	r2, sp, #8
    4e82:	681c      	ldr	r4, [r3, #0]
    4e84:	3108      	adds	r1, #8
    4e86:	ab04      	add	r3, sp, #16
    4e88:	47a0      	blx	r4
}
    4e8a:	b00a      	add	sp, #40	; 0x28
    4e8c:	bd10      	pop	{r4, pc}
    4e8e:	bf00      	nop
    4e90:	2000067c 	.word	0x2000067c

00004e94 <SX1276ReadBuffer>:
		LOG_ERR("Unable to write address: 0x%x", addr);
	}
}

void SX127xReadBuffer(uint16_t addr, uint8_t *buffer, uint8_t size)
{
    4e94:	b510      	push	{r4, lr}
    4e96:	4604      	mov	r4, r0
	int ret;

	ret = sx127x_read(addr, buffer, size);
    4e98:	b2c0      	uxtb	r0, r0
    4e9a:	f7ff ffdd 	bl	4e58 <sx127x_read>
	if (ret < 0) {
    4e9e:	2800      	cmp	r0, #0
    4ea0:	da0c      	bge.n	4ebc <SX1276ReadBuffer+0x28>
    4ea2:	4a07      	ldr	r2, [pc, #28]	; (4ec0 <SX1276ReadBuffer+0x2c>)
    4ea4:	4b07      	ldr	r3, [pc, #28]	; (4ec4 <SX1276ReadBuffer+0x30>)
		LOG_ERR("Unable to read address: 0x%x", addr);
    4ea6:	4808      	ldr	r0, [pc, #32]	; (4ec8 <SX1276ReadBuffer+0x34>)
    4ea8:	1ad2      	subs	r2, r2, r3
    4eaa:	08d2      	lsrs	r2, r2, #3
    4eac:	0192      	lsls	r2, r2, #6
    4eae:	4621      	mov	r1, r4
    4eb0:	f042 0201 	orr.w	r2, r2, #1
	}
}
    4eb4:	e8bd 4010 	ldmia.w	sp!, {r4, lr}
		LOG_ERR("Unable to read address: 0x%x", addr);
    4eb8:	f003 b8c1 	b.w	803e <log_1>
}
    4ebc:	bd10      	pop	{r4, pc}
    4ebe:	bf00      	nop
    4ec0:	000093c4 	.word	0x000093c4
    4ec4:	00009384 	.word	0x00009384
    4ec8:	00009e82 	.word	0x00009e82

00004ecc <sx127x_lora_init>:

	return 0;
}

static int sx127x_lora_init(const struct device *dev)
{
    4ecc:	b573      	push	{r0, r1, r4, r5, r6, lr}
    4ece:	4606      	mov	r6, r0
    4ed0:	4839      	ldr	r0, [pc, #228]	; (4fb8 <sx127x_lora_init+0xec>)
	static struct spi_cs_control spi_cs;
#endif
	int ret;
	uint8_t regval;

	dev_data.spi = device_get_binding(DT_INST_BUS_LABEL(0));
    4ed2:	4d3a      	ldr	r5, [pc, #232]	; (4fbc <sx127x_lora_init+0xf0>)
    4ed4:	f001 fc30 	bl	6738 <z_impl_device_get_binding>
    4ed8:	6068      	str	r0, [r5, #4]
	if (!dev_data.spi) {
    4eda:	b978      	cbnz	r0, 4efc <sx127x_lora_init+0x30>
    4edc:	4b38      	ldr	r3, [pc, #224]	; (4fc0 <sx127x_lora_init+0xf4>)
    4ede:	4a39      	ldr	r2, [pc, #228]	; (4fc4 <sx127x_lora_init+0xf8>)
		LOG_ERR("Cannot get pointer to %s device",
    4ee0:	4935      	ldr	r1, [pc, #212]	; (4fb8 <sx127x_lora_init+0xec>)
    4ee2:	4839      	ldr	r0, [pc, #228]	; (4fc8 <sx127x_lora_init+0xfc>)
    4ee4:	1ad2      	subs	r2, r2, r3
    4ee6:	08d2      	lsrs	r2, r2, #3
    4ee8:	0192      	lsls	r2, r2, #6
    4eea:	f042 0201 	orr.w	r2, r2, #1
    4eee:	f003 f8a6 	bl	803e <log_1>
			DT_INST_BUS_LABEL(0));
		return -EINVAL;
    4ef2:	f06f 0415 	mvn.w	r4, #21
		LOG_ERR("Failed to initialize SX12xx common");
		return ret;
	}

	return 0;
}
    4ef6:	4620      	mov	r0, r4
    4ef8:	b002      	add	sp, #8
    4efa:	bd70      	pop	{r4, r5, r6, pc}
	dev_data.spi_cfg.operation = SPI_WORD_SET(8) | SPI_TRANSFER_MSB;
    4efc:	4a33      	ldr	r2, [pc, #204]	; (4fcc <sx127x_lora_init+0x100>)
    4efe:	f44f 7380 	mov.w	r3, #256	; 0x100
    4f02:	e9c5 2302 	strd	r2, r3, [r5, #8]
    4f06:	4832      	ldr	r0, [pc, #200]	; (4fd0 <sx127x_lora_init+0x104>)
    4f08:	f001 fc16 	bl	6738 <z_impl_device_get_binding>
	spi_cs.gpio_dev = device_get_binding(DT_INST_SPI_DEV_CS_GPIOS_LABEL(0));
    4f0c:	4b31      	ldr	r3, [pc, #196]	; (4fd4 <sx127x_lora_init+0x108>)
    4f0e:	6018      	str	r0, [r3, #0]
	if (!spi_cs.gpio_dev) {
    4f10:	b968      	cbnz	r0, 4f2e <sx127x_lora_init+0x62>
    4f12:	4a2c      	ldr	r2, [pc, #176]	; (4fc4 <sx127x_lora_init+0xf8>)
    4f14:	4b2a      	ldr	r3, [pc, #168]	; (4fc0 <sx127x_lora_init+0xf4>)
		LOG_ERR("Cannot get pointer to %s device",
    4f16:	492e      	ldr	r1, [pc, #184]	; (4fd0 <sx127x_lora_init+0x104>)
    4f18:	482b      	ldr	r0, [pc, #172]	; (4fc8 <sx127x_lora_init+0xfc>)
    4f1a:	1ad2      	subs	r2, r2, r3
    4f1c:	08d2      	lsrs	r2, r2, #3
    4f1e:	0192      	lsls	r2, r2, #6
    4f20:	f042 0201 	orr.w	r2, r2, #1
    4f24:	f003 f88b 	bl	803e <log_1>
		return -EIO;
    4f28:	f06f 0404 	mvn.w	r4, #4
    4f2c:	e7e3      	b.n	4ef6 <sx127x_lora_init+0x2a>
	spi_cs.delay = 0U;
    4f2e:	2200      	movs	r2, #0
    4f30:	605a      	str	r2, [r3, #4]
	spi_cs.gpio_pin = GPIO_CS_PIN;
    4f32:	f240 1209 	movw	r2, #265	; 0x109
    4f36:	811a      	strh	r2, [r3, #8]
	dev_data.spi_cfg.cs = &spi_cs;
    4f38:	612b      	str	r3, [r5, #16]
	ret = sx12xx_configure_pin(reset, GPIO_OUTPUT_ACTIVE);
    4f3a:	4925      	ldr	r1, [pc, #148]	; (4fd0 <sx127x_lora_init+0x104>)
    4f3c:	f641 2311 	movw	r3, #6673	; 0x1a11
    4f40:	2208      	movs	r2, #8
    4f42:	4628      	mov	r0, r5
    4f44:	f7ff fd88 	bl	4a58 <__sx12xx_configure_pin>
	if (ret) {
    4f48:	4604      	mov	r4, r0
    4f4a:	2800      	cmp	r0, #0
    4f4c:	d1d3      	bne.n	4ef6 <sx127x_lora_init+0x2a>
    4f4e:	2100      	movs	r1, #0
    4f50:	f640 40cd 	movw	r0, #3277	; 0xccd
    4f54:	f002 f974 	bl	7240 <z_impl_k_sleep>
	gpio_pin_set(dev_data.reset, GPIO_RESET_PIN, 0);
    4f58:	6828      	ldr	r0, [r5, #0]
    4f5a:	4621      	mov	r1, r4
    4f5c:	f003 fdb2 	bl	8ac4 <gpio_pin_set.constprop.0>
    4f60:	2100      	movs	r1, #0
    4f62:	f640 40cd 	movw	r0, #3277	; 0xccd
    4f66:	f002 f96b 	bl	7240 <z_impl_k_sleep>
	ret = sx127x_read(REG_VERSION, &regval, 1);
    4f6a:	2201      	movs	r2, #1
    4f6c:	f10d 0107 	add.w	r1, sp, #7
    4f70:	2042      	movs	r0, #66	; 0x42
    4f72:	f7ff ff71 	bl	4e58 <sx127x_read>
	if (ret < 0) {
    4f76:	4d13      	ldr	r5, [pc, #76]	; (4fc4 <sx127x_lora_init+0xf8>)
    4f78:	4b11      	ldr	r3, [pc, #68]	; (4fc0 <sx127x_lora_init+0xf4>)
    4f7a:	1aed      	subs	r5, r5, r3
    4f7c:	08ed      	lsrs	r5, r5, #3
    4f7e:	2800      	cmp	r0, #0
    4f80:	ea4f 1585 	mov.w	r5, r5, lsl #6
    4f84:	da05      	bge.n	4f92 <sx127x_lora_init+0xc6>
		LOG_ERR("Unable to read version info");
    4f86:	4814      	ldr	r0, [pc, #80]	; (4fd8 <sx127x_lora_init+0x10c>)
    4f88:	f045 0101 	orr.w	r1, r5, #1
    4f8c:	f003 f84a 	bl	8024 <log_0>
    4f90:	e7ca      	b.n	4f28 <sx127x_lora_init+0x5c>
	LOG_INF("SX127x version 0x%02x found", regval);
    4f92:	f89d 1007 	ldrb.w	r1, [sp, #7]
    4f96:	4811      	ldr	r0, [pc, #68]	; (4fdc <sx127x_lora_init+0x110>)
    4f98:	f045 0203 	orr.w	r2, r5, #3
    4f9c:	f003 f84f 	bl	803e <log_1>
	ret = sx12xx_init(dev);
    4fa0:	4630      	mov	r0, r6
    4fa2:	f7ff fe69 	bl	4c78 <sx12xx_init>
	if (ret < 0) {
    4fa6:	1e06      	subs	r6, r0, #0
    4fa8:	daa5      	bge.n	4ef6 <sx127x_lora_init+0x2a>
		LOG_ERR("Failed to initialize SX12xx common");
    4faa:	480d      	ldr	r0, [pc, #52]	; (4fe0 <sx127x_lora_init+0x114>)
    4fac:	f045 0101 	orr.w	r1, r5, #1
    4fb0:	f003 f838 	bl	8024 <log_0>
		return ret;
    4fb4:	4634      	mov	r4, r6
    4fb6:	e79e      	b.n	4ef6 <sx127x_lora_init+0x2a>
    4fb8:	00009df3 	.word	0x00009df3
    4fbc:	2000067c 	.word	0x2000067c
    4fc0:	00009384 	.word	0x00009384
    4fc4:	000093c4 	.word	0x000093c4
    4fc8:	00009e06 	.word	0x00009e06
    4fcc:	000f4240 	.word	0x000f4240
    4fd0:	00009cbd 	.word	0x00009cbd
    4fd4:	200006f4 	.word	0x200006f4
    4fd8:	00009e9f 	.word	0x00009e9f
    4fdc:	00009ebb 	.word	0x00009ebb
    4fe0:	00009ed7 	.word	0x00009ed7

00004fe4 <sx127x_write>:
{
    4fe4:	b510      	push	{r4, lr}
    4fe6:	b088      	sub	sp, #32
	const struct spi_buf buf[2] = {
    4fe8:	f10d 0307 	add.w	r3, sp, #7
    4fec:	9304      	str	r3, [sp, #16]
    4fee:	2301      	movs	r3, #1
    4ff0:	e9cd 3105 	strd	r3, r1, [sp, #20]
	struct spi_buf_set tx = {
    4ff4:	ab04      	add	r3, sp, #16
	return spi_write(dev_data.spi, &dev_data.spi_cfg, &tx);
    4ff6:	4909      	ldr	r1, [pc, #36]	; (501c <sx127x_write+0x38>)
	struct spi_buf_set tx = {
    4ff8:	9302      	str	r3, [sp, #8]
	return sx127x_transceive(reg_addr | BIT(7), true, data, len);
    4ffa:	f060 007f 	orn	r0, r0, #127	; 0x7f
	struct spi_buf_set tx = {
    4ffe:	2302      	movs	r3, #2
    5000:	f88d 0007 	strb.w	r0, [sp, #7]
	return sx127x_transceive(reg_addr | BIT(7), true, data, len);
    5004:	9207      	str	r2, [sp, #28]
	return spi_write(dev_data.spi, &dev_data.spi_cfg, &tx);
    5006:	6848      	ldr	r0, [r1, #4]
	struct spi_buf_set tx = {
    5008:	9303      	str	r3, [sp, #12]
    500a:	6883      	ldr	r3, [r0, #8]
    500c:	aa02      	add	r2, sp, #8
    500e:	681c      	ldr	r4, [r3, #0]
    5010:	3108      	adds	r1, #8
    5012:	2300      	movs	r3, #0
    5014:	47a0      	blx	r4
}
    5016:	b008      	add	sp, #32
    5018:	bd10      	pop	{r4, pc}
    501a:	bf00      	nop
    501c:	2000067c 	.word	0x2000067c

00005020 <SX1276WriteBuffer>:
{
    5020:	b510      	push	{r4, lr}
    5022:	4604      	mov	r4, r0
	ret = sx127x_write(addr, buffer, size);
    5024:	b2c0      	uxtb	r0, r0
    5026:	f7ff ffdd 	bl	4fe4 <sx127x_write>
	if (ret < 0) {
    502a:	2800      	cmp	r0, #0
    502c:	da0c      	bge.n	5048 <SX1276WriteBuffer+0x28>
    502e:	4a07      	ldr	r2, [pc, #28]	; (504c <SX1276WriteBuffer+0x2c>)
    5030:	4b07      	ldr	r3, [pc, #28]	; (5050 <SX1276WriteBuffer+0x30>)
		LOG_ERR("Unable to write address: 0x%x", addr);
    5032:	4808      	ldr	r0, [pc, #32]	; (5054 <SX1276WriteBuffer+0x34>)
    5034:	1ad2      	subs	r2, r2, r3
    5036:	08d2      	lsrs	r2, r2, #3
    5038:	0192      	lsls	r2, r2, #6
    503a:	4621      	mov	r1, r4
    503c:	f042 0201 	orr.w	r2, r2, #1
}
    5040:	e8bd 4010 	ldmia.w	sp!, {r4, lr}
		LOG_ERR("Unable to write address: 0x%x", addr);
    5044:	f002 bffb 	b.w	803e <log_1>
}
    5048:	bd10      	pop	{r4, pc}
    504a:	bf00      	nop
    504c:	000093c4 	.word	0x000093c4
    5050:	00009384 	.word	0x00009384
    5054:	00009efa 	.word	0x00009efa

00005058 <SX1276SetRfTxPower>:
{
    5058:	b537      	push	{r0, r1, r2, r4, r5, lr}
	uint8_t pa_config = 0;
    505a:	2300      	movs	r3, #0
{
    505c:	4605      	mov	r5, r0
	ret = sx127x_read(REG_PADAC, &pa_dac, 1);
    505e:	2201      	movs	r2, #1
    5060:	f10d 0107 	add.w	r1, sp, #7
    5064:	204d      	movs	r0, #77	; 0x4d
	uint8_t pa_config = 0;
    5066:	f88d 3006 	strb.w	r3, [sp, #6]
	uint8_t pa_dac = 0;
    506a:	f88d 3007 	strb.w	r3, [sp, #7]
	ret = sx127x_read(REG_PADAC, &pa_dac, 1);
    506e:	f7ff fef3 	bl	4e58 <sx127x_read>
	if (ret < 0) {
    5072:	2800      	cmp	r0, #0
    5074:	da0b      	bge.n	508e <SX1276SetRfTxPower+0x36>
    5076:	4928      	ldr	r1, [pc, #160]	; (5118 <SX1276SetRfTxPower+0xc0>)
    5078:	4b28      	ldr	r3, [pc, #160]	; (511c <SX1276SetRfTxPower+0xc4>)
		LOG_ERR("Unable to read PA dac");
    507a:	4829      	ldr	r0, [pc, #164]	; (5120 <SX1276SetRfTxPower+0xc8>)
    507c:	1ac9      	subs	r1, r1, r3
    507e:	08c9      	lsrs	r1, r1, #3
    5080:	0189      	lsls	r1, r1, #6
    5082:	f041 0101 	orr.w	r1, r1, #1
		LOG_ERR("Unable to write PA dac");
    5086:	f002 ffcd 	bl	8024 <log_0>
}
    508a:	b003      	add	sp, #12
    508c:	bd30      	pop	{r4, r5, pc}
	pa_dac &= ~SX127X_PADAC_20DBM_MASK;
    508e:	2d14      	cmp	r5, #20
    5090:	4629      	mov	r1, r5
    5092:	bfa8      	it	ge
    5094:	2114      	movge	r1, #20
    5096:	2902      	cmp	r1, #2
    5098:	f89d 4007 	ldrb.w	r4, [sp, #7]
		pa_config |= SX127X_PACONFIG_PASELECT_PABOOST;
    509c:	f99d 2006 	ldrsb.w	r2, [sp, #6]
    50a0:	bfb8      	it	lt
    50a2:	2102      	movlt	r1, #2
		if (power > 17) {
    50a4:	2d11      	cmp	r5, #17
	pa_dac &= ~SX127X_PADAC_20DBM_MASK;
    50a6:	f004 04f8 	and.w	r4, r4, #248	; 0xf8
			pa_config |= (power - 5) & SX127X_PACONFIG_OUTPUTPOWER_MASK;
    50aa:	bfcc      	ite	gt
    50ac:	3905      	subgt	r1, #5
			pa_config |= (power - 2) & SX127X_PACONFIG_OUTPUTPOWER_MASK;
    50ae:	3902      	suble	r1, #2
    50b0:	f062 037f 	orn	r3, r2, #127	; 0x7f
			pa_dac |= SX127X_PADAC_20DBM_ON;
    50b4:	bfcc      	ite	gt
    50b6:	f044 0407 	orrgt.w	r4, r4, #7
			pa_dac |= SX127X_PADAC_20DBM_OFF;
    50ba:	f044 0404 	orrle.w	r4, r4, #4
			pa_config |= (power - 2) & SX127X_PACONFIG_OUTPUTPOWER_MASK;
    50be:	ea43 0301 	orr.w	r3, r3, r1
	ret = sx127x_write(REG_PACONFIG, &pa_config, 1);
    50c2:	f04f 0201 	mov.w	r2, #1
    50c6:	f10d 0106 	add.w	r1, sp, #6
    50ca:	f04f 0009 	mov.w	r0, #9
			pa_dac |= SX127X_PADAC_20DBM_ON;
    50ce:	bfcc      	ite	gt
    50d0:	f88d 4007 	strbgt.w	r4, [sp, #7]
			pa_dac |= SX127X_PADAC_20DBM_OFF;
    50d4:	f88d 4007 	strble.w	r4, [sp, #7]
			pa_config |= (power - 2) & SX127X_PACONFIG_OUTPUTPOWER_MASK;
    50d8:	f88d 3006 	strb.w	r3, [sp, #6]
	ret = sx127x_write(REG_PACONFIG, &pa_config, 1);
    50dc:	f7ff ff82 	bl	4fe4 <sx127x_write>
	if (ret < 0) {
    50e0:	2800      	cmp	r0, #0
    50e2:	da08      	bge.n	50f6 <SX1276SetRfTxPower+0x9e>
    50e4:	490c      	ldr	r1, [pc, #48]	; (5118 <SX1276SetRfTxPower+0xc0>)
    50e6:	4b0d      	ldr	r3, [pc, #52]	; (511c <SX1276SetRfTxPower+0xc4>)
		LOG_ERR("Unable to write PA config");
    50e8:	480e      	ldr	r0, [pc, #56]	; (5124 <SX1276SetRfTxPower+0xcc>)
    50ea:	1ac9      	subs	r1, r1, r3
    50ec:	08c9      	lsrs	r1, r1, #3
    50ee:	0189      	lsls	r1, r1, #6
    50f0:	f041 0101 	orr.w	r1, r1, #1
    50f4:	e7c7      	b.n	5086 <SX1276SetRfTxPower+0x2e>
	ret = sx127x_write(REG_PADAC, &pa_dac, 1);
    50f6:	2201      	movs	r2, #1
    50f8:	f10d 0107 	add.w	r1, sp, #7
    50fc:	204d      	movs	r0, #77	; 0x4d
    50fe:	f7ff ff71 	bl	4fe4 <sx127x_write>
	if (ret < 0) {
    5102:	2800      	cmp	r0, #0
    5104:	dac1      	bge.n	508a <SX1276SetRfTxPower+0x32>
    5106:	4904      	ldr	r1, [pc, #16]	; (5118 <SX1276SetRfTxPower+0xc0>)
    5108:	4b04      	ldr	r3, [pc, #16]	; (511c <SX1276SetRfTxPower+0xc4>)
		LOG_ERR("Unable to write PA dac");
    510a:	4807      	ldr	r0, [pc, #28]	; (5128 <SX1276SetRfTxPower+0xd0>)
    510c:	1ac9      	subs	r1, r1, r3
    510e:	08c9      	lsrs	r1, r1, #3
    5110:	0189      	lsls	r1, r1, #6
    5112:	f041 0101 	orr.w	r1, r1, #1
    5116:	e7b6      	b.n	5086 <SX1276SetRfTxPower+0x2e>
    5118:	000093c4 	.word	0x000093c4
    511c:	00009384 	.word	0x00009384
    5120:	00009f18 	.word	0x00009f18
    5124:	00009f2e 	.word	0x00009f2e
    5128:	00009f48 	.word	0x00009f48

0000512c <GetFskBandwidthRegValue>:
{
    512c:	b510      	push	{r4, lr}
    512e:	4b09      	ldr	r3, [pc, #36]	; (5154 <GetFskBandwidthRegValue+0x28>)
    5130:	2200      	movs	r2, #0
    5132:	4619      	mov	r1, r3
        if( ( bandwidth >= FskBandwidths[i].bandwidth ) && ( bandwidth < FskBandwidths[i + 1].bandwidth ) )
    5134:	681c      	ldr	r4, [r3, #0]
    5136:	4284      	cmp	r4, r0
    5138:	d806      	bhi.n	5148 <GetFskBandwidthRegValue+0x1c>
    513a:	689c      	ldr	r4, [r3, #8]
    513c:	4284      	cmp	r4, r0
    513e:	d903      	bls.n	5148 <GetFskBandwidthRegValue+0x1c>
            return FskBandwidths[i].RegValue;
    5140:	eb01 02c2 	add.w	r2, r1, r2, lsl #3
    5144:	7910      	ldrb	r0, [r2, #4]
}
    5146:	bd10      	pop	{r4, pc}
    for( i = 0; i < ( sizeof( FskBandwidths ) / sizeof( FskBandwidth_t ) ) - 1; i++ )
    5148:	3201      	adds	r2, #1
    514a:	2a15      	cmp	r2, #21
    514c:	f103 0308 	add.w	r3, r3, #8
    5150:	d1f0      	bne.n	5134 <GetFskBandwidthRegValue+0x8>
    while( 1 );
    5152:	e7fe      	b.n	5152 <GetFskBandwidthRegValue+0x26>
    5154:	00009604 	.word	0x00009604

00005158 <SX1276OnDio4Irq>:
    }
}

void SX1276OnDio4Irq( void* context )
{
    switch( SX1276.Settings.Modem )
    5158:	4b05      	ldr	r3, [pc, #20]	; (5170 <SX1276OnDio4Irq+0x18>)
    515a:	f893 20e1 	ldrb.w	r2, [r3, #225]	; 0xe1
    515e:	b92a      	cbnz	r2, 516c <SX1276OnDio4Irq+0x14>
    {
    case MODEM_FSK:
        {
            if( SX1276.Settings.FskPacketHandler.PreambleDetected == false )
    5160:	f893 210c 	ldrb.w	r2, [r3, #268]	; 0x10c
    5164:	b912      	cbnz	r2, 516c <SX1276OnDio4Irq+0x14>
            {
                SX1276.Settings.FskPacketHandler.PreambleDetected = true;
    5166:	2201      	movs	r2, #1
    5168:	f883 210c 	strb.w	r2, [r3, #268]	; 0x10c
    case MODEM_LORA:
        break;
    default:
        break;
    }
}
    516c:	4770      	bx	lr
    516e:	bf00      	nop
    5170:	20000734 	.word	0x20000734

00005174 <SX1276GetStatus>:
}
    5174:	4b01      	ldr	r3, [pc, #4]	; (517c <SX1276GetStatus+0x8>)
    5176:	f893 00e0 	ldrb.w	r0, [r3, #224]	; 0xe0
    517a:	4770      	bx	lr
    517c:	20000734 	.word	0x20000734

00005180 <SX1276ReadRssi>:
{
    5180:	b508      	push	{r3, lr}
    switch( modem )
    5182:	b120      	cbz	r0, 518e <SX1276ReadRssi+0xe>
    5184:	2801      	cmp	r0, #1
    5186:	d00a      	beq.n	519e <SX1276ReadRssi+0x1e>
    5188:	f04f 30ff 	mov.w	r0, #4294967295	; 0xffffffff
}
    518c:	bd08      	pop	{r3, pc}
        rssi = -( SX1276Read( REG_RSSIVALUE ) >> 1 );
    518e:	2011      	movs	r0, #17
    5190:	f003 fcb7 	bl	8b02 <SX1276Read>
    5194:	f3c0 0047 	ubfx	r0, r0, #1, #8
    5198:	4240      	negs	r0, r0
            rssi = RSSI_OFFSET_LF + SX1276Read( REG_LR_RSSIVALUE );
    519a:	b200      	sxth	r0, r0
    519c:	e7f6      	b.n	518c <SX1276ReadRssi+0xc>
        if( SX1276.Settings.Channel > RF_MID_BAND_THRESH )
    519e:	4b08      	ldr	r3, [pc, #32]	; (51c0 <SX1276ReadRssi+0x40>)
    51a0:	f8d3 20e4 	ldr.w	r2, [r3, #228]	; 0xe4
    51a4:	4b07      	ldr	r3, [pc, #28]	; (51c4 <SX1276ReadRssi+0x44>)
    51a6:	429a      	cmp	r2, r3
            rssi = RSSI_OFFSET_HF + SX1276Read( REG_LR_RSSIVALUE );
    51a8:	f04f 001b 	mov.w	r0, #27
        if( SX1276.Settings.Channel > RF_MID_BAND_THRESH )
    51ac:	d903      	bls.n	51b6 <SX1276ReadRssi+0x36>
            rssi = RSSI_OFFSET_HF + SX1276Read( REG_LR_RSSIVALUE );
    51ae:	f003 fca8 	bl	8b02 <SX1276Read>
    51b2:	389d      	subs	r0, #157	; 0x9d
    51b4:	e7f1      	b.n	519a <SX1276ReadRssi+0x1a>
            rssi = RSSI_OFFSET_LF + SX1276Read( REG_LR_RSSIVALUE );
    51b6:	f003 fca4 	bl	8b02 <SX1276Read>
    51ba:	38a4      	subs	r0, #164	; 0xa4
    51bc:	e7ed      	b.n	519a <SX1276ReadRssi+0x1a>
    51be:	bf00      	nop
    51c0:	20000734 	.word	0x20000734
    51c4:	1f4add40 	.word	0x1f4add40

000051c8 <SX1276SetSleep>:
{
    51c8:	b508      	push	{r3, lr}
    TimerStop( &RxTimeoutTimer );
    51ca:	480a      	ldr	r0, [pc, #40]	; (51f4 <SX1276SetSleep+0x2c>)
    51cc:	f000 fdc8 	bl	5d60 <TimerStop>
    TimerStop( &TxTimeoutTimer );
    51d0:	4809      	ldr	r0, [pc, #36]	; (51f8 <SX1276SetSleep+0x30>)
    51d2:	f000 fdc5 	bl	5d60 <TimerStop>
    TimerStop( &RxTimeoutSyncWord );
    51d6:	4809      	ldr	r0, [pc, #36]	; (51fc <SX1276SetSleep+0x34>)
    51d8:	f000 fdc2 	bl	5d60 <TimerStop>
    SX1276SetOpMode( RF_OPMODE_SLEEP );
    51dc:	2000      	movs	r0, #0
    51de:	f003 fc9b 	bl	8b18 <SX1276SetOpMode>
    SX1276SetBoardTcxo( false );
    51e2:	2000      	movs	r0, #0
    51e4:	f003 fc80 	bl	8ae8 <SX1276SetBoardTcxo>
    SX1276.Settings.State = RF_IDLE;
    51e8:	4b05      	ldr	r3, [pc, #20]	; (5200 <SX1276SetSleep+0x38>)
    51ea:	2200      	movs	r2, #0
    51ec:	f883 20e0 	strb.w	r2, [r3, #224]	; 0xe0
}
    51f0:	bd08      	pop	{r3, pc}
    51f2:	bf00      	nop
    51f4:	2000071c 	.word	0x2000071c
    51f8:	20000878 	.word	0x20000878
    51fc:	20000704 	.word	0x20000704
    5200:	20000734 	.word	0x20000734

00005204 <SX1276SetStby>:
{
    5204:	b508      	push	{r3, lr}
    TimerStop( &RxTimeoutTimer );
    5206:	4808      	ldr	r0, [pc, #32]	; (5228 <SX1276SetStby+0x24>)
    5208:	f000 fdaa 	bl	5d60 <TimerStop>
    TimerStop( &TxTimeoutTimer );
    520c:	4807      	ldr	r0, [pc, #28]	; (522c <SX1276SetStby+0x28>)
    520e:	f000 fda7 	bl	5d60 <TimerStop>
    TimerStop( &RxTimeoutSyncWord );
    5212:	4807      	ldr	r0, [pc, #28]	; (5230 <SX1276SetStby+0x2c>)
    5214:	f000 fda4 	bl	5d60 <TimerStop>
    SX1276SetOpMode( RF_OPMODE_STANDBY );
    5218:	2001      	movs	r0, #1
    521a:	f003 fc7d 	bl	8b18 <SX1276SetOpMode>
    SX1276.Settings.State = RF_IDLE;
    521e:	4b05      	ldr	r3, [pc, #20]	; (5234 <SX1276SetStby+0x30>)
    5220:	2200      	movs	r2, #0
    5222:	f883 20e0 	strb.w	r2, [r3, #224]	; 0xe0
}
    5226:	bd08      	pop	{r3, pc}
    5228:	2000071c 	.word	0x2000071c
    522c:	20000878 	.word	0x20000878
    5230:	20000704 	.word	0x20000704
    5234:	20000734 	.word	0x20000734

00005238 <SX1276SetRx>:
{
    5238:	b5f8      	push	{r3, r4, r5, r6, r7, lr}
    switch( SX1276.Settings.Modem )
    523a:	4c81      	ldr	r4, [pc, #516]	; (5440 <SX1276SetRx+0x208>)
{
    523c:	4606      	mov	r6, r0
    TimerStop( &TxTimeoutTimer );
    523e:	4881      	ldr	r0, [pc, #516]	; (5444 <SX1276SetRx+0x20c>)
    5240:	f000 fd8e 	bl	5d60 <TimerStop>
    switch( SX1276.Settings.Modem )
    5244:	f894 50e1 	ldrb.w	r5, [r4, #225]	; 0xe1
    5248:	b32d      	cbz	r5, 5296 <SX1276SetRx+0x5e>
    524a:	2d01      	cmp	r5, #1
    524c:	d04a      	beq.n	52e4 <SX1276SetRx+0xac>
    524e:	2700      	movs	r7, #0
    memset( RxTxBuffer, 0, ( size_t )RX_BUFFER_SIZE );
    5250:	487d      	ldr	r0, [pc, #500]	; (5448 <SX1276SetRx+0x210>)
    5252:	f44f 7280 	mov.w	r2, #256	; 0x100
    5256:	2100      	movs	r1, #0
    5258:	f003 ff68 	bl	912c <memset>
    SX1276.Settings.State = RF_RX_RUNNING;
    525c:	2301      	movs	r3, #1
    525e:	f884 30e0 	strb.w	r3, [r4, #224]	; 0xe0
    if( timeout != 0 )
    5262:	b136      	cbz	r6, 5272 <SX1276SetRx+0x3a>
        TimerSetValue( &RxTimeoutTimer, timeout );
    5264:	4879      	ldr	r0, [pc, #484]	; (544c <SX1276SetRx+0x214>)
    5266:	4631      	mov	r1, r6
    5268:	f003 fce3 	bl	8c32 <TimerSetValue>
        TimerStart( &RxTimeoutTimer );
    526c:	4877      	ldr	r0, [pc, #476]	; (544c <SX1276SetRx+0x214>)
    526e:	f000 fd01 	bl	5c74 <TimerStart>
    if( SX1276.Settings.Modem == MODEM_FSK )
    5272:	f894 30e1 	ldrb.w	r3, [r4, #225]	; 0xe1
    5276:	2b00      	cmp	r3, #0
    5278:	f040 80d9 	bne.w	542e <SX1276SetRx+0x1f6>
        SX1276SetOpMode( RF_OPMODE_RECEIVER );
    527c:	2005      	movs	r0, #5
    527e:	f003 fc4b 	bl	8b18 <SX1276SetOpMode>
        TimerSetValue( &RxTimeoutSyncWord, SX1276.Settings.Fsk.RxSingleTimeout );
    5282:	f8d4 1108 	ldr.w	r1, [r4, #264]	; 0x108
    5286:	4872      	ldr	r0, [pc, #456]	; (5450 <SX1276SetRx+0x218>)
    5288:	f003 fcd3 	bl	8c32 <TimerSetValue>
}
    528c:	e8bd 40f8 	ldmia.w	sp!, {r3, r4, r5, r6, r7, lr}
        TimerStart( &RxTimeoutSyncWord );
    5290:	486f      	ldr	r0, [pc, #444]	; (5450 <SX1276SetRx+0x218>)
    5292:	f000 bcef 	b.w	5c74 <TimerStart>
            SX1276Write( REG_DIOMAPPING1, ( SX1276Read( REG_DIOMAPPING1 ) & RF_DIOMAPPING1_DIO0_MASK &
    5296:	2040      	movs	r0, #64	; 0x40
            rxContinuous = SX1276.Settings.Fsk.RxContinuous;
    5298:	f894 7102 	ldrb.w	r7, [r4, #258]	; 0x102
            SX1276Write( REG_DIOMAPPING1, ( SX1276Read( REG_DIOMAPPING1 ) & RF_DIOMAPPING1_DIO0_MASK &
    529c:	f003 fc31 	bl	8b02 <SX1276Read>
                                                                            RF_DIOMAPPING1_DIO0_00 |
    52a0:	f000 0103 	and.w	r1, r0, #3
            SX1276Write( REG_DIOMAPPING1, ( SX1276Read( REG_DIOMAPPING1 ) & RF_DIOMAPPING1_DIO0_MASK &
    52a4:	f041 010c 	orr.w	r1, r1, #12
    52a8:	2040      	movs	r0, #64	; 0x40
    52aa:	f003 fc1f 	bl	8aec <SX1276Write>
            SX1276Write( REG_DIOMAPPING2, ( SX1276Read( REG_DIOMAPPING2 ) & RF_DIOMAPPING2_DIO4_MASK &
    52ae:	2041      	movs	r0, #65	; 0x41
    52b0:	f003 fc27 	bl	8b02 <SX1276Read>
    52b4:	f060 013e 	orn	r1, r0, #62	; 0x3e
    52b8:	b2c9      	uxtb	r1, r1
    52ba:	2041      	movs	r0, #65	; 0x41
    52bc:	f003 fc16 	bl	8aec <SX1276Write>
            SX1276.Settings.FskPacketHandler.FifoThresh = SX1276Read( REG_FIFOTHRESH ) & 0x3F;
    52c0:	2035      	movs	r0, #53	; 0x35
    52c2:	f003 fc1e 	bl	8b02 <SX1276Read>
    52c6:	f000 003f 	and.w	r0, r0, #63	; 0x3f
    52ca:	f884 011a 	strb.w	r0, [r4, #282]	; 0x11a
            SX1276Write( REG_RXCONFIG, RF_RXCONFIG_AFCAUTO_ON | RF_RXCONFIG_AGCAUTO_ON | RF_RXCONFIG_RXTRIGER_PREAMBLEDETECT );
    52ce:	211e      	movs	r1, #30
    52d0:	200d      	movs	r0, #13
    52d2:	f003 fc0b 	bl	8aec <SX1276Write>
            SX1276.Settings.FskPacketHandler.PreambleDetected = false;
    52d6:	f8a4 510c 	strh.w	r5, [r4, #268]	; 0x10c
            SX1276.Settings.FskPacketHandler.NbBytes = 0;
    52da:	f8a4 5118 	strh.w	r5, [r4, #280]	; 0x118
            SX1276.Settings.FskPacketHandler.Size = 0;
    52de:	f8a4 5116 	strh.w	r5, [r4, #278]	; 0x116
        break;
    52e2:	e7b5      	b.n	5250 <SX1276SetRx+0x18>
            if( SX1276.Settings.LoRa.IqInverted == true )
    52e4:	f894 3131 	ldrb.w	r3, [r4, #305]	; 0x131
                SX1276Write( REG_LR_INVERTIQ, ( ( SX1276Read( REG_LR_INVERTIQ ) & RFLR_INVERTIQ_TX_MASK & RFLR_INVERTIQ_RX_MASK ) | RFLR_INVERTIQ_RX_ON | RFLR_INVERTIQ_TX_OFF ) );
    52e8:	2033      	movs	r0, #51	; 0x33
            if( SX1276.Settings.LoRa.IqInverted == true )
    52ea:	b33b      	cbz	r3, 533c <SX1276SetRx+0x104>
                SX1276Write( REG_LR_INVERTIQ, ( ( SX1276Read( REG_LR_INVERTIQ ) & RFLR_INVERTIQ_TX_MASK & RFLR_INVERTIQ_RX_MASK ) | RFLR_INVERTIQ_RX_ON | RFLR_INVERTIQ_TX_OFF ) );
    52ec:	f003 fc09 	bl	8b02 <SX1276Read>
    52f0:	f040 0141 	orr.w	r1, r0, #65	; 0x41
    52f4:	b2c9      	uxtb	r1, r1
    52f6:	2033      	movs	r0, #51	; 0x33
    52f8:	f003 fbf8 	bl	8aec <SX1276Write>
                SX1276Write( REG_LR_INVERTIQ2, RFLR_INVERTIQ2_ON );
    52fc:	2119      	movs	r1, #25
                SX1276Write( REG_LR_INVERTIQ2, RFLR_INVERTIQ2_OFF );
    52fe:	203b      	movs	r0, #59	; 0x3b
    5300:	f003 fbf4 	bl	8aec <SX1276Write>
            if( SX1276.Settings.LoRa.Bandwidth < 9 )
    5304:	f8d4 3120 	ldr.w	r3, [r4, #288]	; 0x120
    5308:	2b08      	cmp	r3, #8
                SX1276Write( REG_LR_DETECTOPTIMIZE, SX1276Read( REG_LR_DETECTOPTIMIZE ) & 0x7F );
    530a:	f04f 0031 	mov.w	r0, #49	; 0x31
            if( SX1276.Settings.LoRa.Bandwidth < 9 )
    530e:	d87d      	bhi.n	540c <SX1276SetRx+0x1d4>
                SX1276Write( REG_LR_DETECTOPTIMIZE, SX1276Read( REG_LR_DETECTOPTIMIZE ) & 0x7F );
    5310:	f003 fbf7 	bl	8b02 <SX1276Read>
    5314:	f000 017f 	and.w	r1, r0, #127	; 0x7f
    5318:	2031      	movs	r0, #49	; 0x31
    531a:	f003 fbe7 	bl	8aec <SX1276Write>
                SX1276Write( REG_LR_IFFREQ2, 0x00 );
    531e:	2100      	movs	r1, #0
    5320:	2030      	movs	r0, #48	; 0x30
    5322:	f003 fbe3 	bl	8aec <SX1276Write>
                switch( SX1276.Settings.LoRa.Bandwidth )
    5326:	f8d4 3120 	ldr.w	r3, [r4, #288]	; 0x120
    532a:	2b08      	cmp	r3, #8
    532c:	d81c      	bhi.n	5368 <SX1276SetRx+0x130>
    532e:	e8df f003 	tbb	[pc, r3]
    5332:	3610      	.short	0x3610
    5334:	5e544a40 	.word	0x5e544a40
    5338:	6868      	.short	0x6868
    533a:	68          	.byte	0x68
    533b:	00          	.byte	0x00
                SX1276Write( REG_LR_INVERTIQ, ( ( SX1276Read( REG_LR_INVERTIQ ) & RFLR_INVERTIQ_TX_MASK & RFLR_INVERTIQ_RX_MASK ) | RFLR_INVERTIQ_RX_OFF | RFLR_INVERTIQ_TX_OFF ) );
    533c:	f003 fbe1 	bl	8b02 <SX1276Read>
    5340:	f000 01be 	and.w	r1, r0, #190	; 0xbe
    5344:	f041 0101 	orr.w	r1, r1, #1
    5348:	2033      	movs	r0, #51	; 0x33
    534a:	f003 fbcf 	bl	8aec <SX1276Write>
                SX1276Write( REG_LR_INVERTIQ2, RFLR_INVERTIQ2_OFF );
    534e:	211d      	movs	r1, #29
    5350:	e7d5      	b.n	52fe <SX1276SetRx+0xc6>
                    SX1276Write( REG_LR_IFFREQ1, 0x48 );
    5352:	202f      	movs	r0, #47	; 0x2f
    5354:	2148      	movs	r1, #72	; 0x48
    5356:	f003 fbc9 	bl	8aec <SX1276Write>
                    SX1276SetChannel(SX1276.Settings.Channel + 7810 );
    535a:	f8d4 00e4 	ldr.w	r0, [r4, #228]	; 0xe4
    535e:	f500 50f4 	add.w	r0, r0, #7808	; 0x1e80
    5362:	3002      	adds	r0, #2
                    SX1276SetChannel(SX1276.Settings.Channel + 10420 );
    5364:	f7fb fcf8 	bl	d58 <SX1276SetChannel>
            if( SX1276.Settings.LoRa.FreqHopOn == true )
    5368:	f894 312f 	ldrb.w	r3, [r4, #303]	; 0x12f
            rxContinuous = SX1276.Settings.LoRa.RxContinuous;
    536c:	f894 7132 	ldrb.w	r7, [r4, #306]	; 0x132
            if( SX1276.Settings.LoRa.FreqHopOn == true )
    5370:	2b00      	cmp	r3, #0
    5372:	d052      	beq.n	541a <SX1276SetRx+0x1e2>
                SX1276Write( REG_LR_IRQFLAGSMASK, //RFLR_IRQFLAGS_RXTIMEOUT |
    5374:	211d      	movs	r1, #29
    5376:	2011      	movs	r0, #17
    5378:	f003 fbb8 	bl	8aec <SX1276Write>
                SX1276Write( REG_DIOMAPPING1, ( SX1276Read( REG_DIOMAPPING1 ) & RFLR_DIOMAPPING1_DIO0_MASK & RFLR_DIOMAPPING1_DIO2_MASK  ) | RFLR_DIOMAPPING1_DIO0_00 | RFLR_DIOMAPPING1_DIO2_00 );
    537c:	2040      	movs	r0, #64	; 0x40
    537e:	f003 fbc0 	bl	8b02 <SX1276Read>
    5382:	f000 0133 	and.w	r1, r0, #51	; 0x33
                SX1276Write( REG_DIOMAPPING1, ( SX1276Read( REG_DIOMAPPING1 ) & RFLR_DIOMAPPING1_DIO0_MASK ) | RFLR_DIOMAPPING1_DIO0_00 );
    5386:	2040      	movs	r0, #64	; 0x40
    5388:	f003 fbb0 	bl	8aec <SX1276Write>
            SX1276Write( REG_LR_FIFORXBASEADDR, 0 );
    538c:	2100      	movs	r1, #0
    538e:	200f      	movs	r0, #15
    5390:	f003 fbac 	bl	8aec <SX1276Write>
            SX1276Write( REG_LR_FIFOADDRPTR, 0 );
    5394:	2100      	movs	r1, #0
    5396:	200d      	movs	r0, #13
    5398:	f003 fba8 	bl	8aec <SX1276Write>
        break;
    539c:	e758      	b.n	5250 <SX1276SetRx+0x18>
                    SX1276Write( REG_LR_IFFREQ1, 0x44 );
    539e:	202f      	movs	r0, #47	; 0x2f
    53a0:	2144      	movs	r1, #68	; 0x44
    53a2:	f003 fba3 	bl	8aec <SX1276Write>
                    SX1276SetChannel(SX1276.Settings.Channel + 10420 );
    53a6:	f8d4 00e4 	ldr.w	r0, [r4, #228]	; 0xe4
    53aa:	f500 5022 	add.w	r0, r0, #10368	; 0x2880
    53ae:	3034      	adds	r0, #52	; 0x34
    53b0:	e7d8      	b.n	5364 <SX1276SetRx+0x12c>
                    SX1276Write( REG_LR_IFFREQ1, 0x44 );
    53b2:	202f      	movs	r0, #47	; 0x2f
    53b4:	2144      	movs	r1, #68	; 0x44
    53b6:	f003 fb99 	bl	8aec <SX1276Write>
                    SX1276SetChannel(SX1276.Settings.Channel + 15620 );
    53ba:	f8d4 00e4 	ldr.w	r0, [r4, #228]	; 0xe4
    53be:	f500 5074 	add.w	r0, r0, #15616	; 0x3d00
    53c2:	3004      	adds	r0, #4
    53c4:	e7ce      	b.n	5364 <SX1276SetRx+0x12c>
                    SX1276Write( REG_LR_IFFREQ1, 0x44 );
    53c6:	202f      	movs	r0, #47	; 0x2f
    53c8:	2144      	movs	r1, #68	; 0x44
    53ca:	f003 fb8f 	bl	8aec <SX1276Write>
                    SX1276SetChannel(SX1276.Settings.Channel + 20830 );
    53ce:	f8d4 00e4 	ldr.w	r0, [r4, #228]	; 0xe4
    53d2:	f500 40a2 	add.w	r0, r0, #20736	; 0x5100
    53d6:	305e      	adds	r0, #94	; 0x5e
    53d8:	e7c4      	b.n	5364 <SX1276SetRx+0x12c>
                    SX1276Write( REG_LR_IFFREQ1, 0x44 );
    53da:	202f      	movs	r0, #47	; 0x2f
    53dc:	2144      	movs	r1, #68	; 0x44
    53de:	f003 fb85 	bl	8aec <SX1276Write>
                    SX1276SetChannel(SX1276.Settings.Channel + 31250 );
    53e2:	f8d4 00e4 	ldr.w	r0, [r4, #228]	; 0xe4
    53e6:	f500 40f4 	add.w	r0, r0, #31232	; 0x7a00
    53ea:	3012      	adds	r0, #18
    53ec:	e7ba      	b.n	5364 <SX1276SetRx+0x12c>
                    SX1276Write( REG_LR_IFFREQ1, 0x44 );
    53ee:	202f      	movs	r0, #47	; 0x2f
    53f0:	2144      	movs	r1, #68	; 0x44
    53f2:	f003 fb7b 	bl	8aec <SX1276Write>
                    SX1276SetChannel(SX1276.Settings.Channel + 41670 );
    53f6:	f8d4 00e4 	ldr.w	r0, [r4, #228]	; 0xe4
    53fa:	f500 4022 	add.w	r0, r0, #41472	; 0xa200
    53fe:	30c6      	adds	r0, #198	; 0xc6
    5400:	e7b0      	b.n	5364 <SX1276SetRx+0x12c>
                    SX1276Write( REG_LR_IFFREQ1, 0x40 );
    5402:	2140      	movs	r1, #64	; 0x40
    5404:	202f      	movs	r0, #47	; 0x2f
                SX1276Write( REG_LR_DETECTOPTIMIZE, SX1276Read( REG_LR_DETECTOPTIMIZE ) | 0x80 );
    5406:	f003 fb71 	bl	8aec <SX1276Write>
    540a:	e7ad      	b.n	5368 <SX1276SetRx+0x130>
    540c:	f003 fb79 	bl	8b02 <SX1276Read>
    5410:	f060 017f 	orn	r1, r0, #127	; 0x7f
    5414:	b2c9      	uxtb	r1, r1
    5416:	2031      	movs	r0, #49	; 0x31
    5418:	e7f5      	b.n	5406 <SX1276SetRx+0x1ce>
                SX1276Write( REG_LR_IRQFLAGSMASK, //RFLR_IRQFLAGS_RXTIMEOUT |
    541a:	211f      	movs	r1, #31
    541c:	2011      	movs	r0, #17
    541e:	f003 fb65 	bl	8aec <SX1276Write>
                SX1276Write( REG_DIOMAPPING1, ( SX1276Read( REG_DIOMAPPING1 ) & RFLR_DIOMAPPING1_DIO0_MASK ) | RFLR_DIOMAPPING1_DIO0_00 );
    5422:	2040      	movs	r0, #64	; 0x40
    5424:	f003 fb6d 	bl	8b02 <SX1276Read>
    5428:	f000 013f 	and.w	r1, r0, #63	; 0x3f
    542c:	e7ab      	b.n	5386 <SX1276SetRx+0x14e>
        if( rxContinuous == true )
    542e:	b127      	cbz	r7, 543a <SX1276SetRx+0x202>
            SX1276SetOpMode( RFLR_OPMODE_RECEIVER );
    5430:	2005      	movs	r0, #5
}
    5432:	e8bd 40f8 	ldmia.w	sp!, {r3, r4, r5, r6, r7, lr}
            SX1276SetOpMode( RFLR_OPMODE_RECEIVER_SINGLE );
    5436:	f003 bb6f 	b.w	8b18 <SX1276SetOpMode>
    543a:	2006      	movs	r0, #6
    543c:	e7f9      	b.n	5432 <SX1276SetRx+0x1fa>
    543e:	bf00      	nop
    5440:	20000734 	.word	0x20000734
    5444:	20000878 	.word	0x20000878
    5448:	20000d9b 	.word	0x20000d9b
    544c:	2000071c 	.word	0x2000071c
    5450:	20000704 	.word	0x20000704

00005454 <SX1276SetTx>:
{
    5454:	b510      	push	{r4, lr}
    5456:	4604      	mov	r4, r0
    TimerStop( &RxTimeoutTimer );
    5458:	4826      	ldr	r0, [pc, #152]	; (54f4 <SX1276SetTx+0xa0>)
    545a:	f000 fc81 	bl	5d60 <TimerStop>
    TimerSetValue( &TxTimeoutTimer, timeout );
    545e:	4621      	mov	r1, r4
    switch( SX1276.Settings.Modem )
    5460:	4c25      	ldr	r4, [pc, #148]	; (54f8 <SX1276SetTx+0xa4>)
    TimerSetValue( &TxTimeoutTimer, timeout );
    5462:	4826      	ldr	r0, [pc, #152]	; (54fc <SX1276SetTx+0xa8>)
    5464:	f003 fbe5 	bl	8c32 <TimerSetValue>
    switch( SX1276.Settings.Modem )
    5468:	f894 30e1 	ldrb.w	r3, [r4, #225]	; 0xe1
    546c:	b163      	cbz	r3, 5488 <SX1276SetTx+0x34>
    546e:	2b01      	cmp	r3, #1
    5470:	d024      	beq.n	54bc <SX1276SetTx+0x68>
    TimerStart( &TxTimeoutTimer );
    5472:	4822      	ldr	r0, [pc, #136]	; (54fc <SX1276SetTx+0xa8>)
    SX1276.Settings.State = RF_TX_RUNNING;
    5474:	2302      	movs	r3, #2
    5476:	f884 30e0 	strb.w	r3, [r4, #224]	; 0xe0
    TimerStart( &TxTimeoutTimer );
    547a:	f000 fbfb 	bl	5c74 <TimerStart>
}
    547e:	e8bd 4010 	ldmia.w	sp!, {r4, lr}
    SX1276SetOpMode( RF_OPMODE_TRANSMITTER );
    5482:	2003      	movs	r0, #3
    5484:	f003 bb48 	b.w	8b18 <SX1276SetOpMode>
            SX1276Write( REG_DIOMAPPING1, ( SX1276Read( REG_DIOMAPPING1 ) & RF_DIOMAPPING1_DIO0_MASK &
    5488:	2040      	movs	r0, #64	; 0x40
    548a:	f003 fb3a 	bl	8b02 <SX1276Read>
                                                                            RF_DIOMAPPING1_DIO1_MASK &
    548e:	f000 0103 	and.w	r1, r0, #3
            SX1276Write( REG_DIOMAPPING1, ( SX1276Read( REG_DIOMAPPING1 ) & RF_DIOMAPPING1_DIO0_MASK &
    5492:	f041 0110 	orr.w	r1, r1, #16
    5496:	2040      	movs	r0, #64	; 0x40
    5498:	f003 fb28 	bl	8aec <SX1276Write>
            SX1276Write( REG_DIOMAPPING2, ( SX1276Read( REG_DIOMAPPING2 ) & RF_DIOMAPPING2_DIO4_MASK &
    549c:	2041      	movs	r0, #65	; 0x41
    549e:	f003 fb30 	bl	8b02 <SX1276Read>
    54a2:	f000 013e 	and.w	r1, r0, #62	; 0x3e
    54a6:	2041      	movs	r0, #65	; 0x41
    54a8:	f003 fb20 	bl	8aec <SX1276Write>
            SX1276.Settings.FskPacketHandler.FifoThresh = SX1276Read( REG_FIFOTHRESH ) & 0x3F;
    54ac:	2035      	movs	r0, #53	; 0x35
    54ae:	f003 fb28 	bl	8b02 <SX1276Read>
    54b2:	f000 003f 	and.w	r0, r0, #63	; 0x3f
    54b6:	f884 011a 	strb.w	r0, [r4, #282]	; 0x11a
        break;
    54ba:	e7da      	b.n	5472 <SX1276SetTx+0x1e>
            if( SX1276.Settings.LoRa.FreqHopOn == true )
    54bc:	f894 312f 	ldrb.w	r3, [r4, #303]	; 0x12f
    54c0:	b173      	cbz	r3, 54e0 <SX1276SetTx+0x8c>
                SX1276Write( REG_LR_IRQFLAGSMASK, RFLR_IRQFLAGS_RXTIMEOUT |
    54c2:	21f5      	movs	r1, #245	; 0xf5
    54c4:	2011      	movs	r0, #17
    54c6:	f003 fb11 	bl	8aec <SX1276Write>
                SX1276Write( REG_DIOMAPPING1, ( SX1276Read( REG_DIOMAPPING1 ) & RFLR_DIOMAPPING1_DIO0_MASK & RFLR_DIOMAPPING1_DIO2_MASK ) | RFLR_DIOMAPPING1_DIO0_01 | RFLR_DIOMAPPING1_DIO2_00 );
    54ca:	2040      	movs	r0, #64	; 0x40
    54cc:	f003 fb19 	bl	8b02 <SX1276Read>
    54d0:	f000 0133 	and.w	r1, r0, #51	; 0x33
                SX1276Write( REG_DIOMAPPING1, ( SX1276Read( REG_DIOMAPPING1 ) & RFLR_DIOMAPPING1_DIO0_MASK ) | RFLR_DIOMAPPING1_DIO0_01 );
    54d4:	f041 0140 	orr.w	r1, r1, #64	; 0x40
    54d8:	2040      	movs	r0, #64	; 0x40
    54da:	f003 fb07 	bl	8aec <SX1276Write>
    54de:	e7c8      	b.n	5472 <SX1276SetTx+0x1e>
                SX1276Write( REG_LR_IRQFLAGSMASK, RFLR_IRQFLAGS_RXTIMEOUT |
    54e0:	21f7      	movs	r1, #247	; 0xf7
    54e2:	2011      	movs	r0, #17
    54e4:	f003 fb02 	bl	8aec <SX1276Write>
                SX1276Write( REG_DIOMAPPING1, ( SX1276Read( REG_DIOMAPPING1 ) & RFLR_DIOMAPPING1_DIO0_MASK ) | RFLR_DIOMAPPING1_DIO0_01 );
    54e8:	2040      	movs	r0, #64	; 0x40
    54ea:	f003 fb0a 	bl	8b02 <SX1276Read>
    54ee:	f000 013f 	and.w	r1, r0, #63	; 0x3f
    54f2:	e7ef      	b.n	54d4 <SX1276SetTx+0x80>
    54f4:	2000071c 	.word	0x2000071c
    54f8:	20000734 	.word	0x20000734
    54fc:	20000878 	.word	0x20000878

00005500 <SX1276SetModem>:
{
    5500:	b510      	push	{r4, lr}
    5502:	4604      	mov	r4, r0
    if( ( SX1276Read( REG_OPMODE ) & RFLR_OPMODE_LONGRANGEMODE_ON ) != 0 )
    5504:	2001      	movs	r0, #1
    5506:	f003 fafc 	bl	8b02 <SX1276Read>
        SX1276.Settings.Modem = MODEM_LORA;
    550a:	f3c0 10c0 	ubfx	r0, r0, #7, #1
    if( SX1276.Settings.Modem == modem )
    550e:	42a0      	cmp	r0, r4
    5510:	4b17      	ldr	r3, [pc, #92]	; (5570 <SX1276SetModem+0x70>)
    5512:	d102      	bne.n	551a <SX1276SetModem+0x1a>
    5514:	f883 00e1 	strb.w	r0, [r3, #225]	; 0xe1
}
    5518:	bd10      	pop	{r4, pc}
    switch( SX1276.Settings.Modem )
    551a:	2c01      	cmp	r4, #1
    SX1276.Settings.Modem = modem;
    551c:	f883 40e1 	strb.w	r4, [r3, #225]	; 0xe1
        SX1276SetOpMode( RF_OPMODE_SLEEP );
    5520:	f04f 0000 	mov.w	r0, #0
    switch( SX1276.Settings.Modem )
    5524:	d013      	beq.n	554e <SX1276SetModem+0x4e>
        SX1276SetOpMode( RF_OPMODE_SLEEP );
    5526:	f003 faf7 	bl	8b18 <SX1276SetOpMode>
        SX1276Write( REG_OPMODE, ( SX1276Read( REG_OPMODE ) & RFLR_OPMODE_LONGRANGEMODE_MASK ) | RFLR_OPMODE_LONGRANGEMODE_OFF );
    552a:	2001      	movs	r0, #1
    552c:	f003 fae9 	bl	8b02 <SX1276Read>
    5530:	f000 017f 	and.w	r1, r0, #127	; 0x7f
    5534:	2001      	movs	r0, #1
    5536:	f003 fad9 	bl	8aec <SX1276Write>
        SX1276Write( REG_DIOMAPPING1, 0x00 );
    553a:	2100      	movs	r1, #0
    553c:	2040      	movs	r0, #64	; 0x40
    553e:	f003 fad5 	bl	8aec <SX1276Write>
        SX1276Write( REG_DIOMAPPING2, 0x30 ); // DIO5=ModeReady
    5542:	2130      	movs	r1, #48	; 0x30
}
    5544:	e8bd 4010 	ldmia.w	sp!, {r4, lr}
        SX1276Write( REG_DIOMAPPING2, 0x00 );
    5548:	2041      	movs	r0, #65	; 0x41
    554a:	f003 bacf 	b.w	8aec <SX1276Write>
        SX1276SetOpMode( RF_OPMODE_SLEEP );
    554e:	f003 fae3 	bl	8b18 <SX1276SetOpMode>
        SX1276Write( REG_OPMODE, ( SX1276Read( REG_OPMODE ) & RFLR_OPMODE_LONGRANGEMODE_MASK ) | RFLR_OPMODE_LONGRANGEMODE_ON );
    5552:	4620      	mov	r0, r4
    5554:	f003 fad5 	bl	8b02 <SX1276Read>
    5558:	f060 017f 	orn	r1, r0, #127	; 0x7f
    555c:	b2c9      	uxtb	r1, r1
    555e:	4620      	mov	r0, r4
    5560:	f003 fac4 	bl	8aec <SX1276Write>
        SX1276Write( REG_DIOMAPPING1, 0x00 );
    5564:	2100      	movs	r1, #0
    5566:	2040      	movs	r0, #64	; 0x40
    5568:	f003 fac0 	bl	8aec <SX1276Write>
        SX1276Write( REG_DIOMAPPING2, 0x00 );
    556c:	2100      	movs	r1, #0
    556e:	e7e9      	b.n	5544 <SX1276SetModem+0x44>
    5570:	20000734 	.word	0x20000734

00005574 <SX1276Init>:
{
    5574:	b538      	push	{r3, r4, r5, lr}
    RadioEvents = events;
    5576:	4b17      	ldr	r3, [pc, #92]	; (55d4 <SX1276Init+0x60>)
    TimerInit( &TxTimeoutTimer, SX1276OnTimeoutIrq );
    5578:	4917      	ldr	r1, [pc, #92]	; (55d8 <SX1276Init+0x64>)
    RadioEvents = events;
    557a:	6018      	str	r0, [r3, #0]
    TimerInit( &TxTimeoutTimer, SX1276OnTimeoutIrq );
    557c:	4817      	ldr	r0, [pc, #92]	; (55dc <SX1276Init+0x68>)
    557e:	4c18      	ldr	r4, [pc, #96]	; (55e0 <SX1276Init+0x6c>)
    5580:	f003 fb4f 	bl	8c22 <TimerInit>
    TimerInit( &RxTimeoutTimer, SX1276OnTimeoutIrq );
    5584:	4914      	ldr	r1, [pc, #80]	; (55d8 <SX1276Init+0x64>)
    5586:	4817      	ldr	r0, [pc, #92]	; (55e4 <SX1276Init+0x70>)
    5588:	f003 fb4b 	bl	8c22 <TimerInit>
    TimerInit( &RxTimeoutSyncWord, SX1276OnTimeoutIrq );
    558c:	4912      	ldr	r1, [pc, #72]	; (55d8 <SX1276Init+0x64>)
    558e:	4816      	ldr	r0, [pc, #88]	; (55e8 <SX1276Init+0x74>)
    5590:	f003 fb47 	bl	8c22 <TimerInit>
    SX1276Reset( );
    5594:	f7ff fbc6 	bl	4d24 <SX1276Reset>
    RxChainCalibration( );
    5598:	f7fb fc06 	bl	da8 <RxChainCalibration>
    SX1276SetOpMode( RF_OPMODE_SLEEP );
    559c:	2000      	movs	r0, #0
    559e:	f003 fabb 	bl	8b18 <SX1276SetOpMode>
    SX1276IoIrqInit( DioIrq );
    55a2:	4812      	ldr	r0, [pc, #72]	; (55ec <SX1276Init+0x78>)
    55a4:	f7ff fbd4 	bl	4d50 <SX1276IoIrqInit>
    55a8:	2500      	movs	r5, #0
        SX1276SetModem( RadioRegsInit[i].Modem );
    55aa:	7820      	ldrb	r0, [r4, #0]
    55ac:	f7ff ffa8 	bl	5500 <SX1276SetModem>
        SX1276Write( RadioRegsInit[i].Addr, RadioRegsInit[i].Value );
    55b0:	3501      	adds	r5, #1
    55b2:	78a1      	ldrb	r1, [r4, #2]
    55b4:	7860      	ldrb	r0, [r4, #1]
    55b6:	f003 fa99 	bl	8aec <SX1276Write>
    for( i = 0; i < sizeof( RadioRegsInit ) / sizeof( RadioRegisters_t ); i++ )
    55ba:	2d10      	cmp	r5, #16
    55bc:	f104 0403 	add.w	r4, r4, #3
    55c0:	d1f3      	bne.n	55aa <SX1276Init+0x36>
    SX1276SetModem( MODEM_FSK );
    55c2:	2000      	movs	r0, #0
    55c4:	f7ff ff9c 	bl	5500 <SX1276SetModem>
    SX1276.Settings.State = RF_IDLE;
    55c8:	4b09      	ldr	r3, [pc, #36]	; (55f0 <SX1276Init+0x7c>)
    55ca:	2200      	movs	r2, #0
    55cc:	f883 20e0 	strb.w	r2, [r3, #224]	; 0xe0
}
    55d0:	bd38      	pop	{r3, r4, r5, pc}
    55d2:	bf00      	nop
    55d4:	20000700 	.word	0x20000700
    55d8:	00005b8d 	.word	0x00005b8d
    55dc:	20000878 	.word	0x20000878
    55e0:	00009f66 	.word	0x00009f66
    55e4:	2000071c 	.word	0x2000071c
    55e8:	20000704 	.word	0x20000704
    55ec:	20000078 	.word	0x20000078
    55f0:	20000734 	.word	0x20000734

000055f4 <SX1276SetTxContinuousWave>:
{
    55f4:	b530      	push	{r4, r5, lr}
    uint32_t timeout = ( uint32_t )( time * 1000 );
    55f6:	f44f 747a 	mov.w	r4, #1000	; 0x3e8
{
    55fa:	b08b      	sub	sp, #44	; 0x2c
    uint32_t timeout = ( uint32_t )( time * 1000 );
    55fc:	4354      	muls	r4, r2
{
    55fe:	460d      	mov	r5, r1
    SX1276SetChannel( freq );
    5600:	f7fb fbaa 	bl	d58 <SX1276SetChannel>
    SX1276SetTxConfig( MODEM_FSK, power, 0, 0, 4800, 0, 5, false, false, 0, 0, 0, timeout );
    5604:	2300      	movs	r3, #0
    5606:	2205      	movs	r2, #5
    5608:	e9cd 3201 	strd	r3, r2, [sp, #4]
    560c:	f44f 5296 	mov.w	r2, #4800	; 0x12c0
    5610:	e9cd 3306 	strd	r3, r3, [sp, #24]
    5614:	e9cd 3304 	strd	r3, r3, [sp, #16]
    5618:	9303      	str	r3, [sp, #12]
    561a:	4618      	mov	r0, r3
    561c:	4629      	mov	r1, r5
    561e:	9200      	str	r2, [sp, #0]
    5620:	9408      	str	r4, [sp, #32]
    5622:	461a      	mov	r2, r3
    5624:	f7fb fe90 	bl	1348 <SX1276SetTxConfig>
    SX1276Write( REG_PACKETCONFIG2, ( SX1276Read( REG_PACKETCONFIG2 ) & RF_PACKETCONFIG2_DATAMODE_MASK ) );
    5628:	2031      	movs	r0, #49	; 0x31
    562a:	f003 fa6a 	bl	8b02 <SX1276Read>
    562e:	f000 01bf 	and.w	r1, r0, #191	; 0xbf
    5632:	2031      	movs	r0, #49	; 0x31
    5634:	f003 fa5a 	bl	8aec <SX1276Write>
    TimerSetValue( &TxTimeoutTimer, timeout );
    5638:	4d0c      	ldr	r5, [pc, #48]	; (566c <SX1276SetTxContinuousWave+0x78>)
    SX1276Write( REG_DIOMAPPING1, RF_DIOMAPPING1_DIO0_11 | RF_DIOMAPPING1_DIO1_11 );
    563a:	21f0      	movs	r1, #240	; 0xf0
    563c:	2040      	movs	r0, #64	; 0x40
    563e:	f003 fa55 	bl	8aec <SX1276Write>
    SX1276Write( REG_DIOMAPPING2, RF_DIOMAPPING2_DIO4_10 | RF_DIOMAPPING2_DIO5_10 );
    5642:	21a0      	movs	r1, #160	; 0xa0
    5644:	2041      	movs	r0, #65	; 0x41
    5646:	f003 fa51 	bl	8aec <SX1276Write>
    TimerSetValue( &TxTimeoutTimer, timeout );
    564a:	4621      	mov	r1, r4
    564c:	4628      	mov	r0, r5
    564e:	f003 faf0 	bl	8c32 <TimerSetValue>
    SX1276.Settings.State = RF_TX_RUNNING;
    5652:	4b07      	ldr	r3, [pc, #28]	; (5670 <SX1276SetTxContinuousWave+0x7c>)
    5654:	2202      	movs	r2, #2
    TimerStart( &TxTimeoutTimer );
    5656:	4628      	mov	r0, r5
    SX1276.Settings.State = RF_TX_RUNNING;
    5658:	f883 20e0 	strb.w	r2, [r3, #224]	; 0xe0
    TimerStart( &TxTimeoutTimer );
    565c:	f000 fb0a 	bl	5c74 <TimerStart>
    SX1276SetOpMode( RF_OPMODE_TRANSMITTER );
    5660:	2003      	movs	r0, #3
}
    5662:	b00b      	add	sp, #44	; 0x2c
    5664:	e8bd 4030 	ldmia.w	sp!, {r4, r5, lr}
    SX1276SetOpMode( RF_OPMODE_TRANSMITTER );
    5668:	f003 ba56 	b.w	8b18 <SX1276SetOpMode>
    566c:	20000878 	.word	0x20000878
    5670:	20000734 	.word	0x20000734

00005674 <SX1276OnDio3Irq>:
{
    5674:	b570      	push	{r4, r5, r6, lr}
    switch( SX1276.Settings.Modem )
    5676:	4b11      	ldr	r3, [pc, #68]	; (56bc <SX1276OnDio3Irq+0x48>)
    5678:	f893 60e1 	ldrb.w	r6, [r3, #225]	; 0xe1
    567c:	2e01      	cmp	r6, #1
    567e:	d11c      	bne.n	56ba <SX1276OnDio3Irq+0x46>
        if( ( SX1276Read( REG_LR_IRQFLAGS ) & RFLR_IRQFLAGS_CADDETECTED ) == RFLR_IRQFLAGS_CADDETECTED )
    5680:	2012      	movs	r0, #18
    5682:	f003 fa3e 	bl	8b02 <SX1276Read>
    5686:	f010 0401 	ands.w	r4, r0, #1
    568a:	4d0d      	ldr	r5, [pc, #52]	; (56c0 <SX1276OnDio3Irq+0x4c>)
    568c:	d00b      	beq.n	56a6 <SX1276OnDio3Irq+0x32>
            SX1276Write( REG_LR_IRQFLAGS, RFLR_IRQFLAGS_CADDETECTED | RFLR_IRQFLAGS_CADDONE );
    568e:	2105      	movs	r1, #5
    5690:	2012      	movs	r0, #18
    5692:	f003 fa2b 	bl	8aec <SX1276Write>
            if( ( RadioEvents != NULL ) && ( RadioEvents->CadDone != NULL ) )
    5696:	682b      	ldr	r3, [r5, #0]
    5698:	b17b      	cbz	r3, 56ba <SX1276OnDio3Irq+0x46>
    569a:	699b      	ldr	r3, [r3, #24]
    569c:	b16b      	cbz	r3, 56ba <SX1276OnDio3Irq+0x46>
                RadioEvents->CadDone( true );
    569e:	4630      	mov	r0, r6
}
    56a0:	e8bd 4070 	ldmia.w	sp!, {r4, r5, r6, lr}
                RadioEvents->CadDone( false );
    56a4:	4718      	bx	r3
            SX1276Write( REG_LR_IRQFLAGS, RFLR_IRQFLAGS_CADDONE );
    56a6:	2104      	movs	r1, #4
    56a8:	2012      	movs	r0, #18
    56aa:	f003 fa1f 	bl	8aec <SX1276Write>
            if( ( RadioEvents != NULL ) && ( RadioEvents->CadDone != NULL ) )
    56ae:	682b      	ldr	r3, [r5, #0]
    56b0:	b11b      	cbz	r3, 56ba <SX1276OnDio3Irq+0x46>
    56b2:	699b      	ldr	r3, [r3, #24]
    56b4:	b10b      	cbz	r3, 56ba <SX1276OnDio3Irq+0x46>
                RadioEvents->CadDone( false );
    56b6:	4620      	mov	r0, r4
    56b8:	e7f2      	b.n	56a0 <SX1276OnDio3Irq+0x2c>
}
    56ba:	bd70      	pop	{r4, r5, r6, pc}
    56bc:	20000734 	.word	0x20000734
    56c0:	20000700 	.word	0x20000700

000056c4 <SX1276Send>:
{
    56c4:	b537      	push	{r0, r1, r2, r4, r5, lr}
    switch( SX1276.Settings.Modem )
    56c6:	4c3d      	ldr	r4, [pc, #244]	; (57bc <SX1276Send+0xf8>)
{
    56c8:	f88d 1007 	strb.w	r1, [sp, #7]
    switch( SX1276.Settings.Modem )
    56cc:	f894 30e1 	ldrb.w	r3, [r4, #225]	; 0xe1
{
    56d0:	4605      	mov	r5, r0
    switch( SX1276.Settings.Modem )
    56d2:	b133      	cbz	r3, 56e2 <SX1276Send+0x1e>
    56d4:	2b01      	cmp	r3, #1
    56d6:	d034      	beq.n	5742 <SX1276Send+0x7e>
    56d8:	2000      	movs	r0, #0
    SX1276SetTx( txTimeout );
    56da:	f7ff febb 	bl	5454 <SX1276SetTx>
}
    56de:	b003      	add	sp, #12
    56e0:	bd30      	pop	{r4, r5, pc}
            SX1276.Settings.FskPacketHandler.NbBytes = 0;
    56e2:	f8a4 3118 	strh.w	r3, [r4, #280]	; 0x118
            if( SX1276.Settings.Fsk.FixLen == false )
    56e6:	f894 30fe 	ldrb.w	r3, [r4, #254]	; 0xfe
            SX1276.Settings.FskPacketHandler.Size = size;
    56ea:	f89d 1007 	ldrb.w	r1, [sp, #7]
    56ee:	f8a4 1116 	strh.w	r1, [r4, #278]	; 0x116
            if( SX1276.Settings.Fsk.FixLen == false )
    56f2:	b9d3      	cbnz	r3, 572a <SX1276Send+0x66>
                SX1276WriteFifo( ( uint8_t* )&size, 1 );
    56f4:	2101      	movs	r1, #1
    56f6:	f10d 0007 	add.w	r0, sp, #7
    56fa:	f003 fa6d 	bl	8bd8 <SX1276WriteFifo>
            if( ( size > 0 ) && ( size <= 64 ) )
    56fe:	f89d 2007 	ldrb.w	r2, [sp, #7]
    5702:	1e53      	subs	r3, r2, #1
    5704:	2b3f      	cmp	r3, #63	; 0x3f
    5706:	d814      	bhi.n	5732 <SX1276Send+0x6e>
                SX1276.Settings.FskPacketHandler.ChunkSize = size;
    5708:	f884 211b 	strb.w	r2, [r4, #283]	; 0x11b
            SX1276WriteFifo( buffer, SX1276.Settings.FskPacketHandler.ChunkSize );
    570c:	4628      	mov	r0, r5
    570e:	f894 111b 	ldrb.w	r1, [r4, #283]	; 0x11b
    5712:	f003 fa61 	bl	8bd8 <SX1276WriteFifo>
            SX1276.Settings.FskPacketHandler.NbBytes += SX1276.Settings.FskPacketHandler.ChunkSize;
    5716:	f8b4 2118 	ldrh.w	r2, [r4, #280]	; 0x118
    571a:	f894 311b 	ldrb.w	r3, [r4, #283]	; 0x11b
            txTimeout = SX1276.Settings.Fsk.TxTimeout;
    571e:	f8d4 0104 	ldr.w	r0, [r4, #260]	; 0x104
            SX1276.Settings.FskPacketHandler.NbBytes += SX1276.Settings.FskPacketHandler.ChunkSize;
    5722:	4413      	add	r3, r2
    5724:	f8a4 3118 	strh.w	r3, [r4, #280]	; 0x118
        break;
    5728:	e7d7      	b.n	56da <SX1276Send+0x16>
                SX1276Write( REG_PAYLOADLENGTH, size );
    572a:	2032      	movs	r0, #50	; 0x32
    572c:	f003 f9de 	bl	8aec <SX1276Write>
    5730:	e7e5      	b.n	56fe <SX1276Send+0x3a>
                memcpy1( RxTxBuffer, buffer, size );
    5732:	4823      	ldr	r0, [pc, #140]	; (57c0 <SX1276Send+0xfc>)
    5734:	4629      	mov	r1, r5
    5736:	f003 faa5 	bl	8c84 <memcpy1>
                SX1276.Settings.FskPacketHandler.ChunkSize = 32;
    573a:	2320      	movs	r3, #32
    573c:	f884 311b 	strb.w	r3, [r4, #283]	; 0x11b
    5740:	e7e4      	b.n	570c <SX1276Send+0x48>
            if( SX1276.Settings.LoRa.IqInverted == true )
    5742:	f894 3131 	ldrb.w	r3, [r4, #305]	; 0x131
                SX1276Write( REG_LR_INVERTIQ, ( ( SX1276Read( REG_LR_INVERTIQ ) & RFLR_INVERTIQ_TX_MASK & RFLR_INVERTIQ_RX_MASK ) | RFLR_INVERTIQ_RX_OFF | RFLR_INVERTIQ_TX_ON ) );
    5746:	2033      	movs	r0, #51	; 0x33
            if( SX1276.Settings.LoRa.IqInverted == true )
    5748:	b363      	cbz	r3, 57a4 <SX1276Send+0xe0>
                SX1276Write( REG_LR_INVERTIQ, ( ( SX1276Read( REG_LR_INVERTIQ ) & RFLR_INVERTIQ_TX_MASK & RFLR_INVERTIQ_RX_MASK ) | RFLR_INVERTIQ_RX_OFF | RFLR_INVERTIQ_TX_ON ) );
    574a:	f003 f9da 	bl	8b02 <SX1276Read>
    574e:	f000 01be 	and.w	r1, r0, #190	; 0xbe
    5752:	2033      	movs	r0, #51	; 0x33
    5754:	f003 f9ca 	bl	8aec <SX1276Write>
                SX1276Write( REG_LR_INVERTIQ2, RFLR_INVERTIQ2_ON );
    5758:	2119      	movs	r1, #25
                SX1276Write( REG_LR_INVERTIQ2, RFLR_INVERTIQ2_OFF );
    575a:	203b      	movs	r0, #59	; 0x3b
    575c:	f003 f9c6 	bl	8aec <SX1276Write>
            SX1276.Settings.LoRaPacketHandler.Size = size;
    5760:	f89d 1007 	ldrb.w	r1, [sp, #7]
    5764:	f884 1140 	strb.w	r1, [r4, #320]	; 0x140
            SX1276Write( REG_LR_PAYLOADLENGTH, size );
    5768:	2022      	movs	r0, #34	; 0x22
    576a:	f003 f9bf 	bl	8aec <SX1276Write>
            SX1276Write( REG_LR_FIFOTXBASEADDR, 0 );
    576e:	2100      	movs	r1, #0
    5770:	200e      	movs	r0, #14
    5772:	f003 f9bb 	bl	8aec <SX1276Write>
            SX1276Write( REG_LR_FIFOADDRPTR, 0 );
    5776:	2100      	movs	r1, #0
    5778:	200d      	movs	r0, #13
    577a:	f003 f9b7 	bl	8aec <SX1276Write>
            if( ( SX1276Read( REG_OPMODE ) & ~RF_OPMODE_MASK ) == RF_OPMODE_SLEEP )
    577e:	2001      	movs	r0, #1
    5780:	f003 f9bf 	bl	8b02 <SX1276Read>
    5784:	f030 03f8 	bics.w	r3, r0, #248	; 0xf8
    5788:	d104      	bne.n	5794 <SX1276Send+0xd0>
                SX1276SetStby( );
    578a:	f7ff fd3b 	bl	5204 <SX1276SetStby>
                DelayMs( 1 );
    578e:	2001      	movs	r0, #1
    5790:	f003 fa76 	bl	8c80 <DelayMs>
            SX1276WriteFifo( buffer, size );
    5794:	4628      	mov	r0, r5
    5796:	f89d 1007 	ldrb.w	r1, [sp, #7]
    579a:	f003 fa1d 	bl	8bd8 <SX1276WriteFifo>
            txTimeout = SX1276.Settings.LoRa.TxTimeout;
    579e:	f8d4 0134 	ldr.w	r0, [r4, #308]	; 0x134
        break;
    57a2:	e79a      	b.n	56da <SX1276Send+0x16>
                SX1276Write( REG_LR_INVERTIQ, ( ( SX1276Read( REG_LR_INVERTIQ ) & RFLR_INVERTIQ_TX_MASK & RFLR_INVERTIQ_RX_MASK ) | RFLR_INVERTIQ_RX_OFF | RFLR_INVERTIQ_TX_OFF ) );
    57a4:	f003 f9ad 	bl	8b02 <SX1276Read>
    57a8:	f000 01be 	and.w	r1, r0, #190	; 0xbe
    57ac:	f041 0101 	orr.w	r1, r1, #1
    57b0:	2033      	movs	r0, #51	; 0x33
    57b2:	f003 f99b 	bl	8aec <SX1276Write>
                SX1276Write( REG_LR_INVERTIQ2, RFLR_INVERTIQ2_OFF );
    57b6:	211d      	movs	r1, #29
    57b8:	e7cf      	b.n	575a <SX1276Send+0x96>
    57ba:	bf00      	nop
    57bc:	20000734 	.word	0x20000734
    57c0:	20000d9b 	.word	0x20000d9b

000057c4 <SX1276OnDio0Irq>:
{
    57c4:	b573      	push	{r0, r1, r4, r5, r6, lr}
    switch( SX1276.Settings.State )
    57c6:	4e91      	ldr	r6, [pc, #580]	; (5a0c <SX1276OnDio0Irq+0x248>)
    volatile uint8_t irqFlags = 0;
    57c8:	2300      	movs	r3, #0
    57ca:	f88d 3007 	strb.w	r3, [sp, #7]
    switch( SX1276.Settings.State )
    57ce:	f896 30e0 	ldrb.w	r3, [r6, #224]	; 0xe0
    57d2:	2b01      	cmp	r3, #1
    57d4:	4634      	mov	r4, r6
    57d6:	d004      	beq.n	57e2 <SX1276OnDio0Irq+0x1e>
    57d8:	2b02      	cmp	r3, #2
    57da:	f000 8101 	beq.w	59e0 <SX1276OnDio0Irq+0x21c>
}
    57de:	b002      	add	sp, #8
    57e0:	bd70      	pop	{r4, r5, r6, pc}
            switch( SX1276.Settings.Modem )
    57e2:	f896 30e1 	ldrb.w	r3, [r6, #225]	; 0xe1
    57e6:	b33b      	cbz	r3, 5838 <SX1276OnDio0Irq+0x74>
    57e8:	2b01      	cmp	r3, #1
    57ea:	d1f8      	bne.n	57de <SX1276OnDio0Irq+0x1a>
                    SX1276Write( REG_LR_IRQFLAGS, RFLR_IRQFLAGS_RXDONE );
    57ec:	2140      	movs	r1, #64	; 0x40
    57ee:	2012      	movs	r0, #18
    57f0:	f003 f97c 	bl	8aec <SX1276Write>
                    irqFlags = SX1276Read( REG_LR_IRQFLAGS );
    57f4:	2012      	movs	r0, #18
    57f6:	f003 f984 	bl	8b02 <SX1276Read>
    57fa:	f88d 0007 	strb.w	r0, [sp, #7]
                    if( ( irqFlags & RFLR_IRQFLAGS_PAYLOADCRCERROR_MASK ) == RFLR_IRQFLAGS_PAYLOADCRCERROR )
    57fe:	f89d 3007 	ldrb.w	r3, [sp, #7]
    5802:	4d83      	ldr	r5, [pc, #524]	; (5a10 <SX1276OnDio0Irq+0x24c>)
    5804:	f013 0f20 	tst.w	r3, #32
    5808:	f000 8098 	beq.w	593c <SX1276OnDio0Irq+0x178>
                        SX1276Write( REG_LR_IRQFLAGS, RFLR_IRQFLAGS_PAYLOADCRCERROR );
    580c:	2120      	movs	r1, #32
    580e:	2012      	movs	r0, #18
    5810:	f003 f96c 	bl	8aec <SX1276Write>
                        if( SX1276.Settings.LoRa.RxContinuous == false )
    5814:	f896 3132 	ldrb.w	r3, [r6, #306]	; 0x132
    5818:	b90b      	cbnz	r3, 581e <SX1276OnDio0Irq+0x5a>
                            SX1276.Settings.State = RF_IDLE;
    581a:	f886 30e0 	strb.w	r3, [r6, #224]	; 0xe0
                        TimerStop( &RxTimeoutTimer );
    581e:	487d      	ldr	r0, [pc, #500]	; (5a14 <SX1276OnDio0Irq+0x250>)
    5820:	f000 fa9e 	bl	5d60 <TimerStop>
                        if( ( RadioEvents != NULL ) && ( RadioEvents->RxError != NULL ) )
    5824:	682b      	ldr	r3, [r5, #0]
    5826:	2b00      	cmp	r3, #0
    5828:	d0d9      	beq.n	57de <SX1276OnDio0Irq+0x1a>
    582a:	691b      	ldr	r3, [r3, #16]
                if( ( RadioEvents != NULL ) && ( RadioEvents->TxDone != NULL ) )
    582c:	2b00      	cmp	r3, #0
    582e:	d0d6      	beq.n	57de <SX1276OnDio0Irq+0x1a>
}
    5830:	b002      	add	sp, #8
    5832:	e8bd 4070 	ldmia.w	sp!, {r4, r5, r6, lr}
                    RadioEvents->TxDone( );
    5836:	4718      	bx	r3
                if( SX1276.Settings.Fsk.CrcOn == true )
    5838:	f896 3100 	ldrb.w	r3, [r6, #256]	; 0x100
    583c:	4d74      	ldr	r5, [pc, #464]	; (5a10 <SX1276OnDio0Irq+0x24c>)
    583e:	b3ab      	cbz	r3, 58ac <SX1276OnDio0Irq+0xe8>
                    irqFlags = SX1276Read( REG_IRQFLAGS2 );
    5840:	203f      	movs	r0, #63	; 0x3f
    5842:	f003 f95e 	bl	8b02 <SX1276Read>
    5846:	f88d 0007 	strb.w	r0, [sp, #7]
                    if( ( irqFlags & RF_IRQFLAGS2_CRCOK ) != RF_IRQFLAGS2_CRCOK )
    584a:	f89d 3007 	ldrb.w	r3, [sp, #7]
    584e:	079b      	lsls	r3, r3, #30
    5850:	d42c      	bmi.n	58ac <SX1276OnDio0Irq+0xe8>
                        SX1276Write( REG_IRQFLAGS1, RF_IRQFLAGS1_RSSI |
    5852:	210b      	movs	r1, #11
    5854:	203e      	movs	r0, #62	; 0x3e
    5856:	f003 f949 	bl	8aec <SX1276Write>
                        SX1276Write( REG_IRQFLAGS2, RF_IRQFLAGS2_FIFOOVERRUN );
    585a:	2110      	movs	r1, #16
    585c:	203f      	movs	r0, #63	; 0x3f
    585e:	f003 f945 	bl	8aec <SX1276Write>
                        TimerStop( &RxTimeoutTimer );
    5862:	486c      	ldr	r0, [pc, #432]	; (5a14 <SX1276OnDio0Irq+0x250>)
    5864:	f000 fa7c 	bl	5d60 <TimerStop>
                        if( SX1276.Settings.Fsk.RxContinuous == false )
    5868:	f896 6102 	ldrb.w	r6, [r6, #258]	; 0x102
    586c:	b98e      	cbnz	r6, 5892 <SX1276OnDio0Irq+0xce>
                            TimerStop( &RxTimeoutSyncWord );
    586e:	486a      	ldr	r0, [pc, #424]	; (5a18 <SX1276OnDio0Irq+0x254>)
    5870:	f000 fa76 	bl	5d60 <TimerStop>
                            SX1276.Settings.State = RF_IDLE;
    5874:	f884 60e0 	strb.w	r6, [r4, #224]	; 0xe0
                        if( ( RadioEvents != NULL ) && ( RadioEvents->RxError != NULL ) )
    5878:	682b      	ldr	r3, [r5, #0]
    587a:	b113      	cbz	r3, 5882 <SX1276OnDio0Irq+0xbe>
    587c:	691b      	ldr	r3, [r3, #16]
    587e:	b103      	cbz	r3, 5882 <SX1276OnDio0Irq+0xbe>
                            RadioEvents->RxError( );
    5880:	4798      	blx	r3
                        SX1276.Settings.FskPacketHandler.PreambleDetected = false;
    5882:	2300      	movs	r3, #0
    5884:	f8a4 310c 	strh.w	r3, [r4, #268]	; 0x10c
                        SX1276.Settings.FskPacketHandler.NbBytes = 0;
    5888:	f8a4 3118 	strh.w	r3, [r4, #280]	; 0x118
                        SX1276.Settings.FskPacketHandler.Size = 0;
    588c:	f8a4 3116 	strh.w	r3, [r4, #278]	; 0x116
                        break;
    5890:	e7a5      	b.n	57de <SX1276OnDio0Irq+0x1a>
                            SX1276Write( REG_RXCONFIG, SX1276Read( REG_RXCONFIG ) | RF_RXCONFIG_RESTARTRXWITHOUTPLLLOCK );
    5892:	200d      	movs	r0, #13
    5894:	f003 f935 	bl	8b02 <SX1276Read>
    5898:	f040 0140 	orr.w	r1, r0, #64	; 0x40
    589c:	b2c9      	uxtb	r1, r1
    589e:	200d      	movs	r0, #13
    58a0:	f003 f924 	bl	8aec <SX1276Write>
                            TimerStart( &RxTimeoutSyncWord );
    58a4:	485c      	ldr	r0, [pc, #368]	; (5a18 <SX1276OnDio0Irq+0x254>)
    58a6:	f000 f9e5 	bl	5c74 <TimerStart>
    58aa:	e7e5      	b.n	5878 <SX1276OnDio0Irq+0xb4>
                if( ( SX1276.Settings.FskPacketHandler.Size == 0 ) && ( SX1276.Settings.FskPacketHandler.NbBytes == 0 ) )
    58ac:	f8b4 1116 	ldrh.w	r1, [r4, #278]	; 0x116
    58b0:	f8b4 0118 	ldrh.w	r0, [r4, #280]	; 0x118
    58b4:	4e59      	ldr	r6, [pc, #356]	; (5a1c <SX1276OnDio0Irq+0x258>)
    58b6:	ea51 0300 	orrs.w	r3, r1, r0
    58ba:	d10a      	bne.n	58d2 <SX1276OnDio0Irq+0x10e>
                    if( SX1276.Settings.Fsk.FixLen == false )
    58bc:	f894 30fe 	ldrb.w	r3, [r4, #254]	; 0xfe
    58c0:	bb4b      	cbnz	r3, 5916 <SX1276OnDio0Irq+0x152>
                        SX1276ReadFifo( ( uint8_t* )&SX1276.Settings.FskPacketHandler.Size, 1 );
    58c2:	4857      	ldr	r0, [pc, #348]	; (5a20 <SX1276OnDio0Irq+0x25c>)
    58c4:	2101      	movs	r1, #1
    58c6:	f003 f98c 	bl	8be2 <SX1276ReadFifo>
                    SX1276ReadFifo( RxTxBuffer + SX1276.Settings.FskPacketHandler.NbBytes, SX1276.Settings.FskPacketHandler.Size - SX1276.Settings.FskPacketHandler.NbBytes );
    58ca:	f8b4 0118 	ldrh.w	r0, [r4, #280]	; 0x118
    58ce:	f894 1116 	ldrb.w	r1, [r4, #278]	; 0x116
                    SX1276ReadFifo( RxTxBuffer + SX1276.Settings.FskPacketHandler.NbBytes, SX1276.Settings.FskPacketHandler.Size - SX1276.Settings.FskPacketHandler.NbBytes );
    58d2:	1a09      	subs	r1, r1, r0
    58d4:	b2c9      	uxtb	r1, r1
    58d6:	4430      	add	r0, r6
    58d8:	f003 f983 	bl	8be2 <SX1276ReadFifo>
                    SX1276.Settings.FskPacketHandler.NbBytes += ( SX1276.Settings.FskPacketHandler.Size - SX1276.Settings.FskPacketHandler.NbBytes );
    58dc:	f8b4 3116 	ldrh.w	r3, [r4, #278]	; 0x116
                TimerStop( &RxTimeoutTimer );
    58e0:	484c      	ldr	r0, [pc, #304]	; (5a14 <SX1276OnDio0Irq+0x250>)
                    SX1276.Settings.FskPacketHandler.NbBytes += ( SX1276.Settings.FskPacketHandler.Size - SX1276.Settings.FskPacketHandler.NbBytes );
    58e2:	f8a4 3118 	strh.w	r3, [r4, #280]	; 0x118
                TimerStop( &RxTimeoutTimer );
    58e6:	f000 fa3b 	bl	5d60 <TimerStop>
                if( SX1276.Settings.Fsk.RxContinuous == false )
    58ea:	f894 3102 	ldrb.w	r3, [r4, #258]	; 0x102
    58ee:	b9c3      	cbnz	r3, 5922 <SX1276OnDio0Irq+0x15e>
                    TimerStop( &RxTimeoutSyncWord );
    58f0:	4849      	ldr	r0, [pc, #292]	; (5a18 <SX1276OnDio0Irq+0x254>)
                    SX1276.Settings.State = RF_IDLE;
    58f2:	f884 30e0 	strb.w	r3, [r4, #224]	; 0xe0
                    TimerStop( &RxTimeoutSyncWord );
    58f6:	f000 fa33 	bl	5d60 <TimerStop>
                if( ( RadioEvents != NULL ) && ( RadioEvents->RxDone != NULL ) )
    58fa:	682b      	ldr	r3, [r5, #0]
    58fc:	2b00      	cmp	r3, #0
    58fe:	d0c0      	beq.n	5882 <SX1276OnDio0Irq+0xbe>
    5900:	689d      	ldr	r5, [r3, #8]
    5902:	2d00      	cmp	r5, #0
    5904:	d0bd      	beq.n	5882 <SX1276OnDio0Irq+0xbe>
                    RadioEvents->RxDone( RxTxBuffer, SX1276.Settings.FskPacketHandler.Size, SX1276.Settings.FskPacketHandler.RssiValue, 0 );
    5906:	f994 210e 	ldrsb.w	r2, [r4, #270]	; 0x10e
    590a:	f8b4 1116 	ldrh.w	r1, [r4, #278]	; 0x116
    590e:	4843      	ldr	r0, [pc, #268]	; (5a1c <SX1276OnDio0Irq+0x258>)
    5910:	2300      	movs	r3, #0
    5912:	47a8      	blx	r5
    5914:	e7b5      	b.n	5882 <SX1276OnDio0Irq+0xbe>
                        SX1276.Settings.FskPacketHandler.Size = SX1276Read( REG_PAYLOADLENGTH );
    5916:	2032      	movs	r0, #50	; 0x32
    5918:	f003 f8f3 	bl	8b02 <SX1276Read>
    591c:	f8a4 0116 	strh.w	r0, [r4, #278]	; 0x116
    5920:	e7d3      	b.n	58ca <SX1276OnDio0Irq+0x106>
                    SX1276Write( REG_RXCONFIG, SX1276Read( REG_RXCONFIG ) | RF_RXCONFIG_RESTARTRXWITHOUTPLLLOCK );
    5922:	200d      	movs	r0, #13
    5924:	f003 f8ed 	bl	8b02 <SX1276Read>
    5928:	f040 0140 	orr.w	r1, r0, #64	; 0x40
    592c:	b2c9      	uxtb	r1, r1
    592e:	200d      	movs	r0, #13
    5930:	f003 f8dc 	bl	8aec <SX1276Write>
                    TimerStart( &RxTimeoutSyncWord );
    5934:	4838      	ldr	r0, [pc, #224]	; (5a18 <SX1276OnDio0Irq+0x254>)
    5936:	f000 f99d 	bl	5c74 <TimerStart>
    593a:	e7de      	b.n	58fa <SX1276OnDio0Irq+0x136>
                    SX1276.Settings.LoRaPacketHandler.SnrValue = ( ( ( int8_t )SX1276Read( REG_LR_PKTSNRVALUE ) ) + 2 ) >> 2;
    593c:	2019      	movs	r0, #25
    593e:	f003 f8e0 	bl	8b02 <SX1276Read>
    5942:	b240      	sxtb	r0, r0
    5944:	3002      	adds	r0, #2
    5946:	1080      	asrs	r0, r0, #2
    5948:	f886 013c 	strb.w	r0, [r6, #316]	; 0x13c
                    int16_t rssi = SX1276Read( REG_LR_PKTRSSIVALUE );
    594c:	201a      	movs	r0, #26
    594e:	f003 f8d8 	bl	8b02 <SX1276Read>
                    if( SX1276.Settings.LoRaPacketHandler.SnrValue < 0 )
    5952:	f996 213c 	ldrsb.w	r2, [r6, #316]	; 0x13c
    5956:	4933      	ldr	r1, [pc, #204]	; (5a24 <SX1276OnDio0Irq+0x260>)
    5958:	2a00      	cmp	r2, #0
                    int16_t rssi = SX1276Read( REG_LR_PKTRSSIVALUE );
    595a:	b203      	sxth	r3, r0
                    if( SX1276.Settings.LoRaPacketHandler.SnrValue < 0 )
    595c:	f340 100b 	sbfx	r0, r0, #4, #12
    5960:	da37      	bge.n	59d2 <SX1276OnDio0Irq+0x20e>
                        if( SX1276.Settings.Channel > RF_MID_BAND_THRESH )
    5962:	f8d6 60e4 	ldr.w	r6, [r6, #228]	; 0xe4
    5966:	b212      	sxth	r2, r2
    5968:	428e      	cmp	r6, r1
                            SX1276.Settings.LoRaPacketHandler.RssiValue = RSSI_OFFSET_HF + rssi + ( rssi >> 4 ) +
    596a:	bf8c      	ite	hi
    596c:	3a9d      	subhi	r2, #157	; 0x9d
                            SX1276.Settings.LoRaPacketHandler.RssiValue = RSSI_OFFSET_LF + rssi + ( rssi >> 4 ) +
    596e:	3aa4      	subls	r2, #164	; 0xa4
    5970:	4413      	add	r3, r2
                            SX1276.Settings.LoRaPacketHandler.RssiValue = RSSI_OFFSET_LF + rssi + ( rssi >> 4 );
    5972:	4403      	add	r3, r0
                    SX1276.Settings.LoRaPacketHandler.Size = SX1276Read( REG_LR_RXNBBYTES );
    5974:	2013      	movs	r0, #19
                            SX1276.Settings.LoRaPacketHandler.RssiValue = RSSI_OFFSET_LF + rssi + ( rssi >> 4 );
    5976:	f8a4 313e 	strh.w	r3, [r4, #318]	; 0x13e
                    SX1276.Settings.LoRaPacketHandler.Size = SX1276Read( REG_LR_RXNBBYTES );
    597a:	f003 f8c2 	bl	8b02 <SX1276Read>
    597e:	f884 0140 	strb.w	r0, [r4, #320]	; 0x140
                    SX1276Write( REG_LR_FIFOADDRPTR, SX1276Read( REG_LR_FIFORXCURRENTADDR ) );
    5982:	2010      	movs	r0, #16
    5984:	f003 f8bd 	bl	8b02 <SX1276Read>
    5988:	4601      	mov	r1, r0
    598a:	200d      	movs	r0, #13
    598c:	f003 f8ae 	bl	8aec <SX1276Write>
                    SX1276ReadFifo( RxTxBuffer, SX1276.Settings.LoRaPacketHandler.Size );
    5990:	f894 1140 	ldrb.w	r1, [r4, #320]	; 0x140
    5994:	4821      	ldr	r0, [pc, #132]	; (5a1c <SX1276OnDio0Irq+0x258>)
    5996:	f003 f924 	bl	8be2 <SX1276ReadFifo>
                    if( SX1276.Settings.LoRa.RxContinuous == false )
    599a:	f894 3132 	ldrb.w	r3, [r4, #306]	; 0x132
    599e:	b90b      	cbnz	r3, 59a4 <SX1276OnDio0Irq+0x1e0>
                        SX1276.Settings.State = RF_IDLE;
    59a0:	f884 30e0 	strb.w	r3, [r4, #224]	; 0xe0
                    TimerStop( &RxTimeoutTimer );
    59a4:	481b      	ldr	r0, [pc, #108]	; (5a14 <SX1276OnDio0Irq+0x250>)
    59a6:	f000 f9db 	bl	5d60 <TimerStop>
                    if( ( RadioEvents != NULL ) && ( RadioEvents->RxDone != NULL ) )
    59aa:	682b      	ldr	r3, [r5, #0]
    59ac:	2b00      	cmp	r3, #0
    59ae:	f43f af16 	beq.w	57de <SX1276OnDio0Irq+0x1a>
    59b2:	689d      	ldr	r5, [r3, #8]
    59b4:	2d00      	cmp	r5, #0
    59b6:	f43f af12 	beq.w	57de <SX1276OnDio0Irq+0x1a>
                        RadioEvents->RxDone( RxTxBuffer, SX1276.Settings.LoRaPacketHandler.Size, SX1276.Settings.LoRaPacketHandler.RssiValue, SX1276.Settings.LoRaPacketHandler.SnrValue );
    59ba:	f994 313c 	ldrsb.w	r3, [r4, #316]	; 0x13c
    59be:	f9b4 213e 	ldrsh.w	r2, [r4, #318]	; 0x13e
    59c2:	f894 1140 	ldrb.w	r1, [r4, #320]	; 0x140
    59c6:	4815      	ldr	r0, [pc, #84]	; (5a1c <SX1276OnDio0Irq+0x258>)
    59c8:	46ac      	mov	ip, r5
}
    59ca:	b002      	add	sp, #8
    59cc:	e8bd 4070 	ldmia.w	sp!, {r4, r5, r6, lr}
                        RadioEvents->RxDone( RxTxBuffer, SX1276.Settings.LoRaPacketHandler.Size, SX1276.Settings.LoRaPacketHandler.RssiValue, SX1276.Settings.LoRaPacketHandler.SnrValue );
    59d0:	4760      	bx	ip
                        if( SX1276.Settings.Channel > RF_MID_BAND_THRESH )
    59d2:	f8d6 20e4 	ldr.w	r2, [r6, #228]	; 0xe4
    59d6:	428a      	cmp	r2, r1
                            SX1276.Settings.LoRaPacketHandler.RssiValue = RSSI_OFFSET_HF + rssi + ( rssi >> 4 );
    59d8:	bf8c      	ite	hi
    59da:	3b9d      	subhi	r3, #157	; 0x9d
                            SX1276.Settings.LoRaPacketHandler.RssiValue = RSSI_OFFSET_LF + rssi + ( rssi >> 4 );
    59dc:	3ba4      	subls	r3, #164	; 0xa4
    59de:	e7c8      	b.n	5972 <SX1276OnDio0Irq+0x1ae>
            TimerStop( &TxTimeoutTimer );
    59e0:	4811      	ldr	r0, [pc, #68]	; (5a28 <SX1276OnDio0Irq+0x264>)
    59e2:	f000 f9bd 	bl	5d60 <TimerStop>
            switch( SX1276.Settings.Modem )
    59e6:	f896 30e1 	ldrb.w	r3, [r6, #225]	; 0xe1
    59ea:	2b01      	cmp	r3, #1
    59ec:	d103      	bne.n	59f6 <SX1276OnDio0Irq+0x232>
                SX1276Write( REG_LR_IRQFLAGS, RFLR_IRQFLAGS_TXDONE );
    59ee:	2108      	movs	r1, #8
    59f0:	2012      	movs	r0, #18
    59f2:	f003 f87b 	bl	8aec <SX1276Write>
                SX1276.Settings.State = RF_IDLE;
    59f6:	2300      	movs	r3, #0
    59f8:	f884 30e0 	strb.w	r3, [r4, #224]	; 0xe0
                if( ( RadioEvents != NULL ) && ( RadioEvents->TxDone != NULL ) )
    59fc:	4b04      	ldr	r3, [pc, #16]	; (5a10 <SX1276OnDio0Irq+0x24c>)
    59fe:	681b      	ldr	r3, [r3, #0]
    5a00:	2b00      	cmp	r3, #0
    5a02:	f43f aeec 	beq.w	57de <SX1276OnDio0Irq+0x1a>
    5a06:	681b      	ldr	r3, [r3, #0]
    5a08:	e710      	b.n	582c <SX1276OnDio0Irq+0x68>
    5a0a:	bf00      	nop
    5a0c:	20000734 	.word	0x20000734
    5a10:	20000700 	.word	0x20000700
    5a14:	2000071c 	.word	0x2000071c
    5a18:	20000704 	.word	0x20000704
    5a1c:	20000d9b 	.word	0x20000d9b
    5a20:	2000084a 	.word	0x2000084a
    5a24:	1f4add40 	.word	0x1f4add40
    5a28:	20000878 	.word	0x20000878

00005a2c <SX1276OnDio1Irq>:
{
    5a2c:	b570      	push	{r4, r5, r6, lr}
    switch( SX1276.Settings.State )
    5a2e:	4c3b      	ldr	r4, [pc, #236]	; (5b1c <SX1276OnDio1Irq+0xf0>)
    5a30:	f894 60e0 	ldrb.w	r6, [r4, #224]	; 0xe0
    5a34:	2e01      	cmp	r6, #1
    5a36:	4625      	mov	r5, r4
    5a38:	d002      	beq.n	5a40 <SX1276OnDio1Irq+0x14>
    5a3a:	2e02      	cmp	r6, #2
    5a3c:	d04e      	beq.n	5adc <SX1276OnDio1Irq+0xb0>
}
    5a3e:	bd70      	pop	{r4, r5, r6, pc}
            switch( SX1276.Settings.Modem )
    5a40:	f894 30e1 	ldrb.w	r3, [r4, #225]	; 0xe1
    5a44:	b1ab      	cbz	r3, 5a72 <SX1276OnDio1Irq+0x46>
    5a46:	2b01      	cmp	r3, #1
    5a48:	d1f9      	bne.n	5a3e <SX1276OnDio1Irq+0x12>
                TimerStop( &RxTimeoutTimer );
    5a4a:	4835      	ldr	r0, [pc, #212]	; (5b20 <SX1276OnDio1Irq+0xf4>)
    5a4c:	f000 f988 	bl	5d60 <TimerStop>
                SX1276Write( REG_LR_IRQFLAGS, RFLR_IRQFLAGS_RXTIMEOUT );
    5a50:	2180      	movs	r1, #128	; 0x80
    5a52:	2012      	movs	r0, #18
    5a54:	f003 f84a 	bl	8aec <SX1276Write>
                SX1276.Settings.State = RF_IDLE;
    5a58:	2300      	movs	r3, #0
    5a5a:	f884 30e0 	strb.w	r3, [r4, #224]	; 0xe0
                if( ( RadioEvents != NULL ) && ( RadioEvents->RxTimeout != NULL ) )
    5a5e:	4b31      	ldr	r3, [pc, #196]	; (5b24 <SX1276OnDio1Irq+0xf8>)
    5a60:	681b      	ldr	r3, [r3, #0]
    5a62:	2b00      	cmp	r3, #0
    5a64:	d0eb      	beq.n	5a3e <SX1276OnDio1Irq+0x12>
    5a66:	68db      	ldr	r3, [r3, #12]
    5a68:	2b00      	cmp	r3, #0
    5a6a:	d0e8      	beq.n	5a3e <SX1276OnDio1Irq+0x12>
}
    5a6c:	e8bd 4070 	ldmia.w	sp!, {r4, r5, r6, lr}
                    RadioEvents->RxTimeout( );
    5a70:	4718      	bx	r3
                TimerStop( &RxTimeoutSyncWord );
    5a72:	482d      	ldr	r0, [pc, #180]	; (5b28 <SX1276OnDio1Irq+0xfc>)
    5a74:	f000 f974 	bl	5d60 <TimerStop>
                if( ( SX1276.Settings.FskPacketHandler.Size == 0 ) && ( SX1276.Settings.FskPacketHandler.NbBytes == 0 ) )
    5a78:	f8b4 2116 	ldrh.w	r2, [r4, #278]	; 0x116
    5a7c:	f8b4 3118 	ldrh.w	r3, [r4, #280]	; 0x118
    5a80:	4313      	orrs	r3, r2
    5a82:	d107      	bne.n	5a94 <SX1276OnDio1Irq+0x68>
                    if( SX1276.Settings.Fsk.FixLen == false )
    5a84:	f894 30fe 	ldrb.w	r3, [r4, #254]	; 0xfe
    5a88:	b9e3      	cbnz	r3, 5ac4 <SX1276OnDio1Irq+0x98>
                        SX1276ReadFifo( ( uint8_t* )&SX1276.Settings.FskPacketHandler.Size, 1 );
    5a8a:	4631      	mov	r1, r6
    5a8c:	f504 708b 	add.w	r0, r4, #278	; 0x116
    5a90:	f003 f8a7 	bl	8be2 <SX1276ReadFifo>
                if( ( SX1276.Settings.FskPacketHandler.Size - SX1276.Settings.FskPacketHandler.NbBytes ) >= SX1276.Settings.FskPacketHandler.FifoThresh )
    5a94:	f8b5 2118 	ldrh.w	r2, [r5, #280]	; 0x118
    5a98:	f8b5 1116 	ldrh.w	r1, [r5, #278]	; 0x116
    5a9c:	f895 311a 	ldrb.w	r3, [r5, #282]	; 0x11a
    5aa0:	4822      	ldr	r0, [pc, #136]	; (5b2c <SX1276OnDio1Irq+0x100>)
    5aa2:	1a89      	subs	r1, r1, r2
    5aa4:	4299      	cmp	r1, r3
    5aa6:	4410      	add	r0, r2
    5aa8:	db12      	blt.n	5ad0 <SX1276OnDio1Irq+0xa4>
                    SX1276ReadFifo( ( RxTxBuffer + SX1276.Settings.FskPacketHandler.NbBytes ), SX1276.Settings.FskPacketHandler.FifoThresh - 1 );
    5aaa:	1e59      	subs	r1, r3, #1
    5aac:	b2c9      	uxtb	r1, r1
    5aae:	f003 f898 	bl	8be2 <SX1276ReadFifo>
                    SX1276.Settings.FskPacketHandler.NbBytes += SX1276.Settings.FskPacketHandler.FifoThresh - 1;
    5ab2:	f895 311a 	ldrb.w	r3, [r5, #282]	; 0x11a
    5ab6:	f8b5 2118 	ldrh.w	r2, [r5, #280]	; 0x118
    5aba:	4413      	add	r3, r2
    5abc:	3b01      	subs	r3, #1
                    SX1276.Settings.FskPacketHandler.NbBytes += ( SX1276.Settings.FskPacketHandler.Size - SX1276.Settings.FskPacketHandler.NbBytes );
    5abe:	f8a5 3118 	strh.w	r3, [r5, #280]	; 0x118
    5ac2:	e7bc      	b.n	5a3e <SX1276OnDio1Irq+0x12>
                        SX1276.Settings.FskPacketHandler.Size = SX1276Read( REG_PAYLOADLENGTH );
    5ac4:	2032      	movs	r0, #50	; 0x32
    5ac6:	f003 f81c 	bl	8b02 <SX1276Read>
    5aca:	f8a4 0116 	strh.w	r0, [r4, #278]	; 0x116
    5ace:	e7e1      	b.n	5a94 <SX1276OnDio1Irq+0x68>
                    SX1276ReadFifo( ( RxTxBuffer + SX1276.Settings.FskPacketHandler.NbBytes ), SX1276.Settings.FskPacketHandler.Size - SX1276.Settings.FskPacketHandler.NbBytes );
    5ad0:	b2c9      	uxtb	r1, r1
    5ad2:	f003 f886 	bl	8be2 <SX1276ReadFifo>
                    SX1276.Settings.FskPacketHandler.NbBytes += ( SX1276.Settings.FskPacketHandler.Size - SX1276.Settings.FskPacketHandler.NbBytes );
    5ad6:	f8b5 3116 	ldrh.w	r3, [r5, #278]	; 0x116
    5ada:	e7f0      	b.n	5abe <SX1276OnDio1Irq+0x92>
            switch( SX1276.Settings.Modem )
    5adc:	f894 30e1 	ldrb.w	r3, [r4, #225]	; 0xe1
    5ae0:	2b00      	cmp	r3, #0
    5ae2:	d1ac      	bne.n	5a3e <SX1276OnDio1Irq+0x12>
                if( ( SX1276.Settings.FskPacketHandler.Size - SX1276.Settings.FskPacketHandler.NbBytes ) > SX1276.Settings.FskPacketHandler.ChunkSize )
    5ae4:	f8b4 2118 	ldrh.w	r2, [r4, #280]	; 0x118
    5ae8:	f8b4 3116 	ldrh.w	r3, [r4, #278]	; 0x116
    5aec:	f894 111b 	ldrb.w	r1, [r4, #283]	; 0x11b
    5af0:	480e      	ldr	r0, [pc, #56]	; (5b2c <SX1276OnDio1Irq+0x100>)
    5af2:	1a9b      	subs	r3, r3, r2
    5af4:	428b      	cmp	r3, r1
    5af6:	4410      	add	r0, r2
    5af8:	dd09      	ble.n	5b0e <SX1276OnDio1Irq+0xe2>
                    SX1276WriteFifo( ( RxTxBuffer + SX1276.Settings.FskPacketHandler.NbBytes ), SX1276.Settings.FskPacketHandler.ChunkSize );
    5afa:	f003 f86d 	bl	8bd8 <SX1276WriteFifo>
                    SX1276.Settings.FskPacketHandler.NbBytes += SX1276.Settings.FskPacketHandler.ChunkSize;
    5afe:	f894 311b 	ldrb.w	r3, [r4, #283]	; 0x11b
    5b02:	f8b4 2118 	ldrh.w	r2, [r4, #280]	; 0x118
    5b06:	4413      	add	r3, r2
                    SX1276.Settings.FskPacketHandler.NbBytes += SX1276.Settings.FskPacketHandler.Size - SX1276.Settings.FskPacketHandler.NbBytes;
    5b08:	f8a4 3118 	strh.w	r3, [r4, #280]	; 0x118
}
    5b0c:	e797      	b.n	5a3e <SX1276OnDio1Irq+0x12>
                    SX1276WriteFifo( RxTxBuffer + SX1276.Settings.FskPacketHandler.NbBytes, SX1276.Settings.FskPacketHandler.Size - SX1276.Settings.FskPacketHandler.NbBytes );
    5b0e:	b2d9      	uxtb	r1, r3
    5b10:	f003 f862 	bl	8bd8 <SX1276WriteFifo>
                    SX1276.Settings.FskPacketHandler.NbBytes += SX1276.Settings.FskPacketHandler.Size - SX1276.Settings.FskPacketHandler.NbBytes;
    5b14:	f8b4 3116 	ldrh.w	r3, [r4, #278]	; 0x116
    5b18:	e7f6      	b.n	5b08 <SX1276OnDio1Irq+0xdc>
    5b1a:	bf00      	nop
    5b1c:	20000734 	.word	0x20000734
    5b20:	2000071c 	.word	0x2000071c
    5b24:	20000700 	.word	0x20000700
    5b28:	20000704 	.word	0x20000704
    5b2c:	20000d9b 	.word	0x20000d9b

00005b30 <SX1276SetMaxPayloadLength>:
{
    5b30:	b538      	push	{r3, r4, r5, lr}
    5b32:	4605      	mov	r5, r0
    5b34:	460c      	mov	r4, r1
    SX1276SetModem( modem );
    5b36:	f7ff fce3 	bl	5500 <SX1276SetModem>
    switch( modem )
    5b3a:	b115      	cbz	r5, 5b42 <SX1276SetMaxPayloadLength+0x12>
    5b3c:	2d01      	cmp	r5, #1
    5b3e:	d00b      	beq.n	5b58 <SX1276SetMaxPayloadLength+0x28>
}
    5b40:	bd38      	pop	{r3, r4, r5, pc}
        if( SX1276.Settings.Fsk.FixLen == false )
    5b42:	4b07      	ldr	r3, [pc, #28]	; (5b60 <SX1276SetMaxPayloadLength+0x30>)
    5b44:	f893 30fe 	ldrb.w	r3, [r3, #254]	; 0xfe
    5b48:	2b00      	cmp	r3, #0
    5b4a:	d1f9      	bne.n	5b40 <SX1276SetMaxPayloadLength+0x10>
            SX1276Write( REG_PAYLOADLENGTH, max );
    5b4c:	4621      	mov	r1, r4
    5b4e:	2032      	movs	r0, #50	; 0x32
}
    5b50:	e8bd 4038 	ldmia.w	sp!, {r3, r4, r5, lr}
        SX1276Write( REG_LR_PAYLOADMAXLENGTH, max );
    5b54:	f002 bfca 	b.w	8aec <SX1276Write>
    5b58:	4621      	mov	r1, r4
    5b5a:	2023      	movs	r0, #35	; 0x23
    5b5c:	e7f8      	b.n	5b50 <SX1276SetMaxPayloadLength+0x20>
    5b5e:	bf00      	nop
    5b60:	20000734 	.word	0x20000734

00005b64 <SX1276SetPublicNetwork>:
{
    5b64:	b510      	push	{r4, lr}
    5b66:	4604      	mov	r4, r0
    SX1276SetModem( MODEM_LORA );
    5b68:	2001      	movs	r0, #1
    5b6a:	f7ff fcc9 	bl	5500 <SX1276SetModem>
    SX1276.Settings.LoRa.PublicNetwork = enable;
    5b6e:	4b06      	ldr	r3, [pc, #24]	; (5b88 <SX1276SetPublicNetwork+0x24>)
    5b70:	f883 4138 	strb.w	r4, [r3, #312]	; 0x138
    if( enable == true )
    5b74:	b12c      	cbz	r4, 5b82 <SX1276SetPublicNetwork+0x1e>
        SX1276Write( REG_LR_SYNCWORD, LORA_MAC_PUBLIC_SYNCWORD );
    5b76:	2134      	movs	r1, #52	; 0x34
}
    5b78:	e8bd 4010 	ldmia.w	sp!, {r4, lr}
        SX1276Write( REG_LR_SYNCWORD, LORA_MAC_PRIVATE_SYNCWORD );
    5b7c:	2039      	movs	r0, #57	; 0x39
    5b7e:	f002 bfb5 	b.w	8aec <SX1276Write>
    5b82:	2112      	movs	r1, #18
    5b84:	e7f8      	b.n	5b78 <SX1276SetPublicNetwork+0x14>
    5b86:	bf00      	nop
    5b88:	20000734 	.word	0x20000734

00005b8c <SX1276OnTimeoutIrq>:
{
    5b8c:	b570      	push	{r4, r5, r6, lr}
    switch( SX1276.Settings.State )
    5b8e:	4c2f      	ldr	r4, [pc, #188]	; (5c4c <SX1276OnTimeoutIrq+0xc0>)
    5b90:	f894 30e0 	ldrb.w	r3, [r4, #224]	; 0xe0
    5b94:	2b01      	cmp	r3, #1
    5b96:	4626      	mov	r6, r4
    5b98:	d002      	beq.n	5ba0 <SX1276OnTimeoutIrq+0x14>
    5b9a:	2b02      	cmp	r3, #2
    5b9c:	d030      	beq.n	5c00 <SX1276OnTimeoutIrq+0x74>
}
    5b9e:	bd70      	pop	{r4, r5, r6, pc}
        if( SX1276.Settings.Modem == MODEM_FSK )
    5ba0:	f894 30e1 	ldrb.w	r3, [r4, #225]	; 0xe1
    5ba4:	b9e3      	cbnz	r3, 5be0 <SX1276OnTimeoutIrq+0x54>
            SX1276.Settings.FskPacketHandler.PreambleDetected = false;
    5ba6:	f8a4 310c 	strh.w	r3, [r4, #268]	; 0x10c
            SX1276Write( REG_IRQFLAGS1, RF_IRQFLAGS1_RSSI |
    5baa:	210b      	movs	r1, #11
    5bac:	203e      	movs	r0, #62	; 0x3e
            SX1276.Settings.FskPacketHandler.NbBytes = 0;
    5bae:	f8a4 3118 	strh.w	r3, [r4, #280]	; 0x118
            SX1276.Settings.FskPacketHandler.Size = 0;
    5bb2:	f8a4 3116 	strh.w	r3, [r4, #278]	; 0x116
            SX1276Write( REG_IRQFLAGS1, RF_IRQFLAGS1_RSSI |
    5bb6:	f002 ff99 	bl	8aec <SX1276Write>
            SX1276Write( REG_IRQFLAGS2, RF_IRQFLAGS2_FIFOOVERRUN );
    5bba:	2110      	movs	r1, #16
    5bbc:	203f      	movs	r0, #63	; 0x3f
    5bbe:	f002 ff95 	bl	8aec <SX1276Write>
            if( SX1276.Settings.Fsk.RxContinuous == true )
    5bc2:	f894 3102 	ldrb.w	r3, [r4, #258]	; 0x102
    5bc6:	b1ab      	cbz	r3, 5bf4 <SX1276OnTimeoutIrq+0x68>
                SX1276Write( REG_RXCONFIG, SX1276Read( REG_RXCONFIG ) | RF_RXCONFIG_RESTARTRXWITHOUTPLLLOCK );
    5bc8:	200d      	movs	r0, #13
    5bca:	f002 ff9a 	bl	8b02 <SX1276Read>
    5bce:	f040 0140 	orr.w	r1, r0, #64	; 0x40
    5bd2:	b2c9      	uxtb	r1, r1
    5bd4:	200d      	movs	r0, #13
    5bd6:	f002 ff89 	bl	8aec <SX1276Write>
                TimerStart( &RxTimeoutSyncWord );
    5bda:	481d      	ldr	r0, [pc, #116]	; (5c50 <SX1276OnTimeoutIrq+0xc4>)
    5bdc:	f000 f84a 	bl	5c74 <TimerStart>
        if( ( RadioEvents != NULL ) && ( RadioEvents->RxTimeout != NULL ) )
    5be0:	4b1c      	ldr	r3, [pc, #112]	; (5c54 <SX1276OnTimeoutIrq+0xc8>)
    5be2:	681b      	ldr	r3, [r3, #0]
    5be4:	2b00      	cmp	r3, #0
    5be6:	d0da      	beq.n	5b9e <SX1276OnTimeoutIrq+0x12>
    5be8:	68db      	ldr	r3, [r3, #12]
        if( ( RadioEvents != NULL ) && ( RadioEvents->TxTimeout != NULL ) )
    5bea:	2b00      	cmp	r3, #0
    5bec:	d0d7      	beq.n	5b9e <SX1276OnTimeoutIrq+0x12>
}
    5bee:	e8bd 4070 	ldmia.w	sp!, {r4, r5, r6, lr}
            RadioEvents->TxTimeout( );
    5bf2:	4718      	bx	r3
                TimerStop( &RxTimeoutSyncWord );
    5bf4:	4816      	ldr	r0, [pc, #88]	; (5c50 <SX1276OnTimeoutIrq+0xc4>)
                SX1276.Settings.State = RF_IDLE;
    5bf6:	f884 30e0 	strb.w	r3, [r4, #224]	; 0xe0
                TimerStop( &RxTimeoutSyncWord );
    5bfa:	f000 f8b1 	bl	5d60 <TimerStop>
    5bfe:	e7ef      	b.n	5be0 <SX1276OnTimeoutIrq+0x54>
        SX1276Reset( );
    5c00:	f7ff f890 	bl	4d24 <SX1276Reset>
        RxChainCalibration( );
    5c04:	f7fb f8d0 	bl	da8 <RxChainCalibration>
        SX1276SetOpMode( RF_OPMODE_SLEEP );
    5c08:	2000      	movs	r0, #0
    5c0a:	f002 ff85 	bl	8b18 <SX1276SetOpMode>
        for( uint8_t i = 0; i < sizeof( RadioRegsInit ) / sizeof( RadioRegisters_t ); i++ )
    5c0e:	4c12      	ldr	r4, [pc, #72]	; (5c58 <SX1276OnTimeoutIrq+0xcc>)
        SX1276SetOpMode( RF_OPMODE_SLEEP );
    5c10:	2500      	movs	r5, #0
            SX1276SetModem( RadioRegsInit[i].Modem );
    5c12:	7820      	ldrb	r0, [r4, #0]
    5c14:	f7ff fc74 	bl	5500 <SX1276SetModem>
            SX1276Write( RadioRegsInit[i].Addr, RadioRegsInit[i].Value );
    5c18:	3501      	adds	r5, #1
    5c1a:	78a1      	ldrb	r1, [r4, #2]
    5c1c:	7860      	ldrb	r0, [r4, #1]
    5c1e:	f002 ff65 	bl	8aec <SX1276Write>
        for( uint8_t i = 0; i < sizeof( RadioRegsInit ) / sizeof( RadioRegisters_t ); i++ )
    5c22:	2d10      	cmp	r5, #16
    5c24:	f104 0403 	add.w	r4, r4, #3
    5c28:	d1f3      	bne.n	5c12 <SX1276OnTimeoutIrq+0x86>
        SX1276SetModem( MODEM_FSK );
    5c2a:	2000      	movs	r0, #0
    5c2c:	f7ff fc68 	bl	5500 <SX1276SetModem>
        SX1276SetPublicNetwork( SX1276.Settings.LoRa.PublicNetwork );
    5c30:	f896 0138 	ldrb.w	r0, [r6, #312]	; 0x138
    5c34:	f7ff ff96 	bl	5b64 <SX1276SetPublicNetwork>
        SX1276.Settings.State = RF_IDLE;
    5c38:	2300      	movs	r3, #0
    5c3a:	f886 30e0 	strb.w	r3, [r6, #224]	; 0xe0
        if( ( RadioEvents != NULL ) && ( RadioEvents->TxTimeout != NULL ) )
    5c3e:	4b05      	ldr	r3, [pc, #20]	; (5c54 <SX1276OnTimeoutIrq+0xc8>)
    5c40:	681b      	ldr	r3, [r3, #0]
    5c42:	2b00      	cmp	r3, #0
    5c44:	d0ab      	beq.n	5b9e <SX1276OnTimeoutIrq+0x12>
    5c46:	685b      	ldr	r3, [r3, #4]
    5c48:	e7cf      	b.n	5bea <SX1276OnTimeoutIrq+0x5e>
    5c4a:	bf00      	nop
    5c4c:	20000734 	.word	0x20000734
    5c50:	20000704 	.word	0x20000704
    5c54:	20000700 	.word	0x20000700
    5c58:	00009f66 	.word	0x00009f66

00005c5c <TimerInsertNewHeadTimer>:
    obj->Next = NULL;
}

static void TimerInsertNewHeadTimer( TimerEvent_t *obj )
{
    TimerEvent_t* cur = TimerListHead;
    5c5c:	4b04      	ldr	r3, [pc, #16]	; (5c70 <TimerInsertNewHeadTimer+0x14>)
    5c5e:	681a      	ldr	r2, [r3, #0]

    if( cur != NULL )
    5c60:	b10a      	cbz	r2, 5c66 <TimerInsertNewHeadTimer+0xa>
    {
        cur->IsNext2Expire = false;
    5c62:	2100      	movs	r1, #0
    5c64:	7251      	strb	r1, [r2, #9]
    }

    obj->Next = cur;
    5c66:	6142      	str	r2, [r0, #20]
    TimerListHead = obj;
    5c68:	6018      	str	r0, [r3, #0]
    TimerSetTimeout( TimerListHead );
    5c6a:	f002 bfc4 	b.w	8bf6 <TimerSetTimeout>
    5c6e:	bf00      	nop
    5c70:	20000890 	.word	0x20000890

00005c74 <TimerStart>:
{
    5c74:	b537      	push	{r0, r1, r2, r4, r5, lr}
    5c76:	4604      	mov	r4, r0
    CRITICAL_SECTION_BEGIN( );
    5c78:	a801      	add	r0, sp, #4
    5c7a:	f002 fefd 	bl	8a78 <BoardCriticalSectionBegin>
    if( ( obj == NULL ) || ( TimerExists( obj ) == true ) )
    5c7e:	b16c      	cbz	r4, 5c9c <TimerStart+0x28>
    CRITICAL_SECTION_END( );
}

static bool TimerExists( TimerEvent_t *obj )
{
    TimerEvent_t* cur = TimerListHead;
    5c80:	4d17      	ldr	r5, [pc, #92]	; (5ce0 <TimerStart+0x6c>)
    5c82:	6829      	ldr	r1, [r5, #0]
    5c84:	460a      	mov	r2, r1

    while( cur != NULL )
    5c86:	b972      	cbnz	r2, 5ca6 <TimerStart+0x32>
    obj->Timestamp = obj->ReloadValue;
    5c88:	6863      	ldr	r3, [r4, #4]
    5c8a:	6023      	str	r3, [r4, #0]
    obj->IsStarted = true;
    5c8c:	2301      	movs	r3, #1
    5c8e:	8123      	strh	r3, [r4, #8]
    if( TimerListHead == NULL )
    5c90:	b969      	cbnz	r1, 5cae <TimerStart+0x3a>
        RtcSetTimerContext( );
    5c92:	f7fe feb5 	bl	4a00 <RtcSetTimerContext>
            TimerInsertNewHeadTimer( obj );
    5c96:	4620      	mov	r0, r4
    5c98:	f7ff ffe0 	bl	5c5c <TimerInsertNewHeadTimer>
        CRITICAL_SECTION_END( );
    5c9c:	a801      	add	r0, sp, #4
    5c9e:	f002 fef5 	bl	8a8c <BoardCriticalSectionEnd>
}
    5ca2:	b003      	add	sp, #12
    5ca4:	bd30      	pop	{r4, r5, pc}
    {
        if( cur == obj )
    5ca6:	4294      	cmp	r4, r2
    5ca8:	d0f8      	beq.n	5c9c <TimerStart+0x28>
        {
            return true;
        }
        cur = cur->Next;
    5caa:	6952      	ldr	r2, [r2, #20]
    5cac:	e7eb      	b.n	5c86 <TimerStart+0x12>
        elapsedTime = RtcGetTimerElapsedTime( );
    5cae:	f7fe fe7b 	bl	49a8 <RtcGetTimerElapsedTime>
        obj->Timestamp += elapsedTime;
    5cb2:	6823      	ldr	r3, [r4, #0]
    5cb4:	4418      	add	r0, r3
        if( obj->Timestamp < TimerListHead->Timestamp )
    5cb6:	682b      	ldr	r3, [r5, #0]
        obj->Timestamp += elapsedTime;
    5cb8:	6020      	str	r0, [r4, #0]
        if( obj->Timestamp < TimerListHead->Timestamp )
    5cba:	681a      	ldr	r2, [r3, #0]
    5cbc:	4290      	cmp	r0, r2
    5cbe:	d3ea      	bcc.n	5c96 <TimerStart+0x22>
    TimerEvent_t* next = TimerListHead->Next;
    5cc0:	695a      	ldr	r2, [r3, #20]
    while( cur->Next != NULL )
    5cc2:	6959      	ldr	r1, [r3, #20]
    5cc4:	b911      	cbnz	r1, 5ccc <TimerStart+0x58>
    cur->Next = obj;
    5cc6:	615c      	str	r4, [r3, #20]
    obj->Next = NULL;
    5cc8:	6161      	str	r1, [r4, #20]
    5cca:	e7e7      	b.n	5c9c <TimerStart+0x28>
        if( obj->Timestamp > next->Timestamp )
    5ccc:	6811      	ldr	r1, [r2, #0]
    5cce:	4288      	cmp	r0, r1
    5cd0:	d902      	bls.n	5cd8 <TimerStart+0x64>
            next = next->Next;
    5cd2:	4613      	mov	r3, r2
    5cd4:	6952      	ldr	r2, [r2, #20]
    5cd6:	e7f4      	b.n	5cc2 <TimerStart+0x4e>
            cur->Next = obj;
    5cd8:	615c      	str	r4, [r3, #20]
            obj->Next = next;
    5cda:	6162      	str	r2, [r4, #20]
            return;
    5cdc:	e7de      	b.n	5c9c <TimerStart+0x28>
    5cde:	bf00      	nop
    5ce0:	20000890 	.word	0x20000890

00005ce4 <TimerIrqHandler>:
{
    5ce4:	b570      	push	{r4, r5, r6, lr}
    uint32_t old =  RtcGetTimerContext( );
    5ce6:	f7fe fe93 	bl	4a10 <RtcGetTimerContext>
    if( TimerListHead != NULL )
    5cea:	4c1c      	ldr	r4, [pc, #112]	; (5d5c <TimerIrqHandler+0x78>)
    uint32_t old =  RtcGetTimerContext( );
    5cec:	4605      	mov	r5, r0
    uint32_t now =  RtcSetTimerContext( );
    5cee:	f7fe fe87 	bl	4a00 <RtcSetTimerContext>
    if( TimerListHead != NULL )
    5cf2:	6822      	ldr	r2, [r4, #0]
    5cf4:	b9aa      	cbnz	r2, 5d22 <TimerIrqHandler+0x3e>
        cur->IsStarted = false;
    5cf6:	2600      	movs	r6, #0
    while( ( TimerListHead != NULL ) && ( TimerListHead->Timestamp < RtcGetTimerElapsedTime( ) ) )
    5cf8:	6823      	ldr	r3, [r4, #0]
    5cfa:	b9db      	cbnz	r3, 5d34 <TimerIrqHandler+0x50>
    if( ( TimerListHead != NULL ) && ( TimerListHead->IsNext2Expire == false ) )
    5cfc:	6820      	ldr	r0, [r4, #0]
    5cfe:	bb30      	cbnz	r0, 5d4e <TimerIrqHandler+0x6a>
}
    5d00:	bd70      	pop	{r4, r5, r6, pc}
            if( next->Timestamp > deltaContext )
    5d02:	680b      	ldr	r3, [r1, #0]
    5d04:	42b3      	cmp	r3, r6
                next->Timestamp -= deltaContext;
    5d06:	bf86      	itte	hi
    5d08:	195b      	addhi	r3, r3, r5
    5d0a:	1a1b      	subhi	r3, r3, r0
                next->Timestamp = 0;
    5d0c:	2300      	movls	r3, #0
    5d0e:	600b      	str	r3, [r1, #0]
        for( cur = TimerListHead; cur->Next != NULL; cur = cur->Next )
    5d10:	6949      	ldr	r1, [r1, #20]
    5d12:	2900      	cmp	r1, #0
    5d14:	d1f5      	bne.n	5d02 <TimerIrqHandler+0x1e>
        TimerListHead = TimerListHead->Next;
    5d16:	6953      	ldr	r3, [r2, #20]
    5d18:	6023      	str	r3, [r4, #0]
        ExecuteCallBack( cur->Callback, cur->Context );
    5d1a:	68d3      	ldr	r3, [r2, #12]
        cur->IsStarted = false;
    5d1c:	7211      	strb	r1, [r2, #8]
        ExecuteCallBack( cur->Callback, cur->Context );
    5d1e:	b91b      	cbnz	r3, 5d28 <TimerIrqHandler+0x44>
    5d20:	e7fe      	b.n	5d20 <TimerIrqHandler+0x3c>
    5d22:	4611      	mov	r1, r2
    uint32_t deltaContext = now - old; // intentional wrap around
    5d24:	1b46      	subs	r6, r0, r5
    5d26:	e7f3      	b.n	5d10 <TimerIrqHandler+0x2c>
        ExecuteCallBack( cur->Callback, cur->Context );
    5d28:	6910      	ldr	r0, [r2, #16]
    5d2a:	4798      	blx	r3
    5d2c:	e7e3      	b.n	5cf6 <TimerIrqHandler+0x12>
        ExecuteCallBack( cur->Callback, cur->Context );
    5d2e:	6918      	ldr	r0, [r3, #16]
    5d30:	4790      	blx	r2
    5d32:	e7e1      	b.n	5cf8 <TimerIrqHandler+0x14>
    while( ( TimerListHead != NULL ) && ( TimerListHead->Timestamp < RtcGetTimerElapsedTime( ) ) )
    5d34:	681d      	ldr	r5, [r3, #0]
    5d36:	f7fe fe37 	bl	49a8 <RtcGetTimerElapsedTime>
    5d3a:	4285      	cmp	r5, r0
    5d3c:	d2de      	bcs.n	5cfc <TimerIrqHandler+0x18>
        cur = TimerListHead;
    5d3e:	6823      	ldr	r3, [r4, #0]
        TimerListHead = TimerListHead->Next;
    5d40:	695a      	ldr	r2, [r3, #20]
    5d42:	6022      	str	r2, [r4, #0]
        ExecuteCallBack( cur->Callback, cur->Context );
    5d44:	68da      	ldr	r2, [r3, #12]
        cur->IsStarted = false;
    5d46:	721e      	strb	r6, [r3, #8]
        ExecuteCallBack( cur->Callback, cur->Context );
    5d48:	2a00      	cmp	r2, #0
    5d4a:	d1f0      	bne.n	5d2e <TimerIrqHandler+0x4a>
    5d4c:	e7fe      	b.n	5d4c <TimerIrqHandler+0x68>
    if( ( TimerListHead != NULL ) && ( TimerListHead->IsNext2Expire == false ) )
    5d4e:	7a43      	ldrb	r3, [r0, #9]
    5d50:	2b00      	cmp	r3, #0
    5d52:	d1d5      	bne.n	5d00 <TimerIrqHandler+0x1c>
}
    5d54:	e8bd 4070 	ldmia.w	sp!, {r4, r5, r6, lr}
        TimerSetTimeout( TimerListHead );
    5d58:	f002 bf4d 	b.w	8bf6 <TimerSetTimeout>
    5d5c:	20000890 	.word	0x20000890

00005d60 <TimerStop>:
{
    5d60:	b537      	push	{r0, r1, r2, r4, r5, lr}
    TimerEvent_t* prev = TimerListHead;
    5d62:	4d14      	ldr	r5, [pc, #80]	; (5db4 <TimerStop+0x54>)
{
    5d64:	4604      	mov	r4, r0
    CRITICAL_SECTION_BEGIN( );
    5d66:	a801      	add	r0, sp, #4
    5d68:	f002 fe86 	bl	8a78 <BoardCriticalSectionBegin>
    TimerEvent_t* prev = TimerListHead;
    5d6c:	682b      	ldr	r3, [r5, #0]
    if( ( TimerListHead == NULL ) || ( obj == NULL ) )
    5d6e:	b103      	cbz	r3, 5d72 <TimerStop+0x12>
    5d70:	b924      	cbnz	r4, 5d7c <TimerStop+0x1c>
        CRITICAL_SECTION_END( );
    5d72:	a801      	add	r0, sp, #4
    5d74:	f002 fe8a 	bl	8a8c <BoardCriticalSectionEnd>
}
    5d78:	b003      	add	sp, #12
    5d7a:	bd30      	pop	{r4, r5, pc}
    obj->IsStarted = false;
    5d7c:	2200      	movs	r2, #0
    if( TimerListHead == obj ) // Stop the Head
    5d7e:	42a3      	cmp	r3, r4
    obj->IsStarted = false;
    5d80:	7222      	strb	r2, [r4, #8]
    if( TimerListHead == obj ) // Stop the Head
    5d82:	d10d      	bne.n	5da0 <TimerStop+0x40>
        if( TimerListHead->IsNext2Expire == true ) // The head is already running
    5d84:	7a59      	ldrb	r1, [r3, #9]
    5d86:	695c      	ldr	r4, [r3, #20]
    5d88:	b141      	cbz	r1, 5d9c <TimerStop+0x3c>
            TimerListHead->IsNext2Expire = false;
    5d8a:	725a      	strb	r2, [r3, #9]
            if( TimerListHead->Next != NULL )
    5d8c:	b124      	cbz	r4, 5d98 <TimerStop+0x38>
                TimerSetTimeout( TimerListHead );
    5d8e:	4620      	mov	r0, r4
                TimerListHead = TimerListHead->Next;
    5d90:	602c      	str	r4, [r5, #0]
                TimerSetTimeout( TimerListHead );
    5d92:	f002 ff30 	bl	8bf6 <TimerSetTimeout>
    5d96:	e7ec      	b.n	5d72 <TimerStop+0x12>
                RtcStopAlarm( );
    5d98:	f7fe fe10 	bl	49bc <RtcStopAlarm>
                TimerListHead = NULL;
    5d9c:	602c      	str	r4, [r5, #0]
    5d9e:	e7e8      	b.n	5d72 <TimerStop+0x12>
                cur = cur->Next;
    5da0:	461a      	mov	r2, r3
    5da2:	695b      	ldr	r3, [r3, #20]
        while( cur != NULL )
    5da4:	2b00      	cmp	r3, #0
    5da6:	d0e4      	beq.n	5d72 <TimerStop+0x12>
            if( cur == obj )
    5da8:	429c      	cmp	r4, r3
    5daa:	d1f9      	bne.n	5da0 <TimerStop+0x40>
                if( cur->Next != NULL )
    5dac:	6963      	ldr	r3, [r4, #20]
                    prev->Next = cur;
    5dae:	6153      	str	r3, [r2, #20]
    5db0:	e7df      	b.n	5d72 <TimerStop+0x12>
    5db2:	bf00      	nop
    5db4:	20000890 	.word	0x20000890

00005db8 <uart_nrfx_poll_in>:
    nrf_event_readback((uint8_t *)p_reg + (uint32_t)event);
}

NRF_STATIC_INLINE bool nrf_uart_event_check(NRF_UART_Type const * p_reg, nrf_uart_event_t event)
{
    return (bool)*(volatile uint32_t *)((uint8_t *)p_reg + (uint32_t)event);
    5db8:	4b06      	ldr	r3, [pc, #24]	; (5dd4 <uart_nrfx_poll_in+0x1c>)
    5dba:	681a      	ldr	r2, [r3, #0]
 * @return 0 if a character arrived, -1 if the input buffer if empty.
 */

static int uart_nrfx_poll_in(const struct device *dev, unsigned char *c)
{
	if (!nrf_uart_event_check(uart0_addr, NRF_UART_EVENT_RXDRDY)) {
    5dbc:	b13a      	cbz	r2, 5dce <uart_nrfx_poll_in+0x16>
    *((volatile uint32_t *)((uint8_t *)p_reg + (uint32_t)event)) = 0x0UL;
    5dbe:	2000      	movs	r0, #0
    5dc0:	6018      	str	r0, [r3, #0]
    5dc2:	681b      	ldr	r3, [r3, #0]
    nrf_uart_hwfc_pins_set(p_reg, NRF_UART_PSEL_DISCONNECTED, NRF_UART_PSEL_DISCONNECTED);
}

NRF_STATIC_INLINE uint8_t nrf_uart_rxd_get(NRF_UART_Type const * p_reg)
{
    return p_reg->RXD;
    5dc4:	4b04      	ldr	r3, [pc, #16]	; (5dd8 <uart_nrfx_poll_in+0x20>)
    5dc6:	f8d3 3518 	ldr.w	r3, [r3, #1304]	; 0x518
    5dca:	700b      	strb	r3, [r1, #0]
	nrf_uart_event_clear(uart0_addr, NRF_UART_EVENT_RXDRDY);

	/* got a character */
	*c = nrf_uart_rxd_get(uart0_addr);

	return 0;
    5dcc:	4770      	bx	lr
		return -1;
    5dce:	f04f 30ff 	mov.w	r0, #4294967295	; 0xffffffff
}
    5dd2:	4770      	bx	lr
    5dd4:	40002108 	.word	0x40002108
    5dd8:	40002000 	.word	0x40002000

00005ddc <uart_nrfx_err_check>:
    uint32_t errsrc_mask = p_reg->ERRORSRC;
    5ddc:	4b02      	ldr	r3, [pc, #8]	; (5de8 <uart_nrfx_err_check+0xc>)
    5dde:	f8d3 0480 	ldr.w	r0, [r3, #1152]	; 0x480
    p_reg->ERRORSRC = errsrc_mask;
    5de2:	f8c3 0480 	str.w	r0, [r3, #1152]	; 0x480
/** Console I/O function */
static int uart_nrfx_err_check(const struct device *dev)
{
	/* register bitfields maps to the defines in uart.h */
	return nrf_uart_errorsrc_get_and_clear(uart0_addr);
}
    5de6:	4770      	bx	lr
    5de8:	40002000 	.word	0x40002000

00005dec <uart_nrfx_configure>:

static int uart_nrfx_configure(const struct device *dev,
			       const struct uart_config *cfg)
{
    5dec:	b530      	push	{r4, r5, lr}
	nrf_uart_config_t uart_cfg;

#if defined(UART_CONFIG_STOP_Msk)
	switch (cfg->stop_bits) {
    5dee:	794b      	ldrb	r3, [r1, #5]
    5df0:	2b01      	cmp	r3, #1
    5df2:	d022      	beq.n	5e3a <uart_nrfx_configure+0x4e>
    5df4:	2b03      	cmp	r3, #3
    5df6:	d11d      	bne.n	5e34 <uart_nrfx_configure+0x48>
	case UART_CFG_STOP_BITS_1:
		uart_cfg.stop = NRF_UART_STOP_ONE;
		break;
	case UART_CFG_STOP_BITS_2:
		uart_cfg.stop = NRF_UART_STOP_TWO;
    5df8:	2210      	movs	r2, #16
	if (cfg->stop_bits != UART_CFG_STOP_BITS_1) {
		return -ENOTSUP;
	}
#endif

	if (cfg->data_bits != UART_CFG_DATA_BITS_8) {
    5dfa:	798b      	ldrb	r3, [r1, #6]
    5dfc:	2b03      	cmp	r3, #3
    5dfe:	d119      	bne.n	5e34 <uart_nrfx_configure+0x48>
		return -ENOTSUP;
	}

	switch (cfg->flow_ctrl) {
    5e00:	79cb      	ldrb	r3, [r1, #7]
    5e02:	b9bb      	cbnz	r3, 5e34 <uart_nrfx_configure+0x48>
	}

#if defined(UART_CONFIG_PARITYTYPE_Msk)
	uart_cfg.paritytype = NRF_UART_PARITYTYPE_EVEN;
#endif
	switch (cfg->parity) {
    5e04:	790c      	ldrb	r4, [r1, #4]
    5e06:	b114      	cbz	r4, 5e0e <uart_nrfx_configure+0x22>
    5e08:	2c02      	cmp	r4, #2
    5e0a:	d113      	bne.n	5e34 <uart_nrfx_configure+0x48>
	case UART_CFG_PARITY_NONE:
		uart_cfg.parity = NRF_UART_PARITY_EXCLUDED;
		break;
	case UART_CFG_PARITY_EVEN:
		uart_cfg.parity = NRF_UART_PARITY_INCLUDED;
    5e0c:	240e      	movs	r4, #14
#endif
	default:
		return -ENOTSUP;
	}

	if (baudrate_set(dev, cfg->baudrate) != 0) {
    5e0e:	680b      	ldr	r3, [r1, #0]
	switch (baudrate) {
    5e10:	f5b3 4f16 	cmp.w	r3, #38400	; 0x9600
    5e14:	d061      	beq.n	5eda <uart_nrfx_configure+0xee>
    5e16:	d82d      	bhi.n	5e74 <uart_nrfx_configure+0x88>
    5e18:	f5b3 5f16 	cmp.w	r3, #9600	; 0x2580
    5e1c:	d05f      	beq.n	5ede <uart_nrfx_configure+0xf2>
    5e1e:	d816      	bhi.n	5e4e <uart_nrfx_configure+0x62>
    5e20:	f5b3 6f96 	cmp.w	r3, #1200	; 0x4b0
    5e24:	d05d      	beq.n	5ee2 <uart_nrfx_configure+0xf6>
    5e26:	d80a      	bhi.n	5e3e <uart_nrfx_configure+0x52>
    5e28:	f5b3 7f96 	cmp.w	r3, #300	; 0x12c
    5e2c:	d05c      	beq.n	5ee8 <uart_nrfx_configure+0xfc>
    5e2e:	f5b3 7f16 	cmp.w	r3, #600	; 0x258
    5e32:	d05c      	beq.n	5eee <uart_nrfx_configure+0x102>
    5e34:	f06f 0085 	mvn.w	r0, #133	; 0x85
    5e38:	e04e      	b.n	5ed8 <uart_nrfx_configure+0xec>
	switch (cfg->stop_bits) {
    5e3a:	2200      	movs	r2, #0
    5e3c:	e7dd      	b.n	5dfa <uart_nrfx_configure+0xe>
	switch (baudrate) {
    5e3e:	f5b3 6f16 	cmp.w	r3, #2400	; 0x960
    5e42:	d057      	beq.n	5ef4 <uart_nrfx_configure+0x108>
    5e44:	f5b3 5f96 	cmp.w	r3, #4800	; 0x12c0
    5e48:	d1f4      	bne.n	5e34 <uart_nrfx_configure+0x48>
		nrf_baudrate = NRF_UART_BAUDRATE_4800;
    5e4a:	4b34      	ldr	r3, [pc, #208]	; (5f1c <uart_nrfx_configure+0x130>)
    5e4c:	e039      	b.n	5ec2 <uart_nrfx_configure+0xd6>
	switch (baudrate) {
    5e4e:	f5b3 4fe1 	cmp.w	r3, #28800	; 0x7080
    5e52:	d052      	beq.n	5efa <uart_nrfx_configure+0x10e>
    5e54:	d807      	bhi.n	5e66 <uart_nrfx_configure+0x7a>
    5e56:	f5b3 5f61 	cmp.w	r3, #14400	; 0x3840
    5e5a:	d050      	beq.n	5efe <uart_nrfx_configure+0x112>
    5e5c:	f5b3 4f96 	cmp.w	r3, #19200	; 0x4b00
    5e60:	d1e8      	bne.n	5e34 <uart_nrfx_configure+0x48>
		nrf_baudrate = NRF_UART_BAUDRATE_19200;
    5e62:	4b2f      	ldr	r3, [pc, #188]	; (5f20 <uart_nrfx_configure+0x134>)
    5e64:	e02d      	b.n	5ec2 <uart_nrfx_configure+0xd6>
	switch (baudrate) {
    5e66:	f647 2512 	movw	r5, #31250	; 0x7a12
    5e6a:	42ab      	cmp	r3, r5
    5e6c:	d1e2      	bne.n	5e34 <uart_nrfx_configure+0x48>
		nrf_baudrate = NRF_UART_BAUDRATE_31250;
    5e6e:	f44f 0300 	mov.w	r3, #8388608	; 0x800000
    5e72:	e026      	b.n	5ec2 <uart_nrfx_configure+0xd6>
	switch (baudrate) {
    5e74:	f5b3 3f61 	cmp.w	r3, #230400	; 0x38400
    5e78:	d044      	beq.n	5f04 <uart_nrfx_configure+0x118>
    5e7a:	d811      	bhi.n	5ea0 <uart_nrfx_configure+0xb4>
    5e7c:	f5b3 3f96 	cmp.w	r3, #76800	; 0x12c00
    5e80:	d042      	beq.n	5f08 <uart_nrfx_configure+0x11c>
    5e82:	d808      	bhi.n	5e96 <uart_nrfx_configure+0xaa>
    5e84:	f64d 25c0 	movw	r5, #56000	; 0xdac0
    5e88:	42ab      	cmp	r3, r5
    5e8a:	d03f      	beq.n	5f0c <uart_nrfx_configure+0x120>
    5e8c:	f5b3 4f61 	cmp.w	r3, #57600	; 0xe100
    5e90:	d1d0      	bne.n	5e34 <uart_nrfx_configure+0x48>
		nrf_baudrate = NRF_UART_BAUDRATE_57600;
    5e92:	4b24      	ldr	r3, [pc, #144]	; (5f24 <uart_nrfx_configure+0x138>)
    5e94:	e015      	b.n	5ec2 <uart_nrfx_configure+0xd6>
	switch (baudrate) {
    5e96:	f5b3 3fe1 	cmp.w	r3, #115200	; 0x1c200
    5e9a:	d1cb      	bne.n	5e34 <uart_nrfx_configure+0x48>
		nrf_baudrate = NRF_UART_BAUDRATE_115200;
    5e9c:	4b22      	ldr	r3, [pc, #136]	; (5f28 <uart_nrfx_configure+0x13c>)
    5e9e:	e010      	b.n	5ec2 <uart_nrfx_configure+0xd6>
	switch (baudrate) {
    5ea0:	f5b3 2f61 	cmp.w	r3, #921600	; 0xe1000
    5ea4:	d035      	beq.n	5f12 <uart_nrfx_configure+0x126>
    5ea6:	d807      	bhi.n	5eb8 <uart_nrfx_configure+0xcc>
    5ea8:	4d20      	ldr	r5, [pc, #128]	; (5f2c <uart_nrfx_configure+0x140>)
    5eaa:	42ab      	cmp	r3, r5
    5eac:	d033      	beq.n	5f16 <uart_nrfx_configure+0x12a>
    5eae:	f5b3 2fe1 	cmp.w	r3, #460800	; 0x70800
    5eb2:	d1bf      	bne.n	5e34 <uart_nrfx_configure+0x48>
		nrf_baudrate = NRF_UART_BAUDRATE_460800;
    5eb4:	4b1e      	ldr	r3, [pc, #120]	; (5f30 <uart_nrfx_configure+0x144>)
    5eb6:	e004      	b.n	5ec2 <uart_nrfx_configure+0xd6>
	switch (baudrate) {
    5eb8:	4d1e      	ldr	r5, [pc, #120]	; (5f34 <uart_nrfx_configure+0x148>)
    5eba:	42ab      	cmp	r3, r5
    5ebc:	d1ba      	bne.n	5e34 <uart_nrfx_configure+0x48>
		nrf_baudrate = NRF_UART_BAUDRATE_1000000;
    5ebe:	f04f 5380 	mov.w	r3, #268435456	; 0x10000000
                    | (uint32_t)p_cfg->hwfc;
}

NRF_STATIC_INLINE void nrf_uart_baudrate_set(NRF_UART_Type * p_reg, nrf_uart_baudrate_t baudrate)
{
    p_reg->BAUDRATE = baudrate;
    5ec2:	4d1d      	ldr	r5, [pc, #116]	; (5f38 <uart_nrfx_configure+0x14c>)
                    | (uint32_t)p_cfg->hwfc;
    5ec4:	4322      	orrs	r2, r4
    p_reg->BAUDRATE = baudrate;
    5ec6:	f8c5 3524 	str.w	r3, [r5, #1316]	; 0x524
    p_reg->CONFIG = (uint32_t)p_cfg->parity
    5eca:	f8c5 256c 	str.w	r2, [r5, #1388]	; 0x56c
		return -ENOTSUP;
	}

	nrf_uart_configure(uart0_addr, &uart_cfg);

	get_dev_data(dev)->uart_config = *cfg;
    5ece:	6903      	ldr	r3, [r0, #16]
    5ed0:	c903      	ldmia	r1, {r0, r1}
    5ed2:	e883 0003 	stmia.w	r3, {r0, r1}

	return 0;
    5ed6:	2000      	movs	r0, #0
}
    5ed8:	bd30      	pop	{r4, r5, pc}
		nrf_baudrate = NRF_UART_BAUDRATE_38400;
    5eda:	4b18      	ldr	r3, [pc, #96]	; (5f3c <uart_nrfx_configure+0x150>)
    5edc:	e7f1      	b.n	5ec2 <uart_nrfx_configure+0xd6>
		nrf_baudrate = NRF_UART_BAUDRATE_9600;
    5ede:	4b18      	ldr	r3, [pc, #96]	; (5f40 <uart_nrfx_configure+0x154>)
    5ee0:	e7ef      	b.n	5ec2 <uart_nrfx_configure+0xd6>
		nrf_baudrate = NRF_UART_BAUDRATE_1200;
    5ee2:	f44f 239e 	mov.w	r3, #323584	; 0x4f000
    5ee6:	e7ec      	b.n	5ec2 <uart_nrfx_configure+0xd6>
		nrf_baudrate = 0x00014000;
    5ee8:	f44f 33a0 	mov.w	r3, #81920	; 0x14000
    5eec:	e7e9      	b.n	5ec2 <uart_nrfx_configure+0xd6>
	switch (baudrate) {
    5eee:	f44f 331c 	mov.w	r3, #159744	; 0x27000
    5ef2:	e7e6      	b.n	5ec2 <uart_nrfx_configure+0xd6>
		nrf_baudrate = NRF_UART_BAUDRATE_2400;
    5ef4:	f44f 231d 	mov.w	r3, #643072	; 0x9d000
    5ef8:	e7e3      	b.n	5ec2 <uart_nrfx_configure+0xd6>
		nrf_baudrate = NRF_UART_BAUDRATE_28800;
    5efa:	4b12      	ldr	r3, [pc, #72]	; (5f44 <uart_nrfx_configure+0x158>)
    5efc:	e7e1      	b.n	5ec2 <uart_nrfx_configure+0xd6>
		nrf_baudrate = NRF_UART_BAUDRATE_14400;
    5efe:	f44f 136c 	mov.w	r3, #3866624	; 0x3b0000
    5f02:	e7de      	b.n	5ec2 <uart_nrfx_configure+0xd6>
		nrf_baudrate = NRF_UART_BAUDRATE_230400;
    5f04:	4b10      	ldr	r3, [pc, #64]	; (5f48 <uart_nrfx_configure+0x15c>)
    5f06:	e7dc      	b.n	5ec2 <uart_nrfx_configure+0xd6>
		nrf_baudrate = NRF_UART_BAUDRATE_76800;
    5f08:	4b10      	ldr	r3, [pc, #64]	; (5f4c <uart_nrfx_configure+0x160>)
    5f0a:	e7da      	b.n	5ec2 <uart_nrfx_configure+0xd6>
		nrf_baudrate = NRF_UART_BAUDRATE_56000;
    5f0c:	f44f 0365 	mov.w	r3, #15007744	; 0xe50000
    5f10:	e7d7      	b.n	5ec2 <uart_nrfx_configure+0xd6>
		nrf_baudrate = NRF_UART_BAUDRATE_921600;
    5f12:	4b0f      	ldr	r3, [pc, #60]	; (5f50 <uart_nrfx_configure+0x164>)
    5f14:	e7d5      	b.n	5ec2 <uart_nrfx_configure+0xd6>
		nrf_baudrate = NRF_UART_BAUDRATE_250000;
    5f16:	f04f 6380 	mov.w	r3, #67108864	; 0x4000000
    5f1a:	e7d2      	b.n	5ec2 <uart_nrfx_configure+0xd6>
    5f1c:	0013b000 	.word	0x0013b000
    5f20:	004ea000 	.word	0x004ea000
    5f24:	00ebf000 	.word	0x00ebf000
    5f28:	01d7e000 	.word	0x01d7e000
    5f2c:	0003d090 	.word	0x0003d090
    5f30:	075f7000 	.word	0x075f7000
    5f34:	000f4240 	.word	0x000f4240
    5f38:	40002000 	.word	0x40002000
    5f3c:	009d5000 	.word	0x009d5000
    5f40:	00275000 	.word	0x00275000
    5f44:	0075f000 	.word	0x0075f000
    5f48:	03afb000 	.word	0x03afb000
    5f4c:	013a9000 	.word	0x013a9000
    5f50:	0ebed000 	.word	0x0ebed000

00005f54 <uart_nrfx_poll_out>:
{
    5f54:	b5f8      	push	{r3, r4, r5, r6, r7, lr}
    5f56:	460e      	mov	r6, r1
	if (!k_is_in_isr()) {
    5f58:	f003 f82c 	bl	8fb4 <k_is_in_isr>
    5f5c:	4d19      	ldr	r5, [pc, #100]	; (5fc4 <uart_nrfx_poll_out+0x70>)
    5f5e:	bb70      	cbnz	r0, 5fbe <uart_nrfx_poll_out+0x6a>
    5f60:	2464      	movs	r4, #100	; 0x64
	return __atomic_compare_exchange_n(target, &old_value, new_value,
    5f62:	2701      	movs	r7, #1
    5f64:	f3bf 8f5b 	dmb	ish
    5f68:	e855 3f00 	ldrex	r3, [r5]
    5f6c:	2b00      	cmp	r3, #0
    5f6e:	d103      	bne.n	5f78 <uart_nrfx_poll_out+0x24>
    5f70:	e845 7200 	strex	r2, r7, [r5]
    5f74:	2a00      	cmp	r2, #0
    5f76:	d1f7      	bne.n	5f68 <uart_nrfx_poll_out+0x14>
    5f78:	f3bf 8f5b 	dmb	ish
		while (atomic_cas((atomic_t *) lock,
    5f7c:	d007      	beq.n	5f8e <uart_nrfx_poll_out+0x3a>
    5f7e:	2021      	movs	r0, #33	; 0x21
    5f80:	2100      	movs	r1, #0
    5f82:	3c01      	subs	r4, #1
    5f84:	f001 f95c 	bl	7240 <z_impl_k_sleep>
			if (--safety_cnt == 0) {
    5f88:	f014 04ff 	ands.w	r4, r4, #255	; 0xff
    5f8c:	d1ea      	bne.n	5f64 <uart_nrfx_poll_out+0x10>
    *((volatile uint32_t *)((uint8_t *)p_reg + (uint32_t)event)) = 0x0UL;
    5f8e:	4c0e      	ldr	r4, [pc, #56]	; (5fc8 <uart_nrfx_poll_out+0x74>)
    5f90:	2200      	movs	r2, #0
    5f92:	6022      	str	r2, [r4, #0]
    5f94:	6822      	ldr	r2, [r4, #0]
    *((volatile uint32_t *)((uint8_t *)p_reg + (uint32_t)task)) = 0x1UL;
    5f96:	4a0d      	ldr	r2, [pc, #52]	; (5fcc <uart_nrfx_poll_out+0x78>)
    5f98:	2101      	movs	r1, #1
    5f9a:	6011      	str	r1, [r2, #0]
    p_reg->TXD = txd;
    5f9c:	f8c2 6514 	str.w	r6, [r2, #1300]	; 0x514
    5fa0:	f44f 767a 	mov.w	r6, #1000	; 0x3e8
    return (bool)*(volatile uint32_t *)((uint8_t *)p_reg + (uint32_t)event);
    5fa4:	6823      	ldr	r3, [r4, #0]
	NRFX_WAIT_FOR(event_txdrdy_check(), 1000, 1, res);
    5fa6:	b923      	cbnz	r3, 5fb2 <uart_nrfx_poll_out+0x5e>
    5fa8:	2001      	movs	r0, #1
    5faa:	f002 fe7e 	bl	8caa <nrfx_busy_wait>
    5fae:	3e01      	subs	r6, #1
    5fb0:	d1f8      	bne.n	5fa4 <uart_nrfx_poll_out+0x50>
    *((volatile uint32_t *)((uint8_t *)p_reg + (uint32_t)task)) = 0x1UL;
    5fb2:	4b07      	ldr	r3, [pc, #28]	; (5fd0 <uart_nrfx_poll_out+0x7c>)
    5fb4:	2201      	movs	r2, #1
    5fb6:	601a      	str	r2, [r3, #0]
	*lock = 0;
    5fb8:	2300      	movs	r3, #0
    5fba:	602b      	str	r3, [r5, #0]
}
    5fbc:	bdf8      	pop	{r3, r4, r5, r6, r7, pc}
		*lock = 1;
    5fbe:	2301      	movs	r3, #1
    5fc0:	602b      	str	r3, [r5, #0]
    5fc2:	e7e4      	b.n	5f8e <uart_nrfx_poll_out+0x3a>
    5fc4:	20000898 	.word	0x20000898
    5fc8:	4000211c 	.word	0x4000211c
    5fcc:	40002008 	.word	0x40002008
    5fd0:	4000200c 	.word	0x4000200c

00005fd4 <uart_nrfx_init>:
 * @param dev UART device struct
 *
 * @return 0 on success
 */
static int uart_nrfx_init(const struct device *dev)
{
    5fd4:	b510      	push	{r4, lr}
    p_reg->OUTSET = set_mask;
    5fd6:	f04f 43a0 	mov.w	r3, #1342177280	; 0x50000000
    p_reg->ENABLE = UART_ENABLE_ENABLE_Disabled;
    5fda:	4c13      	ldr	r4, [pc, #76]	; (6028 <uart_nrfx_init+0x54>)
    5fdc:	2200      	movs	r2, #0
    5fde:	f04f 7100 	mov.w	r1, #33554432	; 0x2000000
    5fe2:	f8c4 2500 	str.w	r2, [r4, #1280]	; 0x500
    5fe6:	f8c3 1508 	str.w	r1, [r3, #1288]	; 0x508
    reg->PIN_CNF[pin_number] = ((uint32_t)dir << GPIO_PIN_CNF_DIR_Pos)
    5fea:	2103      	movs	r1, #3
    5fec:	f8c3 1764 	str.w	r1, [r3, #1892]	; 0x764
    5ff0:	f8c3 2760 	str.w	r2, [r3, #1888]	; 0x760
    p_reg->PSEL.RXD = pselrxd;
    5ff4:	2318      	movs	r3, #24
    5ff6:	f8c4 3514 	str.w	r3, [r4, #1300]	; 0x514
    p_reg->PSEL.TXD = pseltxd;
    5ffa:	2319      	movs	r3, #25
    5ffc:	f8c4 350c 	str.w	r3, [r4, #1292]	; 0x50c
    p_reg->PSEL.RTS = pselrts;
    6000:	f04f 33ff 	mov.w	r3, #4294967295	; 0xffffffff
    6004:	f8c4 3508 	str.w	r3, [r4, #1288]	; 0x508
	}

	nrf_uart_hwfc_pins_set(uart0_addr, RTS_PIN, CTS_PIN);

	/* Set initial configuration */
	err = uart_nrfx_configure(dev, &get_dev_data(dev)->uart_config);
    6008:	6901      	ldr	r1, [r0, #16]
    p_reg->PSEL.CTS = pselcts;
    600a:	f8c4 3510 	str.w	r3, [r4, #1296]	; 0x510
    600e:	f7ff feed 	bl	5dec <uart_nrfx_configure>
	if (err) {
    6012:	b938      	cbnz	r0, 6024 <uart_nrfx_init+0x50>
    p_reg->ENABLE = UART_ENABLE_ENABLE_Enabled;
    6014:	2304      	movs	r3, #4
    6016:	f8c4 3500 	str.w	r3, [r4, #1280]	; 0x500
    *((volatile uint32_t *)((uint8_t *)p_reg + (uint32_t)event)) = 0x0UL;
    601a:	4b04      	ldr	r3, [pc, #16]	; (602c <uart_nrfx_init+0x58>)
    601c:	6018      	str	r0, [r3, #0]
    601e:	681b      	ldr	r3, [r3, #0]
    *((volatile uint32_t *)((uint8_t *)p_reg + (uint32_t)task)) = 0x1UL;
    6020:	2301      	movs	r3, #1
    6022:	6023      	str	r3, [r4, #0]
#if HW_FLOW_CONTROL_AVAILABLE
	k_timer_init(&uart0_cb.tx_timeout_timer, tx_timeout, NULL);
#endif
#endif
	return 0;
}
    6024:	bd10      	pop	{r4, pc}
    6026:	bf00      	nop
    6028:	40002000 	.word	0x40002000
    602c:	40002108 	.word	0x40002108

00006030 <nrf52_errata_136>:
         || defined (NRF52810_XXAA) || defined (DEVELOP_IN_NRF52810)\
         || defined (NRF52811_XXAA) || defined (DEVELOP_IN_NRF52811)\
         || defined (NRF52820_XXAA) || defined (DEVELOP_IN_NRF52820)\
         || defined (NRF52833_XXAA) || defined (DEVELOP_IN_NRF52833)\
         || defined (NRF52840_XXAA) || defined (DEVELOP_IN_NRF52840)
            uint32_t var1 = *(uint32_t *)0x10000130ul;
    6030:	4b06      	ldr	r3, [pc, #24]	; (604c <nrf52_errata_136+0x1c>)
                        return true;
                }
            }
        #endif
        #if defined (NRF52840_XXAA) || defined (DEVELOP_IN_NRF52840)
            if (var1 == 0x08)
    6032:	681b      	ldr	r3, [r3, #0]
    6034:	2b08      	cmp	r3, #8
    6036:	d106      	bne.n	6046 <nrf52_errata_136+0x16>
            uint32_t var2 = *(uint32_t *)0x10000134ul;
    6038:	4b05      	ldr	r3, [pc, #20]	; (6050 <nrf52_errata_136+0x20>)
    603a:	681b      	ldr	r3, [r3, #0]
            {
                switch(var2)
    603c:	2b05      	cmp	r3, #5
    603e:	d802      	bhi.n	6046 <nrf52_errata_136+0x16>
    6040:	4a04      	ldr	r2, [pc, #16]	; (6054 <nrf52_errata_136+0x24>)
    6042:	5cd0      	ldrb	r0, [r2, r3]
    6044:	4770      	bx	lr
                    default:
                        return true;
                }
            }
        #endif
        return false;
    6046:	2000      	movs	r0, #0
    #endif
}
    6048:	4770      	bx	lr
    604a:	bf00      	nop
    604c:	10000130 	.word	0x10000130
    6050:	10000134 	.word	0x10000134
    6054:	00009f9d 	.word	0x00009f9d

00006058 <nrf52_errata_103>:
{
    #ifndef NRF52_SERIES
        return false;
    #else
        #if defined (NRF52840_XXAA) || defined (DEVELOP_IN_NRF52840)
            uint32_t var1 = *(uint32_t *)0x10000130ul;
    6058:	4b06      	ldr	r3, [pc, #24]	; (6074 <nrf52_errata_103+0x1c>)
            uint32_t var2 = *(uint32_t *)0x10000134ul;
        #endif
        #if defined (NRF52840_XXAA) || defined (DEVELOP_IN_NRF52840)
            if (var1 == 0x08)
    605a:	681b      	ldr	r3, [r3, #0]
    605c:	2b08      	cmp	r3, #8
    605e:	d106      	bne.n	606e <nrf52_errata_103+0x16>
            uint32_t var2 = *(uint32_t *)0x10000134ul;
    6060:	4b05      	ldr	r3, [pc, #20]	; (6078 <nrf52_errata_103+0x20>)
    6062:	681b      	ldr	r3, [r3, #0]
            {
                switch(var2)
    6064:	2b05      	cmp	r3, #5
    6066:	d802      	bhi.n	606e <nrf52_errata_103+0x16>
    6068:	4a04      	ldr	r2, [pc, #16]	; (607c <nrf52_errata_103+0x24>)
    606a:	5cd0      	ldrb	r0, [r2, r3]
    606c:	4770      	bx	lr
                    default:
                        return false;
                }
            }
        #endif
        return false;
    606e:	2000      	movs	r0, #0
    #endif
}
    6070:	4770      	bx	lr
    6072:	bf00      	nop
    6074:	10000130 	.word	0x10000130
    6078:	10000134 	.word	0x10000134
    607c:	00009fa3 	.word	0x00009fa3

00006080 <nvmc_wait>:

/* -- NVMC utility functions -- */
/* Waits until NVMC is done with the current pending action */
void nvmc_wait(void)
{
    while (NRF_NVMC->READY == NVMC_READY_READY_Busy){}
    6080:	4a02      	ldr	r2, [pc, #8]	; (608c <nvmc_wait+0xc>)
    6082:	f8d2 3400 	ldr.w	r3, [r2, #1024]	; 0x400
    6086:	2b00      	cmp	r3, #0
    6088:	d0fb      	beq.n	6082 <nvmc_wait+0x2>
}
    608a:	4770      	bx	lr
    608c:	4001e000 	.word	0x4001e000

00006090 <SystemInit>:
{
    SystemCoreClock = __SYSTEM_CLOCK_64M;
}

void SystemInit(void)
{
    6090:	b510      	push	{r4, lr}
    #endif

    #if NRF52_ERRATA_36_ENABLE_WORKAROUND
        /* Workaround for Errata 36 "CLOCK: Some registers are not reset when expected" found at the Errata document
           for your device located at https://infocenter.nordicsemi.com/index.jsp  */
        if (nrf52_errata_36()){
    6092:	f7ff ffcd 	bl	6030 <nrf52_errata_136>
    6096:	b140      	cbz	r0, 60aa <SystemInit+0x1a>
            NRF_CLOCK->EVENTS_DONE = 0;
    6098:	f04f 4380 	mov.w	r3, #1073741824	; 0x40000000
    609c:	2200      	movs	r2, #0
    609e:	f8c3 210c 	str.w	r2, [r3, #268]	; 0x10c
            NRF_CLOCK->EVENTS_CTTO = 0;
    60a2:	f8c3 2110 	str.w	r2, [r3, #272]	; 0x110
            NRF_CLOCK->CTIV = 0;
    60a6:	f8c3 2538 	str.w	r2, [r3, #1336]	; 0x538
    #endif

    #if NRF52_ERRATA_66_ENABLE_WORKAROUND
        /* Workaround for Errata 66 "TEMP: Linearity specification not met with default settings" found at the Errata document
           for your device located at https://infocenter.nordicsemi.com/index.jsp  */
        if (nrf52_errata_66()){
    60aa:	f7ff ffc1 	bl	6030 <nrf52_errata_136>
    60ae:	2800      	cmp	r0, #0
    60b0:	d046      	beq.n	6140 <SystemInit+0xb0>
            NRF_TEMP->A0 = NRF_FICR->TEMP.A0;
    60b2:	f04f 5280 	mov.w	r2, #268435456	; 0x10000000
    60b6:	4b52      	ldr	r3, [pc, #328]	; (6200 <SystemInit+0x170>)
    60b8:	f8d2 1404 	ldr.w	r1, [r2, #1028]	; 0x404
    60bc:	f8c3 1520 	str.w	r1, [r3, #1312]	; 0x520
            NRF_TEMP->A1 = NRF_FICR->TEMP.A1;
    60c0:	f8d2 1408 	ldr.w	r1, [r2, #1032]	; 0x408
    60c4:	f8c3 1524 	str.w	r1, [r3, #1316]	; 0x524
            NRF_TEMP->A2 = NRF_FICR->TEMP.A2;
    60c8:	f8d2 140c 	ldr.w	r1, [r2, #1036]	; 0x40c
    60cc:	f8c3 1528 	str.w	r1, [r3, #1320]	; 0x528
            NRF_TEMP->A3 = NRF_FICR->TEMP.A3;
    60d0:	f8d2 1410 	ldr.w	r1, [r2, #1040]	; 0x410
    60d4:	f8c3 152c 	str.w	r1, [r3, #1324]	; 0x52c
            NRF_TEMP->A4 = NRF_FICR->TEMP.A4;
    60d8:	f8d2 1414 	ldr.w	r1, [r2, #1044]	; 0x414
    60dc:	f8c3 1530 	str.w	r1, [r3, #1328]	; 0x530
            NRF_TEMP->A5 = NRF_FICR->TEMP.A5;
    60e0:	f8d2 1418 	ldr.w	r1, [r2, #1048]	; 0x418
    60e4:	f8c3 1534 	str.w	r1, [r3, #1332]	; 0x534
            NRF_TEMP->B0 = NRF_FICR->TEMP.B0;
    60e8:	f8d2 141c 	ldr.w	r1, [r2, #1052]	; 0x41c
    60ec:	f8c3 1540 	str.w	r1, [r3, #1344]	; 0x540
            NRF_TEMP->B1 = NRF_FICR->TEMP.B1;
    60f0:	f8d2 1420 	ldr.w	r1, [r2, #1056]	; 0x420
    60f4:	f8c3 1544 	str.w	r1, [r3, #1348]	; 0x544
            NRF_TEMP->B2 = NRF_FICR->TEMP.B2;
    60f8:	f8d2 1424 	ldr.w	r1, [r2, #1060]	; 0x424
    60fc:	f8c3 1548 	str.w	r1, [r3, #1352]	; 0x548
            NRF_TEMP->B3 = NRF_FICR->TEMP.B3;
    6100:	f8d2 1428 	ldr.w	r1, [r2, #1064]	; 0x428
    6104:	f8c3 154c 	str.w	r1, [r3, #1356]	; 0x54c
            NRF_TEMP->B4 = NRF_FICR->TEMP.B4;
    6108:	f8d2 142c 	ldr.w	r1, [r2, #1068]	; 0x42c
    610c:	f8c3 1550 	str.w	r1, [r3, #1360]	; 0x550
            NRF_TEMP->B5 = NRF_FICR->TEMP.B5;
    6110:	f8d2 1430 	ldr.w	r1, [r2, #1072]	; 0x430
    6114:	f8c3 1554 	str.w	r1, [r3, #1364]	; 0x554
            NRF_TEMP->T0 = NRF_FICR->TEMP.T0;
    6118:	f8d2 1434 	ldr.w	r1, [r2, #1076]	; 0x434
    611c:	f8c3 1560 	str.w	r1, [r3, #1376]	; 0x560
            NRF_TEMP->T1 = NRF_FICR->TEMP.T1;
    6120:	f8d2 1438 	ldr.w	r1, [r2, #1080]	; 0x438
    6124:	f8c3 1564 	str.w	r1, [r3, #1380]	; 0x564
            NRF_TEMP->T2 = NRF_FICR->TEMP.T2;
    6128:	f8d2 143c 	ldr.w	r1, [r2, #1084]	; 0x43c
    612c:	f8c3 1568 	str.w	r1, [r3, #1384]	; 0x568
            NRF_TEMP->T3 = NRF_FICR->TEMP.T3;
    6130:	f8d2 1440 	ldr.w	r1, [r2, #1088]	; 0x440
    6134:	f8c3 156c 	str.w	r1, [r3, #1388]	; 0x56c
            NRF_TEMP->T4 = NRF_FICR->TEMP.T4;
    6138:	f8d2 2444 	ldr.w	r2, [r2, #1092]	; 0x444
    613c:	f8c3 2570 	str.w	r2, [r3, #1392]	; 0x570
    #endif

    #if NRF52_ERRATA_98_ENABLE_WORKAROUND
        /* Workaround for Errata 98 "NFCT: Not able to communicate with the peer" found at the Errata document
           for your device located at https://infocenter.nordicsemi.com/index.jsp  */
        if (nrf52_errata_98()){
    6140:	f7ff ff8a 	bl	6058 <nrf52_errata_103>
    6144:	b110      	cbz	r0, 614c <SystemInit+0xbc>
            *(volatile uint32_t *)0x4000568Cul = 0x00038148ul;
    6146:	4b2f      	ldr	r3, [pc, #188]	; (6204 <SystemInit+0x174>)
    6148:	4a2f      	ldr	r2, [pc, #188]	; (6208 <SystemInit+0x178>)
    614a:	601a      	str	r2, [r3, #0]
    #endif

    #if NRF52_ERRATA_103_ENABLE_WORKAROUND && defined(CCM_MAXPACKETSIZE_MAXPACKETSIZE_Pos)
        /* Workaround for Errata 103 "CCM: Wrong reset value of CCM MAXPACKETSIZE" found at the Errata document
           for your device located at https://infocenter.nordicsemi.com/index.jsp  */
        if (nrf52_errata_103()){
    614c:	f7ff ff84 	bl	6058 <nrf52_errata_103>
    6150:	b118      	cbz	r0, 615a <SystemInit+0xca>
            NRF_CCM->MAXPACKETSIZE = 0xFBul;
    6152:	4b2e      	ldr	r3, [pc, #184]	; (620c <SystemInit+0x17c>)
    6154:	22fb      	movs	r2, #251	; 0xfb
    6156:	f8c3 2518 	str.w	r2, [r3, #1304]	; 0x518
    #endif

    #if NRF52_ERRATA_115_ENABLE_WORKAROUND
        /* Workaround for Errata 115 "RAM: RAM content cannot be trusted upon waking up from System ON Idle or System OFF mode" found at the Errata document
           for your device located at https://infocenter.nordicsemi.com/index.jsp  */
        if (nrf52_errata_115()){
    615a:	f7ff ff7d 	bl	6058 <nrf52_errata_103>
    615e:	b148      	cbz	r0, 6174 <SystemInit+0xe4>
            *(volatile uint32_t *)0x40000EE4 = (*(volatile uint32_t *)0x40000EE4 & 0xFFFFFFF0) | (*(uint32_t *)0x10000258 & 0x0000000F);
    6160:	492b      	ldr	r1, [pc, #172]	; (6210 <SystemInit+0x180>)
    6162:	4b2c      	ldr	r3, [pc, #176]	; (6214 <SystemInit+0x184>)
    6164:	680a      	ldr	r2, [r1, #0]
    6166:	681b      	ldr	r3, [r3, #0]
    6168:	f022 020f 	bic.w	r2, r2, #15
    616c:	f003 030f 	and.w	r3, r3, #15
    6170:	4313      	orrs	r3, r2
    6172:	600b      	str	r3, [r1, #0]
    #endif

    #if NRF52_ERRATA_120_ENABLE_WORKAROUND
        /* Workaround for Errata 120 "QSPI: Data read or written is corrupted" found at the Errata document
           for your device located at https://infocenter.nordicsemi.com/index.jsp  */
        if (nrf52_errata_120()){
    6174:	f7ff ff70 	bl	6058 <nrf52_errata_103>
    6178:	b118      	cbz	r0, 6182 <SystemInit+0xf2>
            *(volatile uint32_t *)0x40029640ul = 0x200ul;
    617a:	4b27      	ldr	r3, [pc, #156]	; (6218 <SystemInit+0x188>)
    617c:	f44f 7200 	mov.w	r2, #512	; 0x200
    6180:	601a      	str	r2, [r3, #0]
    #endif

    #if NRF52_ERRATA_136_ENABLE_WORKAROUND
        /* Workaround for Errata 136 "System: Bits in RESETREAS are set when they should not be" found at the Errata document
           for your device located at https://infocenter.nordicsemi.com/index.jsp  */
        if (nrf52_errata_136()){
    6182:	f7ff ff55 	bl	6030 <nrf52_errata_136>
    6186:	b148      	cbz	r0, 619c <SystemInit+0x10c>
            if (NRF_POWER->RESETREAS & POWER_RESETREAS_RESETPIN_Msk){
    6188:	f04f 4380 	mov.w	r3, #1073741824	; 0x40000000
    618c:	f8d3 2400 	ldr.w	r2, [r3, #1024]	; 0x400
    6190:	07d2      	lsls	r2, r2, #31
                NRF_POWER->RESETREAS =  ~POWER_RESETREAS_RESETPIN_Msk;
    6192:	bf44      	itt	mi
    6194:	f06f 0201 	mvnmi.w	r2, #1
    6198:	f8c3 2400 	strmi.w	r2, [r3, #1024]	; 0x400

    /* Configure GPIO pads as pPin Reset pin if Pin Reset capabilities desired. If CONFIG_GPIO_AS_PINRESET is not
      defined, pin reset will not be available. One GPIO (see Product Specification to see which one) will then be
      reserved for PinReset and not available as normal GPIO. */
    #if defined (CONFIG_GPIO_AS_PINRESET)
        if (((NRF_UICR->PSELRESET[0] & UICR_PSELRESET_CONNECT_Msk) != (UICR_PSELRESET_CONNECT_Connected << UICR_PSELRESET_CONNECT_Pos)) ||
    619c:	f04f 2310 	mov.w	r3, #268439552	; 0x10001000
    61a0:	f8d3 2200 	ldr.w	r2, [r3, #512]	; 0x200
    61a4:	2a00      	cmp	r2, #0
    61a6:	db03      	blt.n	61b0 <SystemInit+0x120>
            ((NRF_UICR->PSELRESET[1] & UICR_PSELRESET_CONNECT_Msk) != (UICR_PSELRESET_CONNECT_Connected << UICR_PSELRESET_CONNECT_Pos))){
    61a8:	f8d3 3204 	ldr.w	r3, [r3, #516]	; 0x204
        if (((NRF_UICR->PSELRESET[0] & UICR_PSELRESET_CONNECT_Msk) != (UICR_PSELRESET_CONNECT_Connected << UICR_PSELRESET_CONNECT_Pos)) ||
    61ac:	2b00      	cmp	r3, #0
    61ae:	da22      	bge.n	61f6 <SystemInit+0x166>
    NRF_NVMC->CONFIG = mode << NVMC_CONFIG_WEN_Pos;
    61b0:	491a      	ldr	r1, [pc, #104]	; (621c <SystemInit+0x18c>)
    61b2:	2301      	movs	r3, #1
    61b4:	f8c1 3504 	str.w	r3, [r1, #1284]	; 0x504
    nvmc_wait();
    61b8:	f7ff ff62 	bl	6080 <nvmc_wait>
            nvmc_config(NVMC_CONFIG_WEN_Wen);
            NRF_UICR->PSELRESET[0] = RESET_PIN;
    61bc:	f04f 2010 	mov.w	r0, #268439552	; 0x10001000
    61c0:	2412      	movs	r4, #18
    61c2:	f8c0 4200 	str.w	r4, [r0, #512]	; 0x200
            nvmc_wait();
    61c6:	f7ff ff5b 	bl	6080 <nvmc_wait>
            NRF_UICR->PSELRESET[1] = RESET_PIN;
    61ca:	f8c0 4204 	str.w	r4, [r0, #516]	; 0x204
            nvmc_wait();
    61ce:	f7ff ff57 	bl	6080 <nvmc_wait>
    NRF_NVMC->CONFIG = mode << NVMC_CONFIG_WEN_Pos;
    61d2:	2300      	movs	r3, #0
    61d4:	f8c1 3504 	str.w	r3, [r1, #1284]	; 0x504
    nvmc_wait();
    61d8:	f7ff ff52 	bl	6080 <nvmc_wait>
  __ASM volatile ("dsb 0xF":::"memory");
    61dc:	f3bf 8f4f 	dsb	sy
__NO_RETURN __STATIC_INLINE void __NVIC_SystemReset(void)
{
  __DSB();                                                          /* Ensure all outstanding memory accesses included
                                                                       buffered write are completed before reset */
  SCB->AIRCR  = (uint32_t)((0x5FAUL << SCB_AIRCR_VECTKEY_Pos)    |
                           (SCB->AIRCR & SCB_AIRCR_PRIGROUP_Msk) |
    61e0:	490f      	ldr	r1, [pc, #60]	; (6220 <SystemInit+0x190>)
    61e2:	4b10      	ldr	r3, [pc, #64]	; (6224 <SystemInit+0x194>)
    61e4:	68ca      	ldr	r2, [r1, #12]
    61e6:	f402 62e0 	and.w	r2, r2, #1792	; 0x700
    61ea:	4313      	orrs	r3, r2
  SCB->AIRCR  = (uint32_t)((0x5FAUL << SCB_AIRCR_VECTKEY_Pos)    |
    61ec:	60cb      	str	r3, [r1, #12]
    61ee:	f3bf 8f4f 	dsb	sy
                            SCB_AIRCR_SYSRESETREQ_Msk    );         /* Keep priority group unchanged */
  __DSB();                                                          /* Ensure completion of memory access */

  for(;;)                                                           /* wait until reset */
  {
    __NOP();
    61f2:	bf00      	nop
  for(;;)                                                           /* wait until reset */
    61f4:	e7fd      	b.n	61f2 <SystemInit+0x162>
    SystemCoreClock = __SYSTEM_CLOCK_64M;
    61f6:	4b0c      	ldr	r3, [pc, #48]	; (6228 <SystemInit+0x198>)
    61f8:	4a0c      	ldr	r2, [pc, #48]	; (622c <SystemInit+0x19c>)
    61fa:	601a      	str	r2, [r3, #0]
            NVIC_SystemReset();
        }
    #endif

    SystemCoreClockUpdate();
}
    61fc:	bd10      	pop	{r4, pc}
    61fe:	bf00      	nop
    6200:	4000c000 	.word	0x4000c000
    6204:	4000568c 	.word	0x4000568c
    6208:	00038148 	.word	0x00038148
    620c:	4000f000 	.word	0x4000f000
    6210:	40000ee4 	.word	0x40000ee4
    6214:	10000258 	.word	0x10000258
    6218:	40029640 	.word	0x40029640
    621c:	4001e000 	.word	0x4001e000
    6220:	e000ed00 	.word	0xe000ed00
    6224:	05fa0004 	.word	0x05fa0004
    6228:	20000098 	.word	0x20000098
    622c:	03d09000 	.word	0x03d09000

00006230 <nrfx_clock_init>:
nrfx_err_t nrfx_clock_init(nrfx_clock_event_handler_t event_handler)
{
    NRFX_ASSERT(event_handler);

    nrfx_err_t err_code = NRFX_SUCCESS;
    if (m_clock_cb.module_initialized)
    6230:	4b04      	ldr	r3, [pc, #16]	; (6244 <nrfx_clock_init+0x14>)
    6232:	791a      	ldrb	r2, [r3, #4]
    6234:	b922      	cbnz	r2, 6240 <nrfx_clock_init+0x10>
    {
#if NRFX_CHECK(NRFX_CLOCK_CONFIG_LF_CAL_ENABLED)
        m_clock_cb.cal_state = CAL_STATE_IDLE;
#endif
        m_clock_cb.event_handler = event_handler;
        m_clock_cb.module_initialized = true;
    6236:	2201      	movs	r2, #1
        m_clock_cb.event_handler = event_handler;
    6238:	6018      	str	r0, [r3, #0]
        m_clock_cb.module_initialized = true;
    623a:	809a      	strh	r2, [r3, #4]
    nrfx_err_t err_code = NRFX_SUCCESS;
    623c:	4802      	ldr	r0, [pc, #8]	; (6248 <nrfx_clock_init+0x18>)
    623e:	4770      	bx	lr
        err_code = NRFX_ERROR_ALREADY_INITIALIZED;
    6240:	4802      	ldr	r0, [pc, #8]	; (624c <nrfx_clock_init+0x1c>)
#endif
    }

    NRFX_LOG_INFO("Function: %s, error code: %s.", __func__, NRFX_LOG_ERROR_STRING_GET(err_code));
    return err_code;
}
    6242:	4770      	bx	lr
    6244:	2000089c 	.word	0x2000089c
    6248:	0bad0000 	.word	0x0bad0000
    624c:	0bad000c 	.word	0x0bad000c

00006250 <nrfx_clock_start>:
}

void nrfx_clock_start(nrf_clock_domain_t domain)
{
    NRFX_ASSERT(m_clock_cb.module_initialized);
    switch (domain)
    6250:	b110      	cbz	r0, 6258 <nrfx_clock_start+0x8>
    6252:	2801      	cmp	r0, #1
    6254:	d020      	beq.n	6298 <nrfx_clock_start+0x48>
    6256:	4770      	bx	lr
                    (nrf_clock_lfclk_t)((p_reg->LFCLKSTAT & CLOCK_LFCLKSTAT_SRC_Msk)
    6258:	f04f 4380 	mov.w	r3, #1073741824	; 0x40000000
    625c:	f8d3 2418 	ldr.w	r2, [r3, #1048]	; 0x418
            if ((p_reg->LFCLKSTAT & CLOCK_LFCLKSTAT_STATE_Msk)
    6260:	f8d3 1418 	ldr.w	r1, [r3, #1048]	; 0x418
    6264:	f411 3f80 	tst.w	r1, #65536	; 0x10000
    6268:	4619      	mov	r1, r3
    626a:	d011      	beq.n	6290 <nrfx_clock_start+0x40>
                                        >> CLOCK_LFCLKSTAT_SRC_Pos);
    626c:	f002 0203 	and.w	r2, r2, #3
    {
        case NRF_CLOCK_DOMAIN_LFCLK:
#if NRFX_CHECK(NRFX_CLOCK_CONFIG_LFXO_TWO_STAGE_ENABLED)
            {
                nrf_clock_lfclk_t lfclksrc;
                if (nrf_clock_is_running(NRF_CLOCK, NRF_CLOCK_DOMAIN_LFCLK, &lfclksrc) &&
    6270:	2a01      	cmp	r2, #1
    6272:	d10d      	bne.n	6290 <nrfx_clock_start+0x40>
    p_reg->LFCLKSRC = (uint32_t)(source);
    6274:	f8c3 2518 	str.w	r2, [r3, #1304]	; 0x518
    *((volatile uint32_t *)((uint8_t *)p_reg + (uint32_t)event)) = 0x0UL;
    6278:	4b0c      	ldr	r3, [pc, #48]	; (62ac <nrfx_clock_start+0x5c>)
    627a:	2200      	movs	r2, #0
    627c:	601a      	str	r2, [r3, #0]
    627e:	681b      	ldr	r3, [r3, #0]
    p_reg->INTENSET = mask;
    6280:	f04f 4380 	mov.w	r3, #1073741824	; 0x40000000
    6284:	2202      	movs	r2, #2
    6286:	f8c3 2304 	str.w	r2, [r3, #772]	; 0x304
    *((volatile uint32_t *)((uint8_t *)p_reg + (uint32_t)task)) = 0x1UL;
    628a:	2201      	movs	r2, #1
    628c:	609a      	str	r2, [r3, #8]
}
    628e:	4770      	bx	lr
    p_reg->LFCLKSRC = (uint32_t)(source);
    6290:	2300      	movs	r3, #0
    6292:	f8c1 3518 	str.w	r3, [r1, #1304]	; 0x518
}
    6296:	e7ef      	b.n	6278 <nrfx_clock_start+0x28>
    *((volatile uint32_t *)((uint8_t *)p_reg + (uint32_t)event)) = 0x0UL;
    6298:	4b05      	ldr	r3, [pc, #20]	; (62b0 <nrfx_clock_start+0x60>)
    629a:	2200      	movs	r2, #0
    629c:	601a      	str	r2, [r3, #0]
    629e:	681b      	ldr	r3, [r3, #0]
    p_reg->INTENSET = mask;
    62a0:	f04f 4380 	mov.w	r3, #1073741824	; 0x40000000
    62a4:	f8c3 0304 	str.w	r0, [r3, #772]	; 0x304
    *((volatile uint32_t *)((uint8_t *)p_reg + (uint32_t)task)) = 0x1UL;
    62a8:	6018      	str	r0, [r3, #0]
#endif
        default:
            NRFX_ASSERT(0);
            break;
    }
}
    62aa:	4770      	bx	lr
    62ac:	40000104 	.word	0x40000104
    62b0:	40000100 	.word	0x40000100

000062b4 <nrfx_clock_stop>:

void nrfx_clock_stop(nrf_clock_domain_t domain)
{
    62b4:	b538      	push	{r3, r4, r5, lr}
    NRFX_ASSERT(m_clock_cb.module_initialized);
    switch (domain)
    62b6:	b110      	cbz	r0, 62be <nrfx_clock_stop+0xa>
    62b8:	2801      	cmp	r0, #1
    62ba:	d018      	beq.n	62ee <nrfx_clock_stop+0x3a>
    if (domain == NRF_CLOCK_DOMAIN_HFCLK)
    {
            m_clock_cb.hfclk_started = false;
    }
#endif
}
    62bc:	bd38      	pop	{r3, r4, r5, pc}
    p_reg->INTENCLR = mask;
    62be:	f04f 4380 	mov.w	r3, #1073741824	; 0x40000000
    62c2:	2202      	movs	r2, #2
    62c4:	f8c3 2308 	str.w	r2, [r3, #776]	; 0x308
    *((volatile uint32_t *)((uint8_t *)p_reg + (uint32_t)event)) = 0x0UL;
    62c8:	4a18      	ldr	r2, [pc, #96]	; (632c <nrfx_clock_stop+0x78>)
    62ca:	6010      	str	r0, [r2, #0]
    62cc:	6812      	ldr	r2, [r2, #0]
    *((volatile uint32_t *)((uint8_t *)p_reg + (uint32_t)task)) = 0x1UL;
    62ce:	4a18      	ldr	r2, [pc, #96]	; (6330 <nrfx_clock_stop+0x7c>)
    62d0:	2101      	movs	r1, #1
    62d2:	6011      	str	r1, [r2, #0]
    62d4:	f242 7510 	movw	r5, #10000	; 0x2710
            if ((p_reg->LFCLKSTAT & CLOCK_LFCLKSTAT_STATE_Msk)
    62d8:	461c      	mov	r4, r3
    62da:	f8d4 3418 	ldr.w	r3, [r4, #1048]	; 0x418
    62de:	03db      	lsls	r3, r3, #15
    62e0:	d5ec      	bpl.n	62bc <nrfx_clock_stop+0x8>
        NRFX_WAIT_FOR(!nrfx_clock_is_running(domain, NULL), 10000, 1, stopped);
    62e2:	2001      	movs	r0, #1
    62e4:	f002 fce1 	bl	8caa <nrfx_busy_wait>
    62e8:	3d01      	subs	r5, #1
    62ea:	d1f6      	bne.n	62da <nrfx_clock_stop+0x26>
    62ec:	e7e6      	b.n	62bc <nrfx_clock_stop+0x8>
    *((volatile uint32_t *)((uint8_t *)p_reg + (uint32_t)event)) = 0x0UL;
    62ee:	4b11      	ldr	r3, [pc, #68]	; (6334 <nrfx_clock_stop+0x80>)
    p_reg->INTENCLR = mask;
    62f0:	f04f 4480 	mov.w	r4, #1073741824	; 0x40000000
    *((volatile uint32_t *)((uint8_t *)p_reg + (uint32_t)event)) = 0x0UL;
    62f4:	2200      	movs	r2, #0
    p_reg->INTENCLR = mask;
    62f6:	f8c4 0308 	str.w	r0, [r4, #776]	; 0x308
    *((volatile uint32_t *)((uint8_t *)p_reg + (uint32_t)event)) = 0x0UL;
    62fa:	601a      	str	r2, [r3, #0]
    62fc:	681b      	ldr	r3, [r3, #0]
    *((volatile uint32_t *)((uint8_t *)p_reg + (uint32_t)task)) = 0x1UL;
    62fe:	4b0e      	ldr	r3, [pc, #56]	; (6338 <nrfx_clock_stop+0x84>)
    6300:	f242 7510 	movw	r5, #10000	; 0x2710
    6304:	6018      	str	r0, [r3, #0]
                    (nrf_clock_hfclk_t)((p_reg->HFCLKSTAT & CLOCK_HFCLKSTAT_SRC_Msk)
    6306:	f8d4 340c 	ldr.w	r3, [r4, #1036]	; 0x40c
            if ((p_reg->HFCLKSTAT & CLOCK_HFCLKSTAT_STATE_Msk)
    630a:	f8d4 240c 	ldr.w	r2, [r4, #1036]	; 0x40c
    630e:	03d2      	lsls	r2, r2, #15
                    (nrf_clock_hfclk_t)((p_reg->HFCLKSTAT & CLOCK_HFCLKSTAT_SRC_Msk)
    6310:	f003 0301 	and.w	r3, r3, #1
            if ((p_reg->HFCLKSTAT & CLOCK_HFCLKSTAT_STATE_Msk)
    6314:	d505      	bpl.n	6322 <nrfx_clock_stop+0x6e>
        NRFX_WAIT_FOR((!nrfx_clock_is_running(domain, &clk_src) ||
    6316:	b123      	cbz	r3, 6322 <nrfx_clock_stop+0x6e>
    6318:	2001      	movs	r0, #1
    631a:	f002 fcc6 	bl	8caa <nrfx_busy_wait>
    631e:	3d01      	subs	r5, #1
    6320:	d1f1      	bne.n	6306 <nrfx_clock_stop+0x52>
            m_clock_cb.hfclk_started = false;
    6322:	4b06      	ldr	r3, [pc, #24]	; (633c <nrfx_clock_stop+0x88>)
    6324:	2200      	movs	r2, #0
    6326:	715a      	strb	r2, [r3, #5]
    6328:	e7c8      	b.n	62bc <nrfx_clock_stop+0x8>
    632a:	bf00      	nop
    632c:	40000104 	.word	0x40000104
    6330:	4000000c 	.word	0x4000000c
    6334:	40000100 	.word	0x40000100
    6338:	40000004 	.word	0x40000004
    633c:	2000089c 	.word	0x2000089c

00006340 <nrfx_power_clock_irq_handler>:
    return (bool)*((volatile uint32_t *)((uint8_t *)p_reg + event));
    6340:	4b16      	ldr	r3, [pc, #88]	; (639c <nrfx_power_clock_irq_handler+0x5c>)
    6342:	681a      	ldr	r2, [r3, #0]
    }
}
#endif

void nrfx_clock_irq_handler(void)
{
    6344:	b510      	push	{r4, lr}
    if (nrf_clock_event_check(NRF_CLOCK, NRF_CLOCK_EVENT_HFCLKSTARTED))
    6346:	b16a      	cbz	r2, 6364 <nrfx_power_clock_irq_handler+0x24>
    *((volatile uint32_t *)((uint8_t *)p_reg + (uint32_t)event)) = 0x0UL;
    6348:	2200      	movs	r2, #0
    634a:	601a      	str	r2, [r3, #0]
    634c:	681b      	ldr	r3, [r3, #0]
    p_reg->INTENCLR = mask;
    634e:	f04f 4380 	mov.w	r3, #1073741824	; 0x40000000
    6352:	2201      	movs	r2, #1
    6354:	f8c3 2308 	str.w	r2, [r3, #776]	; 0x308
        nrf_clock_event_clear(NRF_CLOCK, NRF_CLOCK_EVENT_HFCLKSTARTED);
        NRFX_LOG_DEBUG("Event: NRF_CLOCK_EVENT_HFCLKSTARTED");
        nrf_clock_int_disable(NRF_CLOCK, NRF_CLOCK_INT_HF_STARTED_MASK);

#if NRFX_CHECK(USE_WORKAROUND_FOR_ANOMALY_201)
        if (!m_clock_cb.hfclk_started)
    6358:	4b11      	ldr	r3, [pc, #68]	; (63a0 <nrfx_power_clock_irq_handler+0x60>)
    635a:	7958      	ldrb	r0, [r3, #5]
    635c:	b910      	cbnz	r0, 6364 <nrfx_power_clock_irq_handler+0x24>
        {
            m_clock_cb.hfclk_started = true;
    635e:	715a      	strb	r2, [r3, #5]
            m_clock_cb.event_handler(NRFX_CLOCK_EVT_HFCLK_STARTED);
    6360:	681b      	ldr	r3, [r3, #0]
    6362:	4798      	blx	r3
    return (bool)*((volatile uint32_t *)((uint8_t *)p_reg + event));
    6364:	4b0f      	ldr	r3, [pc, #60]	; (63a4 <nrfx_power_clock_irq_handler+0x64>)
    6366:	681a      	ldr	r2, [r3, #0]
        }
#else
        m_clock_cb.event_handler(NRFX_CLOCK_EVT_HFCLK_STARTED);
#endif
    }
    if (nrf_clock_event_check(NRF_CLOCK, NRF_CLOCK_EVENT_LFCLKSTARTED))
    6368:	b172      	cbz	r2, 6388 <nrfx_power_clock_irq_handler+0x48>
    *((volatile uint32_t *)((uint8_t *)p_reg + (uint32_t)event)) = 0x0UL;
    636a:	2200      	movs	r2, #0
    636c:	601a      	str	r2, [r3, #0]
    636e:	681b      	ldr	r3, [r3, #0]
                    (nrf_clock_lfclk_t)((p_reg->LFCLKSTAT & CLOCK_LFCLKSTAT_SRC_Msk)
    6370:	f04f 4380 	mov.w	r3, #1073741824	; 0x40000000
    6374:	f8d3 2418 	ldr.w	r2, [r3, #1048]	; 0x418
            if ((p_reg->LFCLKSTAT & CLOCK_LFCLKSTAT_STATE_Msk)
    6378:	f8d3 1418 	ldr.w	r1, [r3, #1048]	; 0x418
        NRFX_LOG_DEBUG("Event: NRF_CLOCK_EVENT_LFCLKSTARTED");

#if NRFX_CHECK(NRFX_CLOCK_CONFIG_LFXO_TWO_STAGE_ENABLED)
        nrf_clock_lfclk_t lfclksrc;
        (void)nrf_clock_is_running(NRF_CLOCK, NRF_CLOCK_DOMAIN_LFCLK, &lfclksrc);
        if (lfclksrc == NRF_CLOCK_LFCLK_RC)
    637c:	0792      	lsls	r2, r2, #30
    637e:	d104      	bne.n	638a <nrfx_power_clock_irq_handler+0x4a>
    p_reg->LFCLKSRC = (uint32_t)(source);
    6380:	2201      	movs	r2, #1
    6382:	f8c3 2518 	str.w	r2, [r3, #1304]	; 0x518
    *((volatile uint32_t *)((uint8_t *)p_reg + (uint32_t)task)) = 0x1UL;
    6386:	609a      	str	r2, [r3, #8]
        nrf_clock_int_disable(NRF_CLOCK, NRF_CLOCK_INT_HF192M_STARTED_MASK);

        m_clock_cb.event_handler(NRFX_CLOCK_EVT_HFCLK192M_STARTED);
    }
#endif
}
    6388:	bd10      	pop	{r4, pc}
    p_reg->INTENCLR = mask;
    638a:	2202      	movs	r2, #2
    638c:	f8c3 2308 	str.w	r2, [r3, #776]	; 0x308
            m_clock_cb.event_handler(NRFX_CLOCK_EVT_LFCLK_STARTED);
    6390:	4b03      	ldr	r3, [pc, #12]	; (63a0 <nrfx_power_clock_irq_handler+0x60>)
}
    6392:	e8bd 4010 	ldmia.w	sp!, {r4, lr}
            m_clock_cb.event_handler(NRFX_CLOCK_EVT_LFCLK_STARTED);
    6396:	681b      	ldr	r3, [r3, #0]
    6398:	2001      	movs	r0, #1
    639a:	4718      	bx	r3
    639c:	40000100 	.word	0x40000100
    63a0:	2000089c 	.word	0x2000089c
    63a4:	40000104 	.word	0x40000104

000063a8 <nrfx_gpiote_channel_free>:
    return m_cb.allocated_channels_mask & (1UL << index);
}

static bool is_app_channel(uint8_t index)
{
    return NRFX_GPIOTE_APP_CHANNELS_MASK & (1UL << index);
    63a8:	2301      	movs	r3, #1
    63aa:	fa03 f000 	lsl.w	r0, r3, r0

nrfx_err_t nrfx_gpiote_channel_free(uint8_t channel)
{
    nrfx_err_t err_code = NRFX_SUCCESS;

    if (!is_app_channel(channel))
    63ae:	f010 0fff 	tst.w	r0, #255	; 0xff
    63b2:	d012      	beq.n	63da <nrfx_gpiote_channel_free+0x32>
	__asm__ volatile(
    63b4:	f04f 0320 	mov.w	r3, #32
    63b8:	f3ef 8111 	mrs	r1, BASEPRI
    63bc:	f383 8811 	msr	BASEPRI, r3
    63c0:	f3bf 8f6f 	isb	sy
    m_cb.allocated_channels_mask &= ~(1UL << index);
    63c4:	4a06      	ldr	r2, [pc, #24]	; (63e0 <nrfx_gpiote_channel_free+0x38>)
    63c6:	6dd3      	ldr	r3, [r2, #92]	; 0x5c
    63c8:	ea23 0000 	bic.w	r0, r3, r0
    63cc:	65d0      	str	r0, [r2, #92]	; 0x5c
	__asm__ volatile(
    63ce:	f381 8811 	msr	BASEPRI, r1
    63d2:	f3bf 8f6f 	isb	sy
    63d6:	4803      	ldr	r0, [pc, #12]	; (63e4 <nrfx_gpiote_channel_free+0x3c>)
    63d8:	4770      	bx	lr
    {
        err_code = NRFX_ERROR_INVALID_PARAM;
    63da:	4803      	ldr	r0, [pc, #12]	; (63e8 <nrfx_gpiote_channel_free+0x40>)
        NRFX_CRITICAL_SECTION_EXIT();
    }

    NRFX_LOG_INFO("Function: %s, error code: %s.", __func__, NRFX_LOG_ERROR_STRING_GET(err_code));
    return err_code;
}
    63dc:	4770      	bx	lr
    63de:	bf00      	nop
    63e0:	200008a4 	.word	0x200008a4
    63e4:	0bad0000 	.word	0x0bad0000
    63e8:	0bad0004 	.word	0x0bad0004

000063ec <nrfx_gpiote_channel_alloc>:

nrfx_err_t nrfx_gpiote_channel_alloc(uint8_t * p_channel)
{
    63ec:	e92d 41f0 	stmdb	sp!, {r4, r5, r6, r7, r8, lr}
    63f0:	4605      	mov	r5, r0
    return m_cb.allocated_channels_mask & (1UL << index);
    63f2:	f8df e060 	ldr.w	lr, [pc, #96]	; 6454 <nrfx_gpiote_channel_alloc+0x68>
    nrfx_err_t err_code = NRFX_ERROR_NO_MEM;
    63f6:	4816      	ldr	r0, [pc, #88]	; (6450 <nrfx_gpiote_channel_alloc+0x64>)
        NRFX_CRITICAL_SECTION_ENTER();
        if ((mask & (1UL << ch_idx)) && (!is_allocated_channel(ch_idx)))
        {
            channel_allocated_set(ch_idx);
            *p_channel = ch_idx;
            err_code = NRFX_SUCCESS;
    63f8:	f8df 805c 	ldr.w	r8, [pc, #92]	; 6458 <nrfx_gpiote_channel_alloc+0x6c>
{
    63fc:	2400      	movs	r4, #0
    uint32_t mask = NRFX_GPIOTE_APP_CHANNELS_MASK;
    63fe:	22ff      	movs	r2, #255	; 0xff
    return m_cb.allocated_channels_mask & (1UL << index);
    6400:	2601      	movs	r6, #1
    6402:	b2e3      	uxtb	r3, r4
	__asm__ volatile(
    6404:	f04f 0120 	mov.w	r1, #32
    6408:	f3ef 8c11 	mrs	ip, BASEPRI
    640c:	f381 8811 	msr	BASEPRI, r1
    6410:	f3bf 8f6f 	isb	sy
        if ((mask & (1UL << ch_idx)) && (!is_allocated_channel(ch_idx)))
    6414:	fa22 f103 	lsr.w	r1, r2, r3
    6418:	07c9      	lsls	r1, r1, #31
    641a:	d50a      	bpl.n	6432 <nrfx_gpiote_channel_alloc+0x46>
    return m_cb.allocated_channels_mask & (1UL << index);
    641c:	f8de 105c 	ldr.w	r1, [lr, #92]	; 0x5c
    6420:	fa06 f703 	lsl.w	r7, r6, r3
        if ((mask & (1UL << ch_idx)) && (!is_allocated_channel(ch_idx)))
    6424:	4239      	tst	r1, r7
    m_cb.allocated_channels_mask |= (1UL << index);
    6426:	bf01      	itttt	eq
    6428:	4339      	orreq	r1, r7
    642a:	f8ce 105c 	streq.w	r1, [lr, #92]	; 0x5c
            err_code = NRFX_SUCCESS;
    642e:	4640      	moveq	r0, r8
            *p_channel = ch_idx;
    6430:	702b      	strbeq	r3, [r5, #0]
	__asm__ volatile(
    6432:	f38c 8811 	msr	BASEPRI, ip
    6436:	f3bf 8f6f 	isb	sy
        }
        NRFX_CRITICAL_SECTION_EXIT();

        if (err_code == NRFX_SUCCESS)
    643a:	4540      	cmp	r0, r8
    643c:	d005      	beq.n	644a <nrfx_gpiote_channel_alloc+0x5e>
        {
            NRFX_LOG_INFO("Allocated channel: %d.", ch_idx);
            break;
        }

        mask &= ~(1UL << ch_idx);
    643e:	fa06 f303 	lsl.w	r3, r6, r3
    for (uint8_t ch_idx = 0; mask != 0; ch_idx++)
    6442:	439a      	bics	r2, r3
    6444:	f104 0401 	add.w	r4, r4, #1
    6448:	d1db      	bne.n	6402 <nrfx_gpiote_channel_alloc+0x16>
    }

    NRFX_LOG_INFO("Function: %s, error code: %s.", __func__, NRFX_LOG_ERROR_STRING_GET(err_code));
    return err_code;
}
    644a:	e8bd 81f0 	ldmia.w	sp!, {r4, r5, r6, r7, r8, pc}
    644e:	bf00      	nop
    6450:	0bad0002 	.word	0x0bad0002
    6454:	200008a4 	.word	0x200008a4
    6458:	0bad0000 	.word	0x0bad0000

0000645c <nrf_gpio_pin_port_decode>:
    uint32_t pin_number = *p_pin;
    645c:	6803      	ldr	r3, [r0, #0]
    *p_pin = pin_number & 0x1F;
    645e:	f003 021f 	and.w	r2, r3, #31
    return pin_number >> 5;
    6462:	095b      	lsrs	r3, r3, #5
    switch (nrf_gpio_pin_port_number_extract(p_pin))
    6464:	2b01      	cmp	r3, #1
    *p_pin = pin_number & 0x1F;
    6466:	6002      	str	r2, [r0, #0]
}
    6468:	4802      	ldr	r0, [pc, #8]	; (6474 <nrf_gpio_pin_port_decode+0x18>)
    646a:	bf18      	it	ne
    646c:	f04f 40a0 	movne.w	r0, #1342177280	; 0x50000000
    6470:	4770      	bx	lr
    6472:	bf00      	nop
    6474:	50000300 	.word	0x50000300

00006478 <nrfx_spi_init>:

nrfx_err_t nrfx_spi_init(nrfx_spi_t const *        p_instance,
                         nrfx_spi_config_t const * p_config,
                         nrfx_spi_evt_handler_t    handler,
                         void *                    p_context)
{
    6478:	e92d 43f7 	stmdb	sp!, {r0, r1, r2, r4, r5, r6, r7, r8, r9, lr}
    NRFX_ASSERT(p_config);
    spi_control_block_t * p_cb  = &m_cb[p_instance->drv_inst_idx];
    647c:	7906      	ldrb	r6, [r0, #4]
    nrfx_err_t err_code;

    if (p_cb->state != NRFX_DRV_STATE_UNINITIALIZED)
    647e:	4c4c      	ldr	r4, [pc, #304]	; (65b0 <nrfx_spi_init+0x138>)
{
    6480:	4680      	mov	r8, r0
    if (p_cb->state != NRFX_DRV_STATE_UNINITIALIZED)
    6482:	2028      	movs	r0, #40	; 0x28
    6484:	4370      	muls	r0, r6
    6486:	1825      	adds	r5, r4, r0
    6488:	7f2f      	ldrb	r7, [r5, #28]
    648a:	2f00      	cmp	r7, #0
    648c:	f040 808e 	bne.w	65ac <nrfx_spi_init+0x134>
                         NRFX_LOG_ERROR_STRING_GET(err_code));
        return err_code;
    }
#endif // NRFX_CHECK(NRFX_PRS_ENABLED)

    p_cb->handler = handler;
    6490:	5022      	str	r2, [r4, r0]
    p_cb->p_context = p_context;
    6492:	606b      	str	r3, [r5, #4]
    // Configure pins used by the peripheral:
    // - SCK - output with initial value corresponding with the SPI mode used:
    //   0 - for modes 0 and 1 (CPOL = 0), 1 - for modes 2 and 3 (CPOL = 1);
    //   according to the reference manual guidelines this pin and its input
    //   buffer must always be connected for the SPI to work.
    if (p_config->mode <= NRF_SPI_MODE_1)
    6494:	7b0b      	ldrb	r3, [r1, #12]
    6496:	7808      	ldrb	r0, [r1, #0]
    6498:	2b01      	cmp	r3, #1
    649a:	d878      	bhi.n	658e <nrfx_spi_init+0x116>
    {
        nrf_gpio_pin_clear(p_config->sck_pin);
    649c:	f002 fc1e 	bl	8cdc <nrf_gpio_pin_clear>
    }
    else
    {
        nrf_gpio_pin_set(p_config->sck_pin);
    }
    nrf_gpio_cfg(p_config->sck_pin,
    64a0:	780b      	ldrb	r3, [r1, #0]
    64a2:	9301      	str	r3, [sp, #4]
    NRF_GPIO_Type * reg = nrf_gpio_pin_port_decode(&pin_number);
    64a4:	a801      	add	r0, sp, #4
    64a6:	f7ff ffd9 	bl	645c <nrf_gpio_pin_port_decode>
    reg->PIN_CNF[pin_number] = ((uint32_t)dir << GPIO_PIN_CNF_DIR_Pos)
    64aa:	9b01      	ldr	r3, [sp, #4]
    64ac:	f503 73e0 	add.w	r3, r3, #448	; 0x1c0
    64b0:	2201      	movs	r2, #1
    64b2:	f840 2023 	str.w	r2, [r0, r3, lsl #2]
                 NRF_GPIO_PIN_INPUT_CONNECT,
                 NRF_GPIO_PIN_NOPULL,
                 NRF_GPIO_PIN_S0S1,
                 NRF_GPIO_PIN_NOSENSE);
    // - MOSI (optional) - output with initial value 0,
    if (p_config->mosi_pin != NRFX_SPI_PIN_NOT_USED)
    64b6:	784d      	ldrb	r5, [r1, #1]
    64b8:	2dff      	cmp	r5, #255	; 0xff
    64ba:	d06b      	beq.n	6594 <nrfx_spi_init+0x11c>
    {
        mosi_pin = p_config->mosi_pin;
        nrf_gpio_pin_clear(mosi_pin);
    64bc:	4628      	mov	r0, r5
    64be:	f002 fc0d 	bl	8cdc <nrf_gpio_pin_clear>
    NRF_GPIO_Type * reg = nrf_gpio_pin_port_decode(&pin_number);
    64c2:	a801      	add	r0, sp, #4
    64c4:	9501      	str	r5, [sp, #4]
    64c6:	f7ff ffc9 	bl	645c <nrf_gpio_pin_port_decode>
    reg->PIN_CNF[pin_number] = ((uint32_t)dir << GPIO_PIN_CNF_DIR_Pos)
    64ca:	9b01      	ldr	r3, [sp, #4]
    64cc:	f503 73e0 	add.w	r3, r3, #448	; 0x1c0
    64d0:	2203      	movs	r2, #3
    64d2:	f840 2023 	str.w	r2, [r0, r3, lsl #2]
    else
    {
        mosi_pin = NRF_SPI_PIN_NOT_CONNECTED;
    }
    // - MISO (optional) - input,
    if (p_config->miso_pin != NRFX_SPI_PIN_NOT_USED)
    64d6:	788f      	ldrb	r7, [r1, #2]
    64d8:	2fff      	cmp	r7, #255	; 0xff
    64da:	d05e      	beq.n	659a <nrfx_spi_init+0x122>
    NRF_GPIO_Type * reg = nrf_gpio_pin_port_decode(&pin_number);
    64dc:	a801      	add	r0, sp, #4
    {
        miso_pin = p_config->miso_pin;
        nrf_gpio_cfg_input(miso_pin, p_config->miso_pull);
    64de:	f891 900e 	ldrb.w	r9, [r1, #14]
    nrf_gpio_cfg(
    64e2:	9701      	str	r7, [sp, #4]
    NRF_GPIO_Type * reg = nrf_gpio_pin_port_decode(&pin_number);
    64e4:	f7ff ffba 	bl	645c <nrf_gpio_pin_port_decode>
    reg->PIN_CNF[pin_number] = ((uint32_t)dir << GPIO_PIN_CNF_DIR_Pos)
    64e8:	9b01      	ldr	r3, [sp, #4]
    64ea:	f503 73e0 	add.w	r3, r3, #448	; 0x1c0
                               | ((uint32_t)pull << GPIO_PIN_CNF_PULL_Pos)
    64ee:	ea4f 0289 	mov.w	r2, r9, lsl #2
    reg->PIN_CNF[pin_number] = ((uint32_t)dir << GPIO_PIN_CNF_DIR_Pos)
    64f2:	f840 2023 	str.w	r2, [r0, r3, lsl #2]
    else
    {
        miso_pin = NRF_SPI_PIN_NOT_CONNECTED;
    }
    // - Slave Select (optional) - output with initial value 1 (inactive).
    if (p_config->ss_pin != NRFX_SPI_PIN_NOT_USED)
    64f6:	78c8      	ldrb	r0, [r1, #3]
    64f8:	28ff      	cmp	r0, #255	; 0xff
    64fa:	d00c      	beq.n	6516 <nrfx_spi_init+0x9e>
    {
        nrf_gpio_pin_set(p_config->ss_pin);
    64fc:	f002 fbe1 	bl	8cc2 <nrf_gpio_pin_set>
    NRF_GPIO_Type * reg = nrf_gpio_pin_port_decode(&pin_number);
    6500:	a801      	add	r0, sp, #4
        nrf_gpio_cfg_output(p_config->ss_pin);
    6502:	78cb      	ldrb	r3, [r1, #3]
    6504:	9301      	str	r3, [sp, #4]
    6506:	f7ff ffa9 	bl	645c <nrf_gpio_pin_port_decode>
    reg->PIN_CNF[pin_number] = ((uint32_t)dir << GPIO_PIN_CNF_DIR_Pos)
    650a:	9b01      	ldr	r3, [sp, #4]
    650c:	f503 73e0 	add.w	r3, r3, #448	; 0x1c0
    6510:	2203      	movs	r2, #3
    6512:	f840 2023 	str.w	r2, [r0, r3, lsl #2]
    }
    m_cb[p_instance->drv_inst_idx].ss_pin = p_config->ss_pin;
    6516:	f898 2004 	ldrb.w	r2, [r8, #4]
    651a:	78c8      	ldrb	r0, [r1, #3]
    651c:	2328      	movs	r3, #40	; 0x28
    651e:	fb03 4302 	mla	r3, r3, r2, r4
    6522:	7798      	strb	r0, [r3, #30]

    NRF_SPI_Type * p_spi = p_instance->p_reg;
    6524:	f8d8 0000 	ldr.w	r0, [r8]
    nrf_spi_pins_set(p_spi, p_config->sck_pin, mosi_pin, miso_pin);
    6528:	780b      	ldrb	r3, [r1, #0]
    p_reg->PSEL.SCK = sck_pin;
    652a:	f8c0 3508 	str.w	r3, [r0, #1288]	; 0x508
    p_reg->FREQUENCY = (uint32_t)frequency;
    652e:	688b      	ldr	r3, [r1, #8]
    p_reg->PSEL.MOSI = mosi_pin;
    6530:	f8c0 550c 	str.w	r5, [r0, #1292]	; 0x50c
    p_reg->PSEL.MISO = miso_pin;
    6534:	f8c0 7510 	str.w	r7, [r0, #1296]	; 0x510
    p_reg->FREQUENCY = (uint32_t)frequency;
    6538:	f8c0 3524 	str.w	r3, [r0, #1316]	; 0x524
        SPI_CONFIG_ORDER_MsbFirst : SPI_CONFIG_ORDER_LsbFirst);
    653c:	7b4b      	ldrb	r3, [r1, #13]
    nrf_spi_frequency_set(p_spi, p_config->frequency);
    nrf_spi_configure(p_spi, p_config->mode, p_config->bit_order);
    653e:	7b0d      	ldrb	r5, [r1, #12]
    6540:	3b00      	subs	r3, #0
    6542:	bf18      	it	ne
    6544:	2301      	movne	r3, #1
    switch (spi_mode)
    6546:	2d02      	cmp	r5, #2
    6548:	d02a      	beq.n	65a0 <nrfx_spi_init+0x128>
    654a:	2d03      	cmp	r5, #3
    654c:	d02b      	beq.n	65a6 <nrfx_spi_init+0x12e>
    654e:	2d01      	cmp	r5, #1
    6550:	d101      	bne.n	6556 <nrfx_spi_init+0xde>
        config |= (SPI_CONFIG_CPOL_ActiveHigh << SPI_CONFIG_CPOL_Pos) |
    6552:	f043 0302 	orr.w	r3, r3, #2
    p_reg->CONFIG = config;
    6556:	f8c0 3554 	str.w	r3, [r0, #1364]	; 0x554

    m_cb[p_instance->drv_inst_idx].orc = p_config->orc;
    655a:	2328      	movs	r3, #40	; 0x28
    655c:	fb03 4202 	mla	r2, r3, r2, r4

    nrf_spi_enable(p_spi);

    if (p_cb->handler)
    6560:	4373      	muls	r3, r6
    m_cb[p_instance->drv_inst_idx].orc = p_config->orc;
    6562:	7949      	ldrb	r1, [r1, #5]
    if (p_cb->handler)
    6564:	58e3      	ldr	r3, [r4, r3]
    m_cb[p_instance->drv_inst_idx].orc = p_config->orc;
    6566:	77d1      	strb	r1, [r2, #31]
    p_reg->ENABLE = (SPI_ENABLE_ENABLE_Enabled << SPI_ENABLE_ENABLE_Pos);
    6568:	2201      	movs	r2, #1
    656a:	f8c0 2500 	str.w	r2, [r0, #1280]	; 0x500
    if (p_cb->handler)
    656e:	b11b      	cbz	r3, 6578 <nrfx_spi_init+0x100>
    {
        NRFX_IRQ_PRIORITY_SET(nrfx_get_irq_number(p_instance->p_reg),
            p_config->irq_priority);
        NRFX_IRQ_ENABLE(nrfx_get_irq_number(p_instance->p_reg));
    6570:	f340 3007 	sbfx	r0, r0, #12, #8
    6574:	f7fd f9c0 	bl	38f8 <arch_irq_enable>
    }

    p_cb->transfer_in_progress = false;
    6578:	2328      	movs	r3, #40	; 0x28
    657a:	fb03 4406 	mla	r4, r3, r6, r4
    657e:	2300      	movs	r3, #0
    6580:	7763      	strb	r3, [r4, #29]
    p_cb->state = NRFX_DRV_STATE_INITIALIZED;

    err_code = NRFX_SUCCESS;
    NRFX_LOG_INFO("Function: %s, error code: %s.", __func__, NRFX_LOG_ERROR_STRING_GET(err_code));
    return err_code;
    6582:	480c      	ldr	r0, [pc, #48]	; (65b4 <nrfx_spi_init+0x13c>)
    p_cb->state = NRFX_DRV_STATE_INITIALIZED;
    6584:	2301      	movs	r3, #1
    6586:	7723      	strb	r3, [r4, #28]
}
    6588:	b003      	add	sp, #12
    658a:	e8bd 83f0 	ldmia.w	sp!, {r4, r5, r6, r7, r8, r9, pc}
        nrf_gpio_pin_set(p_config->sck_pin);
    658e:	f002 fb98 	bl	8cc2 <nrf_gpio_pin_set>
    6592:	e785      	b.n	64a0 <nrfx_spi_init+0x28>
        mosi_pin = NRF_SPI_PIN_NOT_CONNECTED;
    6594:	f04f 35ff 	mov.w	r5, #4294967295	; 0xffffffff
    6598:	e79d      	b.n	64d6 <nrfx_spi_init+0x5e>
        miso_pin = NRF_SPI_PIN_NOT_CONNECTED;
    659a:	f04f 37ff 	mov.w	r7, #4294967295	; 0xffffffff
    659e:	e7aa      	b.n	64f6 <nrfx_spi_init+0x7e>
        config |= (SPI_CONFIG_CPOL_ActiveLow  << SPI_CONFIG_CPOL_Pos) |
    65a0:	f043 0304 	orr.w	r3, r3, #4
        break;
    65a4:	e7d7      	b.n	6556 <nrfx_spi_init+0xde>
        config |= (SPI_CONFIG_CPOL_ActiveLow  << SPI_CONFIG_CPOL_Pos) |
    65a6:	f043 0306 	orr.w	r3, r3, #6
        break;
    65aa:	e7d4      	b.n	6556 <nrfx_spi_init+0xde>
        return err_code;
    65ac:	4802      	ldr	r0, [pc, #8]	; (65b8 <nrfx_spi_init+0x140>)
    65ae:	e7eb      	b.n	6588 <nrfx_spi_init+0x110>
    65b0:	20000904 	.word	0x20000904
    65b4:	0bad0000 	.word	0x0bad0000
    65b8:	0bad0005 	.word	0x0bad0005

000065bc <nrfx_spi_xfer>:
}

nrfx_err_t nrfx_spi_xfer(nrfx_spi_t const *           p_instance,
                         nrfx_spi_xfer_desc_t const * p_xfer_desc,
                         uint32_t                     flags)
{
    65bc:	e92d 43f8 	stmdb	sp!, {r3, r4, r5, r6, r7, r8, r9, lr}
    spi_control_block_t * p_cb  = &m_cb[p_instance->drv_inst_idx];
    65c0:	7904      	ldrb	r4, [r0, #4]
    NRFX_ASSERT(p_xfer_desc->p_tx_buffer != NULL || p_xfer_desc->tx_length == 0);
    NRFX_ASSERT(p_xfer_desc->p_rx_buffer != NULL || p_xfer_desc->rx_length == 0);

    nrfx_err_t err_code = NRFX_SUCCESS;

    if (p_cb->transfer_in_progress)
    65c2:	4d39      	ldr	r5, [pc, #228]	; (66a8 <nrfx_spi_xfer+0xec>)
    65c4:	2328      	movs	r3, #40	; 0x28
    65c6:	4363      	muls	r3, r4
{
    65c8:	4690      	mov	r8, r2
    if (p_cb->transfer_in_progress)
    65ca:	18ea      	adds	r2, r5, r3
{
    65cc:	460f      	mov	r7, r1
    if (p_cb->transfer_in_progress)
    65ce:	7f51      	ldrb	r1, [r2, #29]
{
    65d0:	4681      	mov	r9, r0
    if (p_cb->transfer_in_progress)
    65d2:	2900      	cmp	r1, #0
    65d4:	d165      	bne.n	66a2 <nrfx_spi_xfer+0xe6>
                         NRFX_LOG_ERROR_STRING_GET(err_code));
        return err_code;
    }
    else
    {
        if (p_cb->handler)
    65d6:	58eb      	ldr	r3, [r5, r3]
    65d8:	b10b      	cbz	r3, 65de <nrfx_spi_xfer+0x22>
        {
            p_cb->transfer_in_progress = true;
    65da:	2301      	movs	r3, #1
    65dc:	7753      	strb	r3, [r2, #29]
        }
    }

    p_cb->evt.xfer_desc = *p_xfer_desc;
    65de:	e897 000f 	ldmia.w	r7, {r0, r1, r2, r3}
    65e2:	2628      	movs	r6, #40	; 0x28
    65e4:	fb06 5604 	mla	r6, r6, r4, r5
    65e8:	f106 0c0c 	add.w	ip, r6, #12
    65ec:	e88c 000f 	stmia.w	ip, {r0, r1, r2, r3}
    p_cb->abort = false;

    if (p_cb->ss_pin != NRFX_SPI_PIN_NOT_USED)
    65f0:	7fb0      	ldrb	r0, [r6, #30]
    p_cb->abort = false;
    65f2:	2300      	movs	r3, #0
    if (p_cb->ss_pin != NRFX_SPI_PIN_NOT_USED)
    65f4:	28ff      	cmp	r0, #255	; 0xff
    p_cb->abort = false;
    65f6:	f886 3024 	strb.w	r3, [r6, #36]	; 0x24
    if (p_cb->ss_pin != NRFX_SPI_PIN_NOT_USED)
    65fa:	d001      	beq.n	6600 <nrfx_spi_xfer+0x44>
    {
        nrf_gpio_pin_clear(p_cb->ss_pin);
    65fc:	f002 fb6e 	bl	8cdc <nrf_gpio_pin_clear>
    }
    if (flags)
    6600:	2328      	movs	r3, #40	; 0x28
    6602:	f1b8 0f00 	cmp.w	r8, #0
    6606:	d006      	beq.n	6616 <nrfx_spi_xfer+0x5a>
    {
        p_cb->transfer_in_progress = false;
    6608:	fb03 5404 	mla	r4, r3, r4, r5
        err_code = NRFX_ERROR_NOT_SUPPORTED;
    660c:	4827      	ldr	r0, [pc, #156]	; (66ac <nrfx_spi_xfer+0xf0>)
        p_cb->transfer_in_progress = false;
    660e:	2300      	movs	r3, #0
    6610:	7763      	strb	r3, [r4, #29]
    }
    NRFX_LOG_INFO("Function: %s, error code: %s.",
                  __func__,
                  NRFX_LOG_ERROR_STRING_GET(err_code));
    return err_code;
}
    6612:	e8bd 83f8 	ldmia.w	sp!, {r3, r4, r5, r6, r7, r8, r9, pc}
        spi_xfer(p_instance->p_reg, p_cb, p_xfer_desc);
    6616:	f8d9 6000 	ldr.w	r6, [r9]
    p_cb->bytes_transferred = 0;
    661a:	fb03 5304 	mla	r3, r3, r4, r5
    p_reg->INTENCLR = mask;
    661e:	2204      	movs	r2, #4
    6620:	f8c6 2308 	str.w	r2, [r6, #776]	; 0x308
    6624:	f8c3 8020 	str.w	r8, [r3, #32]
    *((volatile uint32_t *)((uint8_t *)p_reg + (uint32_t)event)) = 0x0UL;
    6628:	f8c6 8108 	str.w	r8, [r6, #264]	; 0x108
    662c:	f8d6 2108 	ldr.w	r2, [r6, #264]	; 0x108
        (p_xfer_desc->tx_length > 0 ? p_xfer_desc->p_tx_buffer[0] : p_cb->orc));
    6630:	687a      	ldr	r2, [r7, #4]
    nrf_spi_txd_set(p_spi,
    6632:	b192      	cbz	r2, 665a <nrfx_spi_xfer+0x9e>
    6634:	683b      	ldr	r3, [r7, #0]
    6636:	781b      	ldrb	r3, [r3, #0]
    p_reg->TXD = data;
    6638:	f8c6 351c 	str.w	r3, [r6, #1308]	; 0x51c
    if (p_xfer_desc->tx_length > 1)
    663c:	2a01      	cmp	r2, #1
    663e:	d90e      	bls.n	665e <nrfx_spi_xfer+0xa2>
        nrf_spi_txd_set(p_spi, p_xfer_desc->p_tx_buffer[1]);
    6640:	683b      	ldr	r3, [r7, #0]
    6642:	785b      	ldrb	r3, [r3, #1]
    6644:	f8c6 351c 	str.w	r3, [r6, #1308]	; 0x51c
    if (p_cb->handler)
    6648:	2328      	movs	r3, #40	; 0x28
    664a:	4363      	muls	r3, r4
    664c:	58ef      	ldr	r7, [r5, r3]
    664e:	b177      	cbz	r7, 666e <nrfx_spi_xfer+0xb2>
    p_reg->INTENSET = mask;
    6650:	2304      	movs	r3, #4
    6652:	f8c6 3304 	str.w	r3, [r6, #772]	; 0x304
    nrfx_err_t err_code = NRFX_SUCCESS;
    6656:	4816      	ldr	r0, [pc, #88]	; (66b0 <nrfx_spi_xfer+0xf4>)
    6658:	e7db      	b.n	6612 <nrfx_spi_xfer+0x56>
    nrf_spi_txd_set(p_spi,
    665a:	7fdb      	ldrb	r3, [r3, #31]
    665c:	e7ec      	b.n	6638 <nrfx_spi_xfer+0x7c>
    else if (p_xfer_desc->rx_length > 1)
    665e:	68fb      	ldr	r3, [r7, #12]
    6660:	2b01      	cmp	r3, #1
    6662:	d9f1      	bls.n	6648 <nrfx_spi_xfer+0x8c>
        nrf_spi_txd_set(p_spi, p_cb->orc);
    6664:	2328      	movs	r3, #40	; 0x28
    6666:	fb03 5304 	mla	r3, r3, r4, r5
    p_reg->TXD = data;
    666a:	7fdb      	ldrb	r3, [r3, #31]
    666c:	e7ea      	b.n	6644 <nrfx_spi_xfer+0x88>
    spi_control_block_t * p_cb  = &m_cb[p_instance->drv_inst_idx];
    666e:	eb04 0184 	add.w	r1, r4, r4, lsl #2
    6672:	eb05 01c1 	add.w	r1, r5, r1, lsl #3
    return (bool)*(volatile uint32_t *)((uint8_t *)p_reg + (uint32_t)event);
    6676:	f8d6 3108 	ldr.w	r3, [r6, #264]	; 0x108
            while (!nrf_spi_event_check(p_spi, NRF_SPI_EVENT_READY)) {}
    667a:	2b00      	cmp	r3, #0
    667c:	d0fb      	beq.n	6676 <nrfx_spi_xfer+0xba>
    *((volatile uint32_t *)((uint8_t *)p_reg + (uint32_t)event)) = 0x0UL;
    667e:	f8c6 7108 	str.w	r7, [r6, #264]	; 0x108
        } while (transfer_byte(p_spi, p_cb));
    6682:	4630      	mov	r0, r6
    6684:	f8d6 3108 	ldr.w	r3, [r6, #264]	; 0x108
    6688:	f002 fb35 	bl	8cf6 <transfer_byte>
    668c:	2800      	cmp	r0, #0
    668e:	d1f2      	bne.n	6676 <nrfx_spi_xfer+0xba>
        if (p_cb->ss_pin != NRFX_SPI_PIN_NOT_USED)
    6690:	2328      	movs	r3, #40	; 0x28
    6692:	fb03 5404 	mla	r4, r3, r4, r5
    6696:	7fa0      	ldrb	r0, [r4, #30]
    6698:	28ff      	cmp	r0, #255	; 0xff
    669a:	d0dc      	beq.n	6656 <nrfx_spi_xfer+0x9a>
            nrf_gpio_pin_set(p_cb->ss_pin);
    669c:	f002 fb11 	bl	8cc2 <nrf_gpio_pin_set>
    66a0:	e7d9      	b.n	6656 <nrfx_spi_xfer+0x9a>
        return err_code;
    66a2:	4804      	ldr	r0, [pc, #16]	; (66b4 <nrfx_spi_xfer+0xf8>)
    66a4:	e7b5      	b.n	6612 <nrfx_spi_xfer+0x56>
    66a6:	bf00      	nop
    66a8:	20000904 	.word	0x20000904
    66ac:	0bad0003 	.word	0x0bad0003
    66b0:	0bad0000 	.word	0x0bad0000
    66b4:	0bad000b 	.word	0x0bad000b

000066b8 <nrfx_spi_1_irq_handler>:
    66b8:	f04f 2040 	mov.w	r0, #1073758208	; 0x40004000
    66bc:	2300      	movs	r3, #0
}
#endif

#if NRFX_CHECK(NRFX_SPI1_ENABLED)
void nrfx_spi_1_irq_handler(void)
{
    66be:	b510      	push	{r4, lr}
    if (!transfer_byte(p_spi, p_cb))
    66c0:	490b      	ldr	r1, [pc, #44]	; (66f0 <nrfx_spi_1_irq_handler+0x38>)
    66c2:	f8c0 3108 	str.w	r3, [r0, #264]	; 0x108
    66c6:	f8d0 3108 	ldr.w	r3, [r0, #264]	; 0x108
    66ca:	f002 fb14 	bl	8cf6 <transfer_byte>
    66ce:	b968      	cbnz	r0, 66ec <nrfx_spi_1_irq_handler+0x34>
    if (p_cb->ss_pin != NRFX_SPI_PIN_NOT_USED)
    66d0:	7f88      	ldrb	r0, [r1, #30]
    66d2:	28ff      	cmp	r0, #255	; 0xff
    66d4:	d001      	beq.n	66da <nrfx_spi_1_irq_handler+0x22>
        nrf_gpio_pin_set(p_cb->ss_pin);
    66d6:	f002 faf4 	bl	8cc2 <nrf_gpio_pin_set>
    p_cb->transfer_in_progress = false;
    66da:	2300      	movs	r3, #0
    p_cb->evt.type = NRFX_SPI_EVENT_DONE;
    66dc:	720b      	strb	r3, [r1, #8]
    p_cb->transfer_in_progress = false;
    66de:	774b      	strb	r3, [r1, #29]
    irq_handler(NRF_SPI1, &m_cb[NRFX_SPI1_INST_IDX]);
}
    66e0:	e8bd 4010 	ldmia.w	sp!, {r4, lr}
    p_cb->handler(&p_cb->evt, p_cb->p_context);
    66e4:	e9d1 3100 	ldrd	r3, r1, [r1]
    66e8:	4802      	ldr	r0, [pc, #8]	; (66f4 <nrfx_spi_1_irq_handler+0x3c>)
    66ea:	4718      	bx	r3
}
    66ec:	bd10      	pop	{r4, pc}
    66ee:	bf00      	nop
    66f0:	20000904 	.word	0x20000904
    66f4:	2000090c 	.word	0x2000090c

000066f8 <z_sys_init_run_level>:
		/* End marker */
		__init_end,
	};
	const struct init_entry *entry;

	for (entry = levels[level]; entry < levels[level+1]; entry++) {
    66f8:	4b0e      	ldr	r3, [pc, #56]	; (6734 <z_sys_init_run_level+0x3c>)
{
    66fa:	b570      	push	{r4, r5, r6, lr}
	for (entry = levels[level]; entry < levels[level+1]; entry++) {
    66fc:	f853 4020 	ldr.w	r4, [r3, r0, lsl #2]
    6700:	3001      	adds	r0, #1
    6702:	f853 6020 	ldr.w	r6, [r3, r0, lsl #2]
    6706:	42a6      	cmp	r6, r4
    6708:	d800      	bhi.n	670c <z_sys_init_run_level+0x14>
				dev->state->init_res = rc;
			}
			dev->state->initialized = true;
		}
	}
}
    670a:	bd70      	pop	{r4, r5, r6, pc}
		int rc = entry->init(dev);
    670c:	e9d4 3500 	ldrd	r3, r5, [r4]
    6710:	4628      	mov	r0, r5
    6712:	4798      	blx	r3
		if (dev != NULL) {
    6714:	b165      	cbz	r5, 6730 <z_sys_init_run_level+0x38>
			if (rc != 0) {
    6716:	68eb      	ldr	r3, [r5, #12]
    6718:	b130      	cbz	r0, 6728 <z_sys_init_run_level+0x30>
				if (rc < 0) {
    671a:	2800      	cmp	r0, #0
    671c:	bfb8      	it	lt
    671e:	4240      	neglt	r0, r0
				dev->state->init_res = rc;
    6720:	28ff      	cmp	r0, #255	; 0xff
    6722:	bfa8      	it	ge
    6724:	20ff      	movge	r0, #255	; 0xff
    6726:	7018      	strb	r0, [r3, #0]
			dev->state->initialized = true;
    6728:	785a      	ldrb	r2, [r3, #1]
    672a:	f042 0201 	orr.w	r2, r2, #1
    672e:	705a      	strb	r2, [r3, #1]
	for (entry = levels[level]; entry < levels[level+1]; entry++) {
    6730:	3408      	adds	r4, #8
    6732:	e7e8      	b.n	6706 <z_sys_init_run_level+0xe>
    6734:	000096c8 	.word	0x000096c8

00006738 <z_impl_device_get_binding>:

const struct device *z_impl_device_get_binding(const char *name)
{
    6738:	b570      	push	{r4, r5, r6, lr}
	const struct device *dev;

	/* A null string identifies no device.  So does an empty
	 * string.
	 */
	if ((name == NULL) || (name[0] == '\0')) {
    673a:	4605      	mov	r5, r0
    673c:	b910      	cbnz	r0, 6744 <z_impl_device_get_binding+0xc>
		return NULL;
    673e:	2400      	movs	r4, #0
			return dev;
		}
	}

	return NULL;
}
    6740:	4620      	mov	r0, r4
    6742:	bd70      	pop	{r4, r5, r6, pc}
	if ((name == NULL) || (name[0] == '\0')) {
    6744:	7803      	ldrb	r3, [r0, #0]
    6746:	2b00      	cmp	r3, #0
    6748:	d0f9      	beq.n	673e <z_impl_device_get_binding+0x6>
	for (dev = __device_start; dev != __device_end; dev++) {
    674a:	4a0f      	ldr	r2, [pc, #60]	; (6788 <z_impl_device_get_binding+0x50>)
    674c:	4c0f      	ldr	r4, [pc, #60]	; (678c <z_impl_device_get_binding+0x54>)
    674e:	4616      	mov	r6, r2
    6750:	4294      	cmp	r4, r2
    6752:	d108      	bne.n	6766 <z_impl_device_get_binding+0x2e>
	for (dev = __device_start; dev != __device_end; dev++) {
    6754:	4c0d      	ldr	r4, [pc, #52]	; (678c <z_impl_device_get_binding+0x54>)
    6756:	42b4      	cmp	r4, r6
    6758:	d0f1      	beq.n	673e <z_impl_device_get_binding+0x6>
		if (z_device_ready(dev) && (strcmp(name, dev->name) == 0)) {
    675a:	4620      	mov	r0, r4
    675c:	f002 faff 	bl	8d5e <z_device_ready>
    6760:	b950      	cbnz	r0, 6778 <z_impl_device_get_binding+0x40>
	for (dev = __device_start; dev != __device_end; dev++) {
    6762:	3418      	adds	r4, #24
    6764:	e7f7      	b.n	6756 <z_impl_device_get_binding+0x1e>
		if (z_device_ready(dev) && (dev->name == name)) {
    6766:	4620      	mov	r0, r4
    6768:	f002 faf9 	bl	8d5e <z_device_ready>
    676c:	b110      	cbz	r0, 6774 <z_impl_device_get_binding+0x3c>
    676e:	6823      	ldr	r3, [r4, #0]
    6770:	42ab      	cmp	r3, r5
    6772:	d0e5      	beq.n	6740 <z_impl_device_get_binding+0x8>
	for (dev = __device_start; dev != __device_end; dev++) {
    6774:	3418      	adds	r4, #24
    6776:	e7eb      	b.n	6750 <z_impl_device_get_binding+0x18>
		if (z_device_ready(dev) && (strcmp(name, dev->name) == 0)) {
    6778:	6821      	ldr	r1, [r4, #0]
    677a:	4628      	mov	r0, r5
    677c:	f7fa fada 	bl	d34 <strcmp>
    6780:	2800      	cmp	r0, #0
    6782:	d1ee      	bne.n	6762 <z_impl_device_get_binding+0x2a>
    6784:	e7dc      	b.n	6740 <z_impl_device_get_binding+0x8>
    6786:	bf00      	nop
    6788:	2000014c 	.word	0x2000014c
    678c:	200000a4 	.word	0x200000a4

00006790 <k_sys_fatal_error_handler>:
/* LCOV_EXCL_STOP */

/* LCOV_EXCL_START */
__weak void k_sys_fatal_error_handler(unsigned int reason,
				      const z_arch_esf_t *esf)
{
    6790:	b510      	push	{r4, lr}
    6792:	4604      	mov	r4, r0
	z_impl_log_panic();
    6794:	f7fc f942 	bl	2a1c <z_impl_log_panic>
    6798:	4b06      	ldr	r3, [pc, #24]	; (67b4 <k_sys_fatal_error_handler+0x24>)
    679a:	4907      	ldr	r1, [pc, #28]	; (67b8 <k_sys_fatal_error_handler+0x28>)
	ARG_UNUSED(esf);

	LOG_PANIC();
	LOG_ERR("Halting system");
    679c:	4807      	ldr	r0, [pc, #28]	; (67bc <k_sys_fatal_error_handler+0x2c>)
    679e:	1ac9      	subs	r1, r1, r3
    67a0:	08c9      	lsrs	r1, r1, #3
    67a2:	0189      	lsls	r1, r1, #6
    67a4:	f041 0101 	orr.w	r1, r1, #1
    67a8:	f001 fc3c 	bl	8024 <log_0>
	arch_system_halt(reason);
    67ac:	4620      	mov	r0, r4
    67ae:	f002 fadf 	bl	8d70 <arch_system_halt>
    67b2:	bf00      	nop
    67b4:	00009384 	.word	0x00009384
    67b8:	000093a4 	.word	0x000093a4
    67bc:	00009fa9 	.word	0x00009fa9

000067c0 <z_fatal_error>:
	return 0;
#endif
}

void z_fatal_error(unsigned int reason, const z_arch_esf_t *esf)
{
    67c0:	e92d 41f3 	stmdb	sp!, {r0, r1, r4, r5, r6, r7, r8, lr}
    67c4:	4606      	mov	r6, r0
    67c6:	460f      	mov	r7, r1
	__asm__ volatile(
    67c8:	f04f 0320 	mov.w	r3, #32
    67cc:	f3ef 8811 	mrs	r8, BASEPRI
    67d0:	f383 8811 	msr	BASEPRI, r3
    67d4:	f3bf 8f6f 	isb	sy
	return z_impl_k_current_get();
    67d8:	f000 fd54 	bl	7284 <z_impl_k_current_get>
    67dc:	4c1f      	ldr	r4, [pc, #124]	; (685c <z_fatal_error+0x9c>)
    67de:	4b20      	ldr	r3, [pc, #128]	; (6860 <z_fatal_error+0xa0>)
    67e0:	1ae4      	subs	r4, r4, r3
    67e2:	2e04      	cmp	r6, #4
    67e4:	ea4f 04d4 	mov.w	r4, r4, lsr #3
    67e8:	bf96      	itet	ls
    67ea:	4a1e      	ldrls	r2, [pc, #120]	; (6864 <z_fatal_error+0xa4>)
	struct k_thread *thread = k_current_get();

	/* twister looks for the "ZEPHYR FATAL ERROR" string, don't
	 * change it without also updating twister
	 */
	LOG_ERR(">>> ZEPHYR FATAL ERROR %d: %s on CPU %d", reason,
    67ec:	4a1e      	ldrhi	r2, [pc, #120]	; (6868 <z_fatal_error+0xa8>)
    67ee:	f852 2026 	ldrls.w	r2, [r2, r6, lsl #2]
    67f2:	01a4      	lsls	r4, r4, #6
    67f4:	f044 0301 	orr.w	r3, r4, #1
    67f8:	4605      	mov	r5, r0
    67fa:	f8ad 3000 	strh.w	r3, [sp]
    67fe:	481b      	ldr	r0, [pc, #108]	; (686c <z_fatal_error+0xac>)
    6800:	2300      	movs	r3, #0
    6802:	4631      	mov	r1, r6
    6804:	f001 fc48 	bl	8098 <log_3>
	 * an IRQ or exception was being handled, or thread context.
	 *
	 * See #17656
	 */
#if defined(CONFIG_ARCH_HAS_NESTED_EXCEPTION_DETECTION)
	if ((esf != NULL) && arch_is_in_nested_exception(esf)) {
    6808:	b147      	cbz	r7, 681c <z_fatal_error+0x5c>
 * @return true if execution state was in handler mode, before
 *              the current exception occurred, otherwise false.
 */
static ALWAYS_INLINE bool arch_is_in_nested_exception(const z_arch_esf_t *esf)
{
	return (esf->basic.xpsr & IPSR_ISR_Msk) ? (true) : (false);
    680a:	69fb      	ldr	r3, [r7, #28]
    680c:	f3c3 0308 	ubfx	r3, r3, #0, #9
    6810:	b123      	cbz	r3, 681c <z_fatal_error+0x5c>
		LOG_ERR("Fault during interrupt handling\n");
    6812:	4817      	ldr	r0, [pc, #92]	; (6870 <z_fatal_error+0xb0>)
    6814:	f044 0101 	orr.w	r1, r4, #1
    6818:	f001 fc04 	bl	8024 <log_0>
	}
#endif

	LOG_ERR("Current thread: %p (%s)", thread,
    681c:	f044 0401 	orr.w	r4, r4, #1
	const char *thread_name = (thread != NULL) ? k_thread_name_get(thread) : NULL;
    6820:	b12d      	cbz	r5, 682e <z_fatal_error+0x6e>
    6822:	4628      	mov	r0, r5
    6824:	f002 fbd3 	bl	8fce <k_thread_name_get>
	if ((thread_name == NULL) || (thread_name[0] == '\0')) {
    6828:	b108      	cbz	r0, 682e <z_fatal_error+0x6e>
    682a:	7803      	ldrb	r3, [r0, #0]
    682c:	b903      	cbnz	r3, 6830 <z_fatal_error+0x70>
		thread_name = "unknown";
    682e:	4811      	ldr	r0, [pc, #68]	; (6874 <z_fatal_error+0xb4>)
	LOG_ERR("Current thread: %p (%s)", thread,
    6830:	f7fb ff70 	bl	2714 <log_strdup>
    6834:	4623      	mov	r3, r4
    6836:	4602      	mov	r2, r0
    6838:	4629      	mov	r1, r5
    683a:	480f      	ldr	r0, [pc, #60]	; (6878 <z_fatal_error+0xb8>)
    683c:	f001 fc13 	bl	8066 <log_2>
		log_strdup(thread_name_get(thread)));

	coredump(reason, esf, thread);

	k_sys_fatal_error_handler(reason, esf);
    6840:	4639      	mov	r1, r7
    6842:	4630      	mov	r0, r6
    6844:	f7ff ffa4 	bl	6790 <k_sys_fatal_error_handler>
	__asm__ volatile(
    6848:	f388 8811 	msr	BASEPRI, r8
    684c:	f3bf 8f6f 	isb	sy
	z_impl_k_thread_abort(thread);
    6850:	4628      	mov	r0, r5
#endif /*CONFIG_ARCH_HAS_NESTED_EXCEPTION_DETECTION */
	}

	arch_irq_unlock(key);
	k_thread_abort(thread);
}
    6852:	b002      	add	sp, #8
    6854:	e8bd 41f0 	ldmia.w	sp!, {r4, r5, r6, r7, r8, lr}
    6858:	f7fd bb9e 	b.w	3f98 <z_impl_k_thread_abort>
    685c:	000093a4 	.word	0x000093a4
    6860:	00009384 	.word	0x00009384
    6864:	000096e0 	.word	0x000096e0
    6868:	00009fb8 	.word	0x00009fb8
    686c:	00009fce 	.word	0x00009fce
    6870:	00009ff6 	.word	0x00009ff6
    6874:	00009fc6 	.word	0x00009fc6
    6878:	0000a017 	.word	0x0000a017

0000687c <idle>:
#endif	/* CONFIG_PM */
	sys_clock_idle_exit();
}

void idle(void *unused1, void *unused2, void *unused3)
{
    687c:	b508      	push	{r3, lr}
	_kernel.idle = ticks;
    687e:	4c09      	ldr	r4, [pc, #36]	; (68a4 <idle+0x28>)
	__asm__ volatile(
    6880:	f04f 0220 	mov.w	r2, #32
    6884:	f3ef 8311 	mrs	r3, BASEPRI
    6888:	f382 8811 	msr	BASEPRI, r2
    688c:	f3bf 8f6f 	isb	sy
	int32_t ticks = z_get_next_timeout_expiry();
    6890:	f002 fbe4 	bl	905c <z_get_next_timeout_expiry>
	_kernel.idle = ticks;
    6894:	6220      	str	r0, [r4, #32]
	if (pm_system_suspend(ticks) == PM_STATE_ACTIVE) {
    6896:	f7fc fc23 	bl	30e0 <pm_system_suspend>
    689a:	2800      	cmp	r0, #0
    689c:	d1f0      	bne.n	6880 <idle+0x4>
	arch_cpu_idle();
    689e:	f7fd f89b 	bl	39d8 <arch_cpu_idle>
}
    68a2:	e7ed      	b.n	6880 <idle+0x4>
    68a4:	2000092c 	.word	0x2000092c

000068a8 <z_bss_zero>:
 *
 * @return N/A
 */
void z_bss_zero(void)
{
	(void)memset(__bss_start, 0, __bss_end - __bss_start);
    68a8:	4802      	ldr	r0, [pc, #8]	; (68b4 <z_bss_zero+0xc>)
__ssp_bos_icheck3(memset, void *, int)
    68aa:	4a03      	ldr	r2, [pc, #12]	; (68b8 <z_bss_zero+0x10>)
    68ac:	2100      	movs	r1, #0
    68ae:	1a12      	subs	r2, r2, r0
    68b0:	f002 bc3c 	b.w	912c <memset>
    68b4:	200001b0 	.word	0x200001b0
    68b8:	20000e9c 	.word	0x20000e9c

000068bc <bg_thread_main>:
 * init functions, then invokes application's main() routine.
 *
 * @return N/A
 */
static void bg_thread_main(void *unused1, void *unused2, void *unused3)
{
    68bc:	b508      	push	{r3, lr}
	 * may perform memory management tasks (except for z_phys_map() which
	 * is allowed at any time)
	 */
	z_mem_manage_init();
#endif /* CONFIG_MMU */
	z_sys_post_kernel = true;
    68be:	4b0a      	ldr	r3, [pc, #40]	; (68e8 <bg_thread_main+0x2c>)
    68c0:	2201      	movs	r2, #1

	z_sys_init_run_level(_SYS_INIT_LEVEL_POST_KERNEL);
    68c2:	2002      	movs	r0, #2
	z_sys_post_kernel = true;
    68c4:	701a      	strb	r2, [r3, #0]
	z_sys_init_run_level(_SYS_INIT_LEVEL_POST_KERNEL);
    68c6:	f7ff ff17 	bl	66f8 <z_sys_init_run_level>
#if CONFIG_STACK_POINTER_RANDOM
	z_stack_adjust_initialized = 1;
#endif
	boot_banner();
    68ca:	f000 ffc5 	bl	7858 <boot_banner>
	__do_global_ctors_aux();
	__do_init_array_aux();
#endif

	/* Final init level before app starts */
	z_sys_init_run_level(_SYS_INIT_LEVEL_APPLICATION);
    68ce:	2003      	movs	r0, #3
    68d0:	f7ff ff12 	bl	66f8 <z_sys_init_run_level>

	z_init_static_threads();
    68d4:	f000 fe10 	bl	74f8 <z_init_static_threads>
	z_timestamp_main = k_cycle_get_32();
#endif

	extern void main(void);

	main();
    68d8:	f7fb f89e 	bl	1a18 <main>

	/* Mark nonessenrial since main() has no more work to do */
	z_main_thread.base.user_options &= ~K_ESSENTIAL;
    68dc:	4a03      	ldr	r2, [pc, #12]	; (68ec <bg_thread_main+0x30>)
    68de:	7b13      	ldrb	r3, [r2, #12]
    68e0:	f023 0301 	bic.w	r3, r3, #1
    68e4:	7313      	strb	r3, [r2, #12]

#ifdef CONFIG_COVERAGE_DUMP
	/* Dump coverage data once the main() has exited. */
	gcov_coverage_dump();
#endif
} /* LCOV_EXCL_LINE ... because we just dumped final coverage data */
    68e6:	bd08      	pop	{r3, pc}
    68e8:	20000e9b 	.word	0x20000e9b
    68ec:	200002e8 	.word	0x200002e8

000068f0 <z_cstart>:
 * cleared/zeroed.
 *
 * @return Does not return
 */
FUNC_NORETURN void z_cstart(void)
{
    68f0:	e92d 4880 	stmdb	sp!, {r7, fp, lr}
    68f4:	b0a7      	sub	sp, #156	; 0x9c
	/* gcov hook needed to get the coverage report.*/
	gcov_static_init();

	LOG_CORE_INIT();
    68f6:	f7fb fe65 	bl	25c4 <log_core_init>
 *
 * @return N/A
 */
static ALWAYS_INLINE void z_arm_interrupt_stack_setup(void)
{
	uint32_t msp =
    68fa:	f8df 90f8 	ldr.w	r9, [pc, #248]	; 69f4 <z_cstart+0x104>
  __ASM volatile ("MSR msp, %0" : : "r" (topOfMainStack) : );
    68fe:	f389 8808 	msr	MSP, r9
	 * for Cortex-M3 and Cortex-M4 (ARMv7-M) MCUs. For the rest
	 * of ARM Cortex-M processors this setting is enforced by
	 * default and it is not configurable.
	 */
#if defined(CONFIG_CPU_CORTEX_M3) || defined(CONFIG_CPU_CORTEX_M4)
	SCB->CCR |= SCB_CCR_STKALIGN_Msk;
    6902:	4d34      	ldr	r5, [pc, #208]	; (69d4 <z_cstart+0xe4>)
	_kernel.ready_q.cache = &z_main_thread;
    6904:	4e34      	ldr	r6, [pc, #208]	; (69d8 <z_cstart+0xe8>)
    6906:	696b      	ldr	r3, [r5, #20]
	stack_ptr = z_setup_new_thread(&z_main_thread, z_main_stack,
    6908:	f8df a0ec 	ldr.w	sl, [pc, #236]	; 69f8 <z_cstart+0x108>
	z_setup_new_thread(thread, stack,
    690c:	4f33      	ldr	r7, [pc, #204]	; (69dc <z_cstart+0xec>)
    690e:	f443 7300 	orr.w	r3, r3, #512	; 0x200
    SCB->SHP[(((uint32_t)IRQn) & 0xFUL)-4UL] = (uint8_t)((priority << (8U - __NVIC_PRIO_BITS)) & (uint32_t)0xFFUL);
    6912:	2400      	movs	r4, #0
    6914:	616b      	str	r3, [r5, #20]
    6916:	23e0      	movs	r3, #224	; 0xe0
    6918:	f885 3022 	strb.w	r3, [r5, #34]	; 0x22
    691c:	77ec      	strb	r4, [r5, #31]
    691e:	762c      	strb	r4, [r5, #24]
    6920:	766c      	strb	r4, [r5, #25]
    6922:	76ac      	strb	r4, [r5, #26]
#if defined(CONFIG_ARM_SECURE_FIRMWARE)
	NVIC_SetPriority(SecureFault_IRQn, _EXC_FAULT_PRIO);
#endif /* CONFIG_ARM_SECURE_FIRMWARE */

	/* Enable Usage, Mem, & Bus Faults */
	SCB->SHCSR |= SCB_SHCSR_USGFAULTENA_Msk | SCB_SHCSR_MEMFAULTENA_Msk |
    6924:	6a6b      	ldr	r3, [r5, #36]	; 0x24
    6926:	f443 23e0 	orr.w	r3, r3, #458752	; 0x70000
    692a:	626b      	str	r3, [r5, #36]	; 0x24

static ALWAYS_INLINE void arch_kernel_init(void)
{
	z_arm_interrupt_stack_setup();
	z_arm_exc_setup();
	z_arm_fault_init();
    692c:	f7fd fb12 	bl	3f54 <z_arm_fault_init>
	z_arm_cpu_idle_init();
    6930:	f7fd f84c 	bl	39cc <z_arm_cpu_idle_init>
static ALWAYS_INLINE void z_arm_clear_faults(void)
{
#if defined(CONFIG_ARMV6_M_ARMV8_M_BASELINE)
#elif defined(CONFIG_ARMV7_M_ARMV8_M_MAINLINE)
	/* Reset all faults */
	SCB->CFSR = SCB_CFSR_USGFAULTSR_Msk |
    6934:	f04f 33ff 	mov.w	r3, #4294967295	; 0xffffffff
    6938:	62ab      	str	r3, [r5, #40]	; 0x28
		    SCB_CFSR_MEMFAULTSR_Msk |
		    SCB_CFSR_BUSFAULTSR_Msk;

	/* Clear all Hard Faults - HFSR is write-one-to-clear */
	SCB->HFSR = 0xffffffff;
    693a:	62eb      	str	r3, [r5, #44]	; 0x2c
#endif
#ifdef CONFIG_USERSPACE
	dummy_thread->mem_domain_info.mem_domain = &k_mem_domain_default;
#endif

	_current_cpu->current = dummy_thread;
    693c:	4d28      	ldr	r5, [pc, #160]	; (69e0 <z_cstart+0xf0>)
	dummy_thread->base.user_options = K_ESSENTIAL;
    693e:	f240 1301 	movw	r3, #257	; 0x101
    6942:	f8ad 3024 	strh.w	r3, [sp, #36]	; 0x24
	_current_cpu->current = dummy_thread;
    6946:	ab06      	add	r3, sp, #24
    6948:	60ab      	str	r3, [r5, #8]
	dummy_thread->stack_info.size = 0U;
    694a:	e9cd 441f 	strd	r4, r4, [sp, #124]	; 0x7c
#endif
#if defined(CONFIG_MMU) && defined(CONFIG_USERSPACE)
	z_kernel_map_fixup();
#endif
	/* do any necessary initialization of static devices */
	z_device_state_init();
    694e:	f002 fa05 	bl	8d5c <z_device_state_init>

	/* perform basic hardware initialization */
	z_sys_init_run_level(_SYS_INIT_LEVEL_PRE_KERNEL_1);
    6952:	4620      	mov	r0, r4
    6954:	f7ff fed0 	bl	66f8 <z_sys_init_run_level>
	z_sys_init_run_level(_SYS_INIT_LEVEL_PRE_KERNEL_2);
    6958:	2001      	movs	r0, #1
    695a:	f7ff fecd 	bl	66f8 <z_sys_init_run_level>
	stack_ptr = z_setup_new_thread(&z_main_thread, z_main_stack,
    695e:	f04f 0b01 	mov.w	fp, #1
	z_sched_init();
    6962:	f000 fc0f 	bl	7184 <z_sched_init>
	stack_ptr = z_setup_new_thread(&z_main_thread, z_main_stack,
    6966:	4b1f      	ldr	r3, [pc, #124]	; (69e4 <z_cstart+0xf4>)
	_kernel.ready_q.cache = &z_main_thread;
    6968:	626e      	str	r6, [r5, #36]	; 0x24
	stack_ptr = z_setup_new_thread(&z_main_thread, z_main_stack,
    696a:	491f      	ldr	r1, [pc, #124]	; (69e8 <z_cstart+0xf8>)
    696c:	9305      	str	r3, [sp, #20]
    696e:	f44f 6280 	mov.w	r2, #1024	; 0x400
    6972:	4653      	mov	r3, sl
    6974:	e9cd 4b03 	strd	r4, fp, [sp, #12]
    6978:	e9cd 4401 	strd	r4, r4, [sp, #4]
    697c:	9400      	str	r4, [sp, #0]
    697e:	4630      	mov	r0, r6
    6980:	f000 fd5e 	bl	7440 <z_setup_new_thread>
	sys_trace_thread_resume(thread);
}

static inline void z_mark_thread_as_started(struct k_thread *thread)
{
	thread->base.thread_state &= ~_THREAD_PRESTART;
    6984:	7b73      	ldrb	r3, [r6, #13]
    6986:	4680      	mov	r8, r0
    6988:	f023 0304 	bic.w	r3, r3, #4
	z_ready_thread(&z_main_thread);
    698c:	4630      	mov	r0, r6
    698e:	7373      	strb	r3, [r6, #13]
    6990:	f002 fa88 	bl	8ea4 <z_ready_thread>
	z_setup_new_thread(thread, stack,
    6994:	230f      	movs	r3, #15
    6996:	e9cd 4302 	strd	r4, r3, [sp, #8]
    699a:	4914      	ldr	r1, [pc, #80]	; (69ec <z_cstart+0xfc>)
    699c:	4b14      	ldr	r3, [pc, #80]	; (69f0 <z_cstart+0x100>)
    699e:	f44f 72a0 	mov.w	r2, #320	; 0x140
    69a2:	e9cd b404 	strd	fp, r4, [sp, #16]
    69a6:	e9cd 5400 	strd	r5, r4, [sp]
    69aa:	4638      	mov	r0, r7
    69ac:	f000 fd48 	bl	7440 <z_setup_new_thread>
    69b0:	7b7b      	ldrb	r3, [r7, #13]
		_kernel.cpus[i].idle_thread = &z_idle_threads[i];
    69b2:	60ef      	str	r7, [r5, #12]
    69b4:	f023 0304 	bic.w	r3, r3, #4
    69b8:	737b      	strb	r3, [r7, #13]
 * @return N/A
 */

static inline void sys_dlist_init(sys_dlist_t *list)
{
	list->head = (sys_dnode_t *)list;
    69ba:	f105 0318 	add.w	r3, r5, #24
	list->tail = (sys_dnode_t *)list;
    69be:	e9c5 3306 	strd	r3, r3, [r5, #24]
		_kernel.cpus[i].id = i;
    69c2:	752c      	strb	r4, [r5, #20]
		_kernel.cpus[i].irq_stack =
    69c4:	f8c5 9004 	str.w	r9, [r5, #4]
	arch_switch_to_main_thread(&z_main_thread, stack_ptr, bg_thread_main);
    69c8:	4652      	mov	r2, sl
    69ca:	4641      	mov	r1, r8
    69cc:	4630      	mov	r0, r6
    69ce:	f7fc ffe5 	bl	399c <arch_switch_to_main_thread>
	CODE_UNREACHABLE; /* LCOV_EXCL_LINE */
    69d2:	bf00      	nop
    69d4:	e000ed00 	.word	0xe000ed00
    69d8:	200002e8 	.word	0x200002e8
    69dc:	20000268 	.word	0x20000268
    69e0:	2000092c 	.word	0x2000092c
    69e4:	0000a079 	.word	0x0000a079
    69e8:	200011a0 	.word	0x200011a0
    69ec:	200015a0 	.word	0x200015a0
    69f0:	0000687d 	.word	0x0000687d
    69f4:	20001ee0 	.word	0x20001ee0
    69f8:	000068bd 	.word	0x000068bd

000069fc <init_mem_slab_module>:
 * Perform any initialization that wasn't done at build time.
 *
 * @return N/A
 */
static int init_mem_slab_module(const struct device *dev)
{
    69fc:	b570      	push	{r4, r5, r6, lr}
	int rc = 0;
	ARG_UNUSED(dev);

	Z_STRUCT_SECTION_FOREACH(k_mem_slab, slab) {
    69fe:	4b0e      	ldr	r3, [pc, #56]	; (6a38 <init_mem_slab_module+0x3c>)
    6a00:	4c0e      	ldr	r4, [pc, #56]	; (6a3c <init_mem_slab_module+0x40>)
    6a02:	42a3      	cmp	r3, r4
    6a04:	d301      	bcc.n	6a0a <init_mem_slab_module+0xe>
		}
		SYS_TRACING_OBJ_INIT(k_mem_slab, slab);
		z_object_init(slab);
	}

out:
    6a06:	2000      	movs	r0, #0
	return rc;
}
    6a08:	bd70      	pop	{r4, r5, r6, pc}
	CHECKIF(((slab->block_size | (uintptr_t)slab->buffer) &
    6a0a:	e9d3 0103 	ldrd	r0, r1, [r3, #12]
    6a0e:	ea41 0200 	orr.w	r2, r1, r0
    6a12:	f012 0203 	ands.w	r2, r2, #3
    6a16:	d10b      	bne.n	6a30 <init_mem_slab_module+0x34>
	for (j = 0U; j < slab->num_blocks; j++) {
    6a18:	689d      	ldr	r5, [r3, #8]
	slab->free_list = NULL;
    6a1a:	615a      	str	r2, [r3, #20]
	for (j = 0U; j < slab->num_blocks; j++) {
    6a1c:	42aa      	cmp	r2, r5
    6a1e:	d101      	bne.n	6a24 <init_mem_slab_module+0x28>
	Z_STRUCT_SECTION_FOREACH(k_mem_slab, slab) {
    6a20:	331c      	adds	r3, #28
    6a22:	e7ee      	b.n	6a02 <init_mem_slab_module+0x6>
		*(char **)p = slab->free_list;
    6a24:	695e      	ldr	r6, [r3, #20]
    6a26:	600e      	str	r6, [r1, #0]
	for (j = 0U; j < slab->num_blocks; j++) {
    6a28:	3201      	adds	r2, #1
		slab->free_list = p;
    6a2a:	6159      	str	r1, [r3, #20]
		p += slab->block_size;
    6a2c:	4401      	add	r1, r0
	for (j = 0U; j < slab->num_blocks; j++) {
    6a2e:	e7f5      	b.n	6a1c <init_mem_slab_module+0x20>
		return -EINVAL;
    6a30:	f06f 0015 	mvn.w	r0, #21
	return rc;
    6a34:	e7e8      	b.n	6a08 <init_mem_slab_module+0xc>
    6a36:	bf00      	nop
    6a38:	20000188 	.word	0x20000188
    6a3c:	20000188 	.word	0x20000188

00006a40 <k_mem_slab_alloc>:
out:
	return rc;
}

int k_mem_slab_alloc(struct k_mem_slab *slab, void **mem, k_timeout_t timeout)
{
    6a40:	b5d3      	push	{r0, r1, r4, r6, r7, lr}
    6a42:	460c      	mov	r4, r1
    6a44:	4616      	mov	r6, r2
    6a46:	461f      	mov	r7, r3
    6a48:	f04f 0320 	mov.w	r3, #32
    6a4c:	f3ef 8111 	mrs	r1, BASEPRI
    6a50:	f383 8811 	msr	BASEPRI, r3
    6a54:	f3bf 8f6f 	isb	sy
	k_spinlock_key_t key = k_spin_lock(&lock);
	int result;

	if (slab->free_list != NULL) {
    6a58:	6943      	ldr	r3, [r0, #20]
    6a5a:	b15b      	cbz	r3, 6a74 <k_mem_slab_alloc+0x34>
		/* take a free block */
		*mem = slab->free_list;
    6a5c:	6023      	str	r3, [r4, #0]
		slab->free_list = *(char **)(slab->free_list);
    6a5e:	681b      	ldr	r3, [r3, #0]
    6a60:	6143      	str	r3, [r0, #20]
		slab->num_used++;
    6a62:	6983      	ldr	r3, [r0, #24]
    6a64:	3301      	adds	r3, #1
    6a66:	6183      	str	r3, [r0, #24]

#ifdef CONFIG_MEM_SLAB_TRACE_MAX_UTILIZATION
		slab->max_used = MAX(slab->num_used, slab->max_used);
#endif

		result = 0;
    6a68:	2000      	movs	r0, #0
	__asm__ volatile(
    6a6a:	f381 8811 	msr	BASEPRI, r1
    6a6e:	f3bf 8f6f 	isb	sy
		return result;
	}

	k_spin_unlock(&lock, key);

	return result;
    6a72:	e011      	b.n	6a98 <k_mem_slab_alloc+0x58>
	} else if (K_TIMEOUT_EQ(timeout, K_NO_WAIT)) {
    6a74:	ea56 0207 	orrs.w	r2, r6, r7
    6a78:	d103      	bne.n	6a82 <k_mem_slab_alloc+0x42>
		*mem = NULL;
    6a7a:	6023      	str	r3, [r4, #0]
		result = -ENOMEM;
    6a7c:	f06f 000b 	mvn.w	r0, #11
    6a80:	e7f3      	b.n	6a6a <k_mem_slab_alloc+0x2a>
		result = z_pend_curr(&lock, key, &slab->wait_q, timeout);
    6a82:	4602      	mov	r2, r0
    6a84:	e9cd 6700 	strd	r6, r7, [sp]
    6a88:	4804      	ldr	r0, [pc, #16]	; (6a9c <k_mem_slab_alloc+0x5c>)
    6a8a:	f000 f9bd 	bl	6e08 <z_pend_curr>
		if (result == 0) {
    6a8e:	b918      	cbnz	r0, 6a98 <k_mem_slab_alloc+0x58>
			*mem = _current->base.swap_data;
    6a90:	4b03      	ldr	r3, [pc, #12]	; (6aa0 <k_mem_slab_alloc+0x60>)
    6a92:	689b      	ldr	r3, [r3, #8]
    6a94:	695b      	ldr	r3, [r3, #20]
    6a96:	6023      	str	r3, [r4, #0]
}
    6a98:	b002      	add	sp, #8
    6a9a:	bdd0      	pop	{r4, r6, r7, pc}
    6a9c:	20000e9c 	.word	0x20000e9c
    6aa0:	2000092c 	.word	0x2000092c

00006aa4 <k_mem_slab_free>:

void k_mem_slab_free(struct k_mem_slab *slab, void **mem)
{
    6aa4:	b5f8      	push	{r3, r4, r5, r6, r7, lr}
    6aa6:	4604      	mov	r4, r0
    6aa8:	460d      	mov	r5, r1
	__asm__ volatile(
    6aaa:	f04f 0320 	mov.w	r3, #32
    6aae:	f3ef 8611 	mrs	r6, BASEPRI
    6ab2:	f383 8811 	msr	BASEPRI, r3
    6ab6:	f3bf 8f6f 	isb	sy
	k_spinlock_key_t key = k_spin_lock(&lock);

	if (slab->free_list == NULL) {
    6aba:	6947      	ldr	r7, [r0, #20]
    6abc:	b96f      	cbnz	r7, 6ada <k_mem_slab_free+0x36>
		struct k_thread *pending_thread = z_unpend_first_thread(&slab->wait_q);
    6abe:	f002 fa38 	bl	8f32 <z_unpend_first_thread>

		if (pending_thread != NULL) {
    6ac2:	b150      	cbz	r0, 6ada <k_mem_slab_free+0x36>
			z_thread_return_value_set_with_data(pending_thread, 0, *mem);
    6ac4:	682a      	ldr	r2, [r5, #0]
z_thread_return_value_set_with_data(struct k_thread *thread,
				   unsigned int value,
				   void *data)
{
	arch_thread_return_value_set(thread, value);
	thread->base.swap_data = data;
    6ac6:	6142      	str	r2, [r0, #20]
}

static ALWAYS_INLINE void
arch_thread_return_value_set(struct k_thread *thread, unsigned int value)
{
	thread->arch.swap_return_value = value;
    6ac8:	6787      	str	r7, [r0, #120]	; 0x78
			z_ready_thread(pending_thread);
    6aca:	f002 f9eb 	bl	8ea4 <z_ready_thread>
			z_reschedule(&lock, key);
    6ace:	4631      	mov	r1, r6
    6ad0:	4808      	ldr	r0, [pc, #32]	; (6af4 <k_mem_slab_free+0x50>)
	}
	**(char ***) mem = slab->free_list;
	slab->free_list = *(char **) mem;
	slab->num_used--;
	k_spin_unlock(&lock, key);
}
    6ad2:	e8bd 40f8 	ldmia.w	sp!, {r3, r4, r5, r6, r7, lr}
			z_reschedule(&lock, key);
    6ad6:	f000 b915 	b.w	6d04 <z_reschedule>
	**(char ***) mem = slab->free_list;
    6ada:	682b      	ldr	r3, [r5, #0]
    6adc:	6962      	ldr	r2, [r4, #20]
    6ade:	601a      	str	r2, [r3, #0]
	slab->free_list = *(char **) mem;
    6ae0:	682b      	ldr	r3, [r5, #0]
    6ae2:	6163      	str	r3, [r4, #20]
	slab->num_used--;
    6ae4:	69a3      	ldr	r3, [r4, #24]
    6ae6:	3b01      	subs	r3, #1
    6ae8:	61a3      	str	r3, [r4, #24]
	__asm__ volatile(
    6aea:	f386 8811 	msr	BASEPRI, r6
    6aee:	f3bf 8f6f 	isb	sy
}
    6af2:	bdf8      	pop	{r3, r4, r5, r6, r7, pc}
    6af4:	20000e9c 	.word	0x20000e9c

00006af8 <z_impl_k_mutex_lock>:
	}
	return false;
}

int z_impl_k_mutex_lock(struct k_mutex *mutex, k_timeout_t timeout)
{
    6af8:	e92d 41f3 	stmdb	sp!, {r0, r1, r4, r5, r6, r7, r8, lr}
    6afc:	4604      	mov	r4, r0
    6afe:	4616      	mov	r6, r2
    6b00:	461f      	mov	r7, r3
	__asm__ volatile(
    6b02:	f04f 0320 	mov.w	r3, #32
    6b06:	f3ef 8811 	mrs	r8, BASEPRI
    6b0a:	f383 8811 	msr	BASEPRI, r3
    6b0e:	f3bf 8f6f 	isb	sy
	__ASSERT(!arch_is_in_isr(), "mutexes cannot be used inside ISRs");

	sys_trace_mutex_lock(mutex);
	key = k_spin_lock(&lock);

	if (likely((mutex->lock_count == 0U) || (mutex->owner == _current))) {
    6b12:	68c3      	ldr	r3, [r0, #12]
    6b14:	4a32      	ldr	r2, [pc, #200]	; (6be0 <z_impl_k_mutex_lock+0xe8>)
    6b16:	b16b      	cbz	r3, 6b34 <z_impl_k_mutex_lock+0x3c>
    6b18:	6880      	ldr	r0, [r0, #8]
    6b1a:	6891      	ldr	r1, [r2, #8]
    6b1c:	4288      	cmp	r0, r1
    6b1e:	d019      	beq.n	6b54 <z_impl_k_mutex_lock+0x5c>
		sys_trace_end_call(SYS_TRACE_ID_MUTEX_LOCK);

		return 0;
	}

	if (unlikely(K_TIMEOUT_EQ(timeout, K_NO_WAIT))) {
    6b20:	ea56 0307 	orrs.w	r3, r6, r7
    6b24:	d118      	bne.n	6b58 <z_impl_k_mutex_lock+0x60>
	__asm__ volatile(
    6b26:	f388 8811 	msr	BASEPRI, r8
    6b2a:	f3bf 8f6f 	isb	sy
		k_spin_unlock(&lock, key);
		sys_trace_end_call(SYS_TRACE_ID_MUTEX_LOCK);
		return -EBUSY;
    6b2e:	f06f 000f 	mvn.w	r0, #15
    6b32:	e00c      	b.n	6b4e <z_impl_k_mutex_lock+0x56>
					_current->base.prio :
    6b34:	6891      	ldr	r1, [r2, #8]
    6b36:	f991 100e 	ldrsb.w	r1, [r1, #14]
		mutex->owner_orig_prio = (mutex->lock_count == 0U) ?
    6b3a:	6121      	str	r1, [r4, #16]
		mutex->lock_count++;
    6b3c:	3301      	adds	r3, #1
    6b3e:	60e3      	str	r3, [r4, #12]
		mutex->owner = _current;
    6b40:	6893      	ldr	r3, [r2, #8]
    6b42:	60a3      	str	r3, [r4, #8]
    6b44:	f388 8811 	msr	BASEPRI, r8
    6b48:	f3bf 8f6f 	isb	sy
		return 0;
    6b4c:	2000      	movs	r0, #0
		k_spin_unlock(&lock, key);
	}

	sys_trace_end_call(SYS_TRACE_ID_MUTEX_LOCK);
	return -EAGAIN;
}
    6b4e:	b002      	add	sp, #8
    6b50:	e8bd 81f0 	ldmia.w	sp!, {r4, r5, r6, r7, r8, pc}
					_current->base.prio :
    6b54:	6921      	ldr	r1, [r4, #16]
    6b56:	e7f0      	b.n	6b3a <z_impl_k_mutex_lock+0x42>
	new_prio = new_prio_for_inheritance(_current->base.prio,
    6b58:	f990 300e 	ldrsb.w	r3, [r0, #14]
    6b5c:	f991 100e 	ldrsb.w	r1, [r1, #14]
    6b60:	4299      	cmp	r1, r3
    6b62:	bfa8      	it	ge
    6b64:	4619      	movge	r1, r3
    6b66:	ea21 71e1 	bic.w	r1, r1, r1, asr #31
	if (z_is_prio_higher(new_prio, mutex->owner->base.prio)) {
    6b6a:	428b      	cmp	r3, r1
    6b6c:	dd2c      	ble.n	6bc8 <z_impl_k_mutex_lock+0xd0>
		return z_set_prio(mutex->owner, new_prio);
    6b6e:	f000 fabd 	bl	70ec <z_set_prio>
    6b72:	4605      	mov	r5, r0
	int got_mutex = z_pend_curr(&lock, key, &mutex->wait_q, timeout);
    6b74:	e9cd 6700 	strd	r6, r7, [sp]
    6b78:	481a      	ldr	r0, [pc, #104]	; (6be4 <z_impl_k_mutex_lock+0xec>)
    6b7a:	4622      	mov	r2, r4
    6b7c:	4641      	mov	r1, r8
    6b7e:	f000 f943 	bl	6e08 <z_pend_curr>
	if (got_mutex == 0) {
    6b82:	2800      	cmp	r0, #0
    6b84:	d0e3      	beq.n	6b4e <z_impl_k_mutex_lock+0x56>
	__asm__ volatile(
    6b86:	f04f 0320 	mov.w	r3, #32
    6b8a:	f3ef 8611 	mrs	r6, BASEPRI
    6b8e:	f383 8811 	msr	BASEPRI, r3
    6b92:	f3bf 8f6f 	isb	sy
 * @return true if empty, false otherwise
 */

static inline bool sys_dlist_is_empty(sys_dlist_t *list)
{
	return list->head == list;
    6b96:	6823      	ldr	r3, [r4, #0]
    6b98:	6921      	ldr	r1, [r4, #16]
 * @return a pointer to the head element, NULL if list is empty
 */

static inline sys_dnode_t *sys_dlist_peek_head(sys_dlist_t *list)
{
	return sys_dlist_is_empty(list) ? NULL : list->head;
    6b9a:	42a3      	cmp	r3, r4
    6b9c:	d007      	beq.n	6bae <z_impl_k_mutex_lock+0xb6>
		new_prio_for_inheritance(waiter->base.prio, mutex->owner_orig_prio) :
    6b9e:	b133      	cbz	r3, 6bae <z_impl_k_mutex_lock+0xb6>
    6ba0:	f993 300e 	ldrsb.w	r3, [r3, #14]
    6ba4:	4299      	cmp	r1, r3
    6ba6:	bfa8      	it	ge
    6ba8:	4619      	movge	r1, r3
    6baa:	ea21 71e1 	bic.w	r1, r1, r1, asr #31
	resched = adjust_owner_prio(mutex, new_prio) || resched;
    6bae:	68a0      	ldr	r0, [r4, #8]
	if (mutex->owner->base.prio != new_prio) {
    6bb0:	f990 300e 	ldrsb.w	r3, [r0, #14]
    6bb4:	4299      	cmp	r1, r3
    6bb6:	d109      	bne.n	6bcc <z_impl_k_mutex_lock+0xd4>
	if (resched) {
    6bb8:	b16d      	cbz	r5, 6bd6 <z_impl_k_mutex_lock+0xde>
		z_reschedule(&lock, key);
    6bba:	480a      	ldr	r0, [pc, #40]	; (6be4 <z_impl_k_mutex_lock+0xec>)
    6bbc:	4631      	mov	r1, r6
    6bbe:	f000 f8a1 	bl	6d04 <z_reschedule>
	return -EAGAIN;
    6bc2:	f06f 000a 	mvn.w	r0, #10
    6bc6:	e7c2      	b.n	6b4e <z_impl_k_mutex_lock+0x56>
	bool resched = false;
    6bc8:	2500      	movs	r5, #0
    6bca:	e7d3      	b.n	6b74 <z_impl_k_mutex_lock+0x7c>
		return z_set_prio(mutex->owner, new_prio);
    6bcc:	f000 fa8e 	bl	70ec <z_set_prio>
	resched = adjust_owner_prio(mutex, new_prio) || resched;
    6bd0:	2800      	cmp	r0, #0
    6bd2:	d1f2      	bne.n	6bba <z_impl_k_mutex_lock+0xc2>
    6bd4:	e7f0      	b.n	6bb8 <z_impl_k_mutex_lock+0xc0>
	__asm__ volatile(
    6bd6:	f386 8811 	msr	BASEPRI, r6
    6bda:	f3bf 8f6f 	isb	sy
    6bde:	e7f0      	b.n	6bc2 <z_impl_k_mutex_lock+0xca>
    6be0:	2000092c 	.word	0x2000092c
    6be4:	20000e9c 	.word	0x20000e9c

00006be8 <z_impl_k_mutex_unlock>:
}
#include <syscalls/k_mutex_lock_mrsh.c>
#endif

int z_impl_k_mutex_unlock(struct k_mutex *mutex)
{
    6be8:	b538      	push	{r3, r4, r5, lr}
	struct k_thread *new_owner;

	__ASSERT(!arch_is_in_isr(), "mutexes cannot be used inside ISRs");

	CHECKIF(mutex->owner == NULL) {
    6bea:	6883      	ldr	r3, [r0, #8]
{
    6bec:	4604      	mov	r4, r0
	CHECKIF(mutex->owner == NULL) {
    6bee:	2b00      	cmp	r3, #0
    6bf0:	d036      	beq.n	6c60 <z_impl_k_mutex_unlock+0x78>
		return -EINVAL;
	}
	/*
	 * The current thread does not own the mutex.
	 */
	CHECKIF(mutex->owner != _current) {
    6bf2:	4a1e      	ldr	r2, [pc, #120]	; (6c6c <z_impl_k_mutex_unlock+0x84>)
    6bf4:	6892      	ldr	r2, [r2, #8]
    6bf6:	4293      	cmp	r3, r2
    6bf8:	d135      	bne.n	6c66 <z_impl_k_mutex_unlock+0x7e>
{
#ifdef CONFIG_PREEMPT_ENABLED
	__ASSERT(!arch_is_in_isr(), "");
	__ASSERT(_current->base.sched_locked != 1U, "");

	--_current->base.sched_locked;
    6bfa:	7bda      	ldrb	r2, [r3, #15]
    6bfc:	3a01      	subs	r2, #1
    6bfe:	73da      	strb	r2, [r3, #15]

	/*
	 * If we are the owner and count is greater than 1, then decrement
	 * the count and return and keep current thread as the owner.
	 */
	if (mutex->lock_count - 1U != 0U) {
    6c00:	68c3      	ldr	r3, [r0, #12]
    6c02:	2b01      	cmp	r3, #1
    6c04:	d005      	beq.n	6c12 <z_impl_k_mutex_unlock+0x2a>
		mutex->lock_count--;
    6c06:	3b01      	subs	r3, #1
    6c08:	60c3      	str	r3, [r0, #12]
		k_spin_unlock(&lock, key);
	}


k_mutex_unlock_return:
	k_sched_unlock();
    6c0a:	f000 f97d 	bl	6f08 <k_sched_unlock>
	sys_trace_end_call(SYS_TRACE_ID_MUTEX_UNLOCK);

	return 0;
    6c0e:	2000      	movs	r0, #0
}
    6c10:	bd38      	pop	{r3, r4, r5, pc}
	__asm__ volatile(
    6c12:	f04f 0320 	mov.w	r3, #32
    6c16:	f3ef 8511 	mrs	r5, BASEPRI
    6c1a:	f383 8811 	msr	BASEPRI, r3
    6c1e:	f3bf 8f6f 	isb	sy
	adjust_owner_prio(mutex, mutex->owner_orig_prio);
    6c22:	6901      	ldr	r1, [r0, #16]
    6c24:	6880      	ldr	r0, [r0, #8]
	if (mutex->owner->base.prio != new_prio) {
    6c26:	f990 300e 	ldrsb.w	r3, [r0, #14]
    6c2a:	4299      	cmp	r1, r3
    6c2c:	d001      	beq.n	6c32 <z_impl_k_mutex_unlock+0x4a>
		return z_set_prio(mutex->owner, new_prio);
    6c2e:	f000 fa5d 	bl	70ec <z_set_prio>
	new_owner = z_unpend_first_thread(&mutex->wait_q);
    6c32:	4620      	mov	r0, r4
    6c34:	f002 f97d 	bl	8f32 <z_unpend_first_thread>
	mutex->owner = new_owner;
    6c38:	60a0      	str	r0, [r4, #8]
	if (new_owner != NULL) {
    6c3a:	b158      	cbz	r0, 6c54 <z_impl_k_mutex_unlock+0x6c>
		mutex->owner_orig_prio = new_owner->base.prio;
    6c3c:	f990 200e 	ldrsb.w	r2, [r0, #14]
    6c40:	6122      	str	r2, [r4, #16]
    6c42:	2200      	movs	r2, #0
    6c44:	6782      	str	r2, [r0, #120]	; 0x78
		z_ready_thread(new_owner);
    6c46:	f002 f92d 	bl	8ea4 <z_ready_thread>
		z_reschedule(&lock, key);
    6c4a:	4809      	ldr	r0, [pc, #36]	; (6c70 <z_impl_k_mutex_unlock+0x88>)
    6c4c:	4629      	mov	r1, r5
    6c4e:	f000 f859 	bl	6d04 <z_reschedule>
    6c52:	e7da      	b.n	6c0a <z_impl_k_mutex_unlock+0x22>
		mutex->lock_count = 0U;
    6c54:	60e0      	str	r0, [r4, #12]
	__asm__ volatile(
    6c56:	f385 8811 	msr	BASEPRI, r5
    6c5a:	f3bf 8f6f 	isb	sy
    6c5e:	e7d4      	b.n	6c0a <z_impl_k_mutex_unlock+0x22>
		return -EINVAL;
    6c60:	f06f 0015 	mvn.w	r0, #21
    6c64:	e7d4      	b.n	6c10 <z_impl_k_mutex_unlock+0x28>
		return -EPERM;
    6c66:	f04f 30ff 	mov.w	r0, #4294967295	; 0xffffffff
    6c6a:	e7d1      	b.n	6c10 <z_impl_k_mutex_unlock+0x28>
    6c6c:	2000092c 	.word	0x2000092c
    6c70:	20000e9c 	.word	0x20000e9c

00006c74 <z_reset_time_slice>:
 */
static struct k_thread *pending_current;
#endif

void z_reset_time_slice(void)
{
    6c74:	b510      	push	{r4, lr}
	/* Add the elapsed time since the last announced tick to the
	 * slice count, as we'll see those "expired" ticks arrive in a
	 * FUTURE z_time_slice() call.
	 */
	if (slice_time != 0) {
    6c76:	4c08      	ldr	r4, [pc, #32]	; (6c98 <z_reset_time_slice+0x24>)
    6c78:	6823      	ldr	r3, [r4, #0]
    6c7a:	b15b      	cbz	r3, 6c94 <z_reset_time_slice+0x20>
		_current_cpu->slice_ticks = slice_time + sys_clock_elapsed();
    6c7c:	f7fc fd00 	bl	3680 <sys_clock_elapsed>
    6c80:	4603      	mov	r3, r0
    6c82:	6820      	ldr	r0, [r4, #0]
    6c84:	4a05      	ldr	r2, [pc, #20]	; (6c9c <z_reset_time_slice+0x28>)
    6c86:	4403      	add	r3, r0
		z_set_timeout_expiry(slice_time, false);
	}
}
    6c88:	e8bd 4010 	ldmia.w	sp!, {r4, lr}
		_current_cpu->slice_ticks = slice_time + sys_clock_elapsed();
    6c8c:	6113      	str	r3, [r2, #16]
		z_set_timeout_expiry(slice_time, false);
    6c8e:	2100      	movs	r1, #0
    6c90:	f002 b9f4 	b.w	907c <z_set_timeout_expiry>
}
    6c94:	bd10      	pop	{r4, pc}
    6c96:	bf00      	nop
    6c98:	20000964 	.word	0x20000964
    6c9c:	2000092c 	.word	0x2000092c

00006ca0 <k_sched_time_slice_set>:

void k_sched_time_slice_set(int32_t slice, int prio)
{
    6ca0:	b5f8      	push	{r3, r4, r5, r6, r7, lr}
    6ca2:	4604      	mov	r4, r0
    6ca4:	460d      	mov	r5, r1
	__asm__ volatile(
    6ca6:	f04f 0320 	mov.w	r3, #32
    6caa:	f3ef 8611 	mrs	r6, BASEPRI
    6cae:	f383 8811 	msr	BASEPRI, r3
    6cb2:	f3bf 8f6f 	isb	sy
	LOCKED(&sched_spinlock) {
		_current_cpu->slice_ticks = 0;
    6cb6:	4b10      	ldr	r3, [pc, #64]	; (6cf8 <k_sched_time_slice_set+0x58>)
    6cb8:	2200      	movs	r2, #0
			return (uint32_t)((t * to_hz + off) / from_hz);
    6cba:	f44f 4700 	mov.w	r7, #32768	; 0x8000
    6cbe:	f240 30e7 	movw	r0, #999	; 0x3e7
    6cc2:	2100      	movs	r1, #0
    6cc4:	611a      	str	r2, [r3, #16]
    6cc6:	fbe7 0104 	umlal	r0, r1, r7, r4
    6cca:	2300      	movs	r3, #0
    6ccc:	f44f 727a 	mov.w	r2, #1000	; 0x3e8
    6cd0:	f7f9 feb4 	bl	a3c <__aeabi_uldivmod>
		slice_time = k_ms_to_ticks_ceil32(slice);
		if (IS_ENABLED(CONFIG_TICKLESS_KERNEL) && slice > 0) {
    6cd4:	2c00      	cmp	r4, #0
    6cd6:	4b09      	ldr	r3, [pc, #36]	; (6cfc <k_sched_time_slice_set+0x5c>)
    6cd8:	dc09      	bgt.n	6cee <k_sched_time_slice_set+0x4e>
			/* It's not possible to reliably set a 1-tick
			 * timeout if ticks aren't regular.
			 */
			slice_time = MAX(2, slice_time);
    6cda:	6018      	str	r0, [r3, #0]
		}
		slice_max_prio = prio;
    6cdc:	4b08      	ldr	r3, [pc, #32]	; (6d00 <k_sched_time_slice_set+0x60>)
    6cde:	601d      	str	r5, [r3, #0]
		z_reset_time_slice();
    6ce0:	f7ff ffc8 	bl	6c74 <z_reset_time_slice>
	__asm__ volatile(
    6ce4:	f386 8811 	msr	BASEPRI, r6
    6ce8:	f3bf 8f6f 	isb	sy
	}
}
    6cec:	bdf8      	pop	{r3, r4, r5, r6, r7, pc}
			slice_time = MAX(2, slice_time);
    6cee:	2802      	cmp	r0, #2
    6cf0:	bfb8      	it	lt
    6cf2:	2002      	movlt	r0, #2
    6cf4:	e7f1      	b.n	6cda <k_sched_time_slice_set+0x3a>
    6cf6:	bf00      	nop
    6cf8:	2000092c 	.word	0x2000092c
    6cfc:	20000964 	.word	0x20000964
    6d00:	20000960 	.word	0x20000960

00006d04 <z_reschedule>:
{
#ifdef CONFIG_SMP
	_current_cpu->swap_ok = 0;
#endif

	return arch_irq_unlocked(key) && !arch_is_in_isr();
    6d04:	b949      	cbnz	r1, 6d1a <z_reschedule+0x16>
  __ASM volatile ("MRS %0, ipsr" : "=r" (result) );
    6d06:	f3ef 8005 	mrs	r0, IPSR
#endif
}

void z_reschedule(struct k_spinlock *lock, k_spinlock_key_t key)
{
	if (resched(key.key) && need_swap()) {
    6d0a:	b930      	cbnz	r0, 6d1a <z_reschedule+0x16>
	new_thread = _kernel.ready_q.cache;
    6d0c:	4b05      	ldr	r3, [pc, #20]	; (6d24 <z_reschedule+0x20>)
	if (resched(key.key) && need_swap()) {
    6d0e:	6a5a      	ldr	r2, [r3, #36]	; 0x24
    6d10:	689b      	ldr	r3, [r3, #8]
    6d12:	429a      	cmp	r2, r3
    6d14:	d001      	beq.n	6d1a <z_reschedule+0x16>
	ret = arch_swap(key);
    6d16:	f7fc bda1 	b.w	385c <arch_swap>
    6d1a:	f381 8811 	msr	BASEPRI, r1
    6d1e:	f3bf 8f6f 	isb	sy
		z_swap(lock, key);
	} else {
		k_spin_unlock(lock, key);
	}
}
    6d22:	4770      	bx	lr
    6d24:	2000092c 	.word	0x2000092c

00006d28 <k_sched_lock>:
	__asm__ volatile(
    6d28:	f04f 0320 	mov.w	r3, #32
    6d2c:	f3ef 8111 	mrs	r1, BASEPRI
    6d30:	f383 8811 	msr	BASEPRI, r3
    6d34:	f3bf 8f6f 	isb	sy
    6d38:	4b04      	ldr	r3, [pc, #16]	; (6d4c <k_sched_lock+0x24>)
    6d3a:	689a      	ldr	r2, [r3, #8]
    6d3c:	7bd3      	ldrb	r3, [r2, #15]
    6d3e:	3b01      	subs	r3, #1
    6d40:	73d3      	strb	r3, [r2, #15]
	__asm__ volatile(
    6d42:	f381 8811 	msr	BASEPRI, r1
    6d46:	f3bf 8f6f 	isb	sy
void k_sched_lock(void)
{
	LOCKED(&sched_spinlock) {
		z_sched_lock();
	}
}
    6d4a:	4770      	bx	lr
    6d4c:	2000092c 	.word	0x2000092c

00006d50 <update_cache>:
{
    6d50:	b538      	push	{r3, r4, r5, lr}
	thread = _priq_run_best(&_kernel.ready_q.runq);
    6d52:	4c0d      	ldr	r4, [pc, #52]	; (6d88 <update_cache+0x38>)
{
    6d54:	4602      	mov	r2, r0
	thread = _priq_run_best(&_kernel.ready_q.runq);
    6d56:	f104 0028 	add.w	r0, r4, #40	; 0x28
    6d5a:	f002 f86c 	bl	8e36 <z_priq_dumb_best>
	return (thread != NULL) ? thread : _current_cpu->idle_thread;
    6d5e:	4605      	mov	r5, r0
    6d60:	b900      	cbnz	r0, 6d64 <update_cache+0x14>
    6d62:	68e5      	ldr	r5, [r4, #12]
	if (preempt_ok != 0) {
    6d64:	68a3      	ldr	r3, [r4, #8]
    6d66:	b94a      	cbnz	r2, 6d7c <update_cache+0x2c>
	if (z_is_thread_prevented_from_running(_current)) {
    6d68:	7b5a      	ldrb	r2, [r3, #13]
    6d6a:	06d2      	lsls	r2, r2, #27
    6d6c:	d106      	bne.n	6d7c <update_cache+0x2c>
	if (IS_ENABLED(CONFIG_SWAP_NONATOMIC)
    6d6e:	69aa      	ldr	r2, [r5, #24]
    6d70:	b922      	cbnz	r2, 6d7c <update_cache+0x2c>
	if (is_preempt(_current) || is_metairq(thread)) {
    6d72:	89da      	ldrh	r2, [r3, #14]
    6d74:	2a7f      	cmp	r2, #127	; 0x7f
    6d76:	d901      	bls.n	6d7c <update_cache+0x2c>
		_kernel.ready_q.cache = _current;
    6d78:	6263      	str	r3, [r4, #36]	; 0x24
}
    6d7a:	bd38      	pop	{r3, r4, r5, pc}
		if (thread != _current) {
    6d7c:	429d      	cmp	r5, r3
    6d7e:	d001      	beq.n	6d84 <update_cache+0x34>
			z_reset_time_slice();
    6d80:	f7ff ff78 	bl	6c74 <z_reset_time_slice>
		_kernel.ready_q.cache = thread;
    6d84:	6265      	str	r5, [r4, #36]	; 0x24
}
    6d86:	e7f8      	b.n	6d7a <update_cache+0x2a>
    6d88:	2000092c 	.word	0x2000092c

00006d8c <unready_thread>:
{
    6d8c:	b508      	push	{r3, lr}
	if (z_is_thread_queued(thread)) {
    6d8e:	f990 200d 	ldrsb.w	r2, [r0, #13]
	return z_is_thread_state_set(thread, _THREAD_QUEUED);
    6d92:	7b43      	ldrb	r3, [r0, #13]
    6d94:	2a00      	cmp	r2, #0
{
    6d96:	4601      	mov	r1, r0
	if (z_is_thread_queued(thread)) {
    6d98:	da04      	bge.n	6da4 <unready_thread+0x18>
	thread->base.thread_state &= ~_THREAD_QUEUED;
    6d9a:	f003 037f 	and.w	r3, r3, #127	; 0x7f
    6d9e:	7343      	strb	r3, [r0, #13]

void z_priq_dumb_remove(sys_dlist_t *pq, struct k_thread *thread)
{
	__ASSERT_NO_MSG(!z_is_idle_thread_object(thread));

	sys_dlist_remove(&thread->base.qnode_dlist);
    6da0:	f002 f811 	bl	8dc6 <sys_dlist_remove>
	update_cache(thread == _current);
    6da4:	4b04      	ldr	r3, [pc, #16]	; (6db8 <unready_thread+0x2c>)
    6da6:	6898      	ldr	r0, [r3, #8]
    6da8:	1a43      	subs	r3, r0, r1
    6daa:	4258      	negs	r0, r3
    6dac:	4158      	adcs	r0, r3
}
    6dae:	e8bd 4008 	ldmia.w	sp!, {r3, lr}
	update_cache(thread == _current);
    6db2:	f7ff bfcd 	b.w	6d50 <update_cache>
    6db6:	bf00      	nop
    6db8:	2000092c 	.word	0x2000092c

00006dbc <pend>:
{
    6dbc:	e92d 41f0 	stmdb	sp!, {r4, r5, r6, r7, r8, lr}
    6dc0:	4606      	mov	r6, r0
    6dc2:	4614      	mov	r4, r2
    6dc4:	461d      	mov	r5, r3
	__asm__ volatile(
    6dc6:	f04f 0320 	mov.w	r3, #32
    6dca:	f3ef 8711 	mrs	r7, BASEPRI
    6dce:	f383 8811 	msr	BASEPRI, r3
    6dd2:	f3bf 8f6f 	isb	sy
		add_to_waitq_locked(thread, wait_q);
    6dd6:	f002 f838 	bl	8e4a <add_to_waitq_locked>
	__asm__ volatile(
    6dda:	f387 8811 	msr	BASEPRI, r7
    6dde:	f3bf 8f6f 	isb	sy
	if (!K_TIMEOUT_EQ(timeout, K_FOREVER)) {
    6de2:	1c6b      	adds	r3, r5, #1
    6de4:	bf08      	it	eq
    6de6:	f1b4 3fff 	cmpeq.w	r4, #4294967295	; 0xffffffff
    6dea:	d008      	beq.n	6dfe <pend+0x42>

extern void z_thread_timeout(struct _timeout *timeout);

static inline void z_add_thread_timeout(struct k_thread *thread, k_timeout_t ticks)
{
	z_add_timeout(&thread->base.timeout, z_thread_timeout, ticks);
    6dec:	4622      	mov	r2, r4
    6dee:	462b      	mov	r3, r5
    6df0:	f106 0018 	add.w	r0, r6, #24
    6df4:	4903      	ldr	r1, [pc, #12]	; (6e04 <pend+0x48>)
}
    6df6:	e8bd 41f0 	ldmia.w	sp!, {r4, r5, r6, r7, r8, lr}
    6dfa:	f000 bda3 	b.w	7944 <z_add_timeout>
    6dfe:	e8bd 81f0 	ldmia.w	sp!, {r4, r5, r6, r7, r8, pc}
    6e02:	bf00      	nop
    6e04:	00008ec5 	.word	0x00008ec5

00006e08 <z_pend_curr>:
{
    6e08:	b510      	push	{r4, lr}
	pending_current = _current;
    6e0a:	4b07      	ldr	r3, [pc, #28]	; (6e28 <z_pend_curr+0x20>)
    6e0c:	6898      	ldr	r0, [r3, #8]
    6e0e:	4b07      	ldr	r3, [pc, #28]	; (6e2c <z_pend_curr+0x24>)
{
    6e10:	460c      	mov	r4, r1
	pending_current = _current;
    6e12:	6018      	str	r0, [r3, #0]
{
    6e14:	4611      	mov	r1, r2
	pend(_current, wait_q, timeout);
    6e16:	e9dd 2302 	ldrd	r2, r3, [sp, #8]
    6e1a:	f7ff ffcf 	bl	6dbc <pend>
    6e1e:	4620      	mov	r0, r4
}
    6e20:	e8bd 4010 	ldmia.w	sp!, {r4, lr}
    6e24:	f7fc bd1a 	b.w	385c <arch_swap>
    6e28:	2000092c 	.word	0x2000092c
    6e2c:	2000095c 	.word	0x2000095c

00006e30 <z_tick_sleep.part.0>:
	z_impl_k_yield();
}
#include <syscalls/k_yield_mrsh.c>
#endif

static int32_t z_tick_sleep(k_ticks_t ticks)
    6e30:	e92d 41f0 	stmdb	sp!, {r4, r5, r6, r7, r8, lr}
    6e34:	4605      	mov	r5, r0
    6e36:	460f      	mov	r7, r1
		return 0;
	}

	k_timeout_t timeout = Z_TIMEOUT_TICKS(ticks);

	expected_wakeup_ticks = ticks + sys_clock_tick_get_32();
    6e38:	f002 f93a 	bl	90b0 <sys_clock_tick_get_32>
    6e3c:	4604      	mov	r4, r0
	__asm__ volatile(
    6e3e:	f04f 0320 	mov.w	r3, #32
    6e42:	f3ef 8811 	mrs	r8, BASEPRI
    6e46:	f383 8811 	msr	BASEPRI, r3
    6e4a:	f3bf 8f6f 	isb	sy

	k_spinlock_key_t key = k_spin_lock(&sched_spinlock);

#if defined(CONFIG_TIMESLICING) && defined(CONFIG_SWAP_NONATOMIC)
	pending_current = _current;
    6e4e:	4e12      	ldr	r6, [pc, #72]	; (6e98 <z_tick_sleep.part.0+0x68>)
    6e50:	4b12      	ldr	r3, [pc, #72]	; (6e9c <z_tick_sleep.part.0+0x6c>)
    6e52:	68b0      	ldr	r0, [r6, #8]
    6e54:	6018      	str	r0, [r3, #0]
#endif
	unready_thread(_current);
    6e56:	f7ff ff99 	bl	6d8c <unready_thread>
	z_add_thread_timeout(_current, timeout);
    6e5a:	68b0      	ldr	r0, [r6, #8]
    6e5c:	4910      	ldr	r1, [pc, #64]	; (6ea0 <z_tick_sleep.part.0+0x70>)
    6e5e:	462a      	mov	r2, r5
    6e60:	463b      	mov	r3, r7
    6e62:	3018      	adds	r0, #24
    6e64:	f000 fd6e 	bl	7944 <z_add_timeout>
	z_mark_thread_as_suspended(_current);
    6e68:	68b2      	ldr	r2, [r6, #8]
	thread->base.thread_state |= _THREAD_SUSPENDED;
    6e6a:	7b53      	ldrb	r3, [r2, #13]
    6e6c:	f043 0310 	orr.w	r3, r3, #16
    6e70:	7353      	strb	r3, [r2, #13]
    6e72:	4640      	mov	r0, r8
    6e74:	f7fc fcf2 	bl	385c <arch_swap>

	(void)z_swap(&sched_spinlock, key);

	__ASSERT(!z_is_thread_state_set(_current, _THREAD_SUSPENDED), "");

	ticks = (k_ticks_t)expected_wakeup_ticks - sys_clock_tick_get_32();
    6e78:	f002 f91a 	bl	90b0 <sys_clock_tick_get_32>
	expected_wakeup_ticks = ticks + sys_clock_tick_get_32();
    6e7c:	442c      	add	r4, r5
	ticks = (k_ticks_t)expected_wakeup_ticks - sys_clock_tick_get_32();
    6e7e:	1a24      	subs	r4, r4, r0
    6e80:	f04f 0500 	mov.w	r5, #0
    6e84:	f165 0500 	sbc.w	r5, r5, #0
    6e88:	2c00      	cmp	r4, #0
    6e8a:	f175 0300 	sbcs.w	r3, r5, #0
    6e8e:	bfb8      	it	lt
    6e90:	2400      	movlt	r4, #0
		return ticks;
	}
#endif

	return 0;
}
    6e92:	4620      	mov	r0, r4
    6e94:	e8bd 81f0 	ldmia.w	sp!, {r4, r5, r6, r7, r8, pc}
    6e98:	2000092c 	.word	0x2000092c
    6e9c:	2000095c 	.word	0x2000095c
    6ea0:	00008ec5 	.word	0x00008ec5

00006ea4 <z_impl_k_thread_suspend>:
{
    6ea4:	b570      	push	{r4, r5, r6, lr}
    6ea6:	4604      	mov	r4, r0
}

static inline int z_abort_thread_timeout(struct k_thread *thread)
{
	return z_abort_timeout(&thread->base.timeout);
    6ea8:	3018      	adds	r0, #24
    6eaa:	f002 f8c1 	bl	9030 <z_abort_timeout>
    6eae:	f04f 0320 	mov.w	r3, #32
    6eb2:	f3ef 8611 	mrs	r6, BASEPRI
    6eb6:	f383 8811 	msr	BASEPRI, r3
    6eba:	f3bf 8f6f 	isb	sy
		if (z_is_thread_queued(thread)) {
    6ebe:	f994 200d 	ldrsb.w	r2, [r4, #13]
	return z_is_thread_state_set(thread, _THREAD_QUEUED);
    6ec2:	7b63      	ldrb	r3, [r4, #13]
    6ec4:	2a00      	cmp	r2, #0
    6ec6:	da05      	bge.n	6ed4 <z_impl_k_thread_suspend+0x30>
	thread->base.thread_state &= ~_THREAD_QUEUED;
    6ec8:	f003 037f 	and.w	r3, r3, #127	; 0x7f
    6ecc:	7363      	strb	r3, [r4, #13]
	sys_dlist_remove(&thread->base.qnode_dlist);
    6ece:	4620      	mov	r0, r4
    6ed0:	f001 ff79 	bl	8dc6 <sys_dlist_remove>
		update_cache(thread == _current);
    6ed4:	4d0b      	ldr	r5, [pc, #44]	; (6f04 <z_impl_k_thread_suspend+0x60>)
	thread->base.thread_state |= _THREAD_SUSPENDED;
    6ed6:	7b63      	ldrb	r3, [r4, #13]
    6ed8:	68a8      	ldr	r0, [r5, #8]
    6eda:	f043 0310 	orr.w	r3, r3, #16
    6ede:	7363      	strb	r3, [r4, #13]
    6ee0:	1b03      	subs	r3, r0, r4
    6ee2:	4258      	negs	r0, r3
    6ee4:	4158      	adcs	r0, r3
    6ee6:	f7ff ff33 	bl	6d50 <update_cache>
	__asm__ volatile(
    6eea:	f386 8811 	msr	BASEPRI, r6
    6eee:	f3bf 8f6f 	isb	sy
	if (thread == _current) {
    6ef2:	68ab      	ldr	r3, [r5, #8]
    6ef4:	42a3      	cmp	r3, r4
    6ef6:	d103      	bne.n	6f00 <z_impl_k_thread_suspend+0x5c>
}
    6ef8:	e8bd 4070 	ldmia.w	sp!, {r4, r5, r6, lr}
		z_reschedule_unlocked();
    6efc:	f001 bf91 	b.w	8e22 <z_reschedule_unlocked>
}
    6f00:	bd70      	pop	{r4, r5, r6, pc}
    6f02:	bf00      	nop
    6f04:	2000092c 	.word	0x2000092c

00006f08 <k_sched_unlock>:
{
    6f08:	b510      	push	{r4, lr}
	__asm__ volatile(
    6f0a:	f04f 0320 	mov.w	r3, #32
    6f0e:	f3ef 8411 	mrs	r4, BASEPRI
    6f12:	f383 8811 	msr	BASEPRI, r3
    6f16:	f3bf 8f6f 	isb	sy
		++_current->base.sched_locked;
    6f1a:	4b08      	ldr	r3, [pc, #32]	; (6f3c <k_sched_unlock+0x34>)
    6f1c:	689a      	ldr	r2, [r3, #8]
    6f1e:	7bd3      	ldrb	r3, [r2, #15]
    6f20:	3301      	adds	r3, #1
    6f22:	73d3      	strb	r3, [r2, #15]
		update_cache(0);
    6f24:	2000      	movs	r0, #0
    6f26:	f7ff ff13 	bl	6d50 <update_cache>
	__asm__ volatile(
    6f2a:	f384 8811 	msr	BASEPRI, r4
    6f2e:	f3bf 8f6f 	isb	sy
}
    6f32:	e8bd 4010 	ldmia.w	sp!, {r4, lr}
	z_reschedule_unlocked();
    6f36:	f001 bf74 	b.w	8e22 <z_reschedule_unlocked>
    6f3a:	bf00      	nop
    6f3c:	2000092c 	.word	0x2000092c

00006f40 <move_thread_to_end_of_prio_q>:
{
    6f40:	b570      	push	{r4, r5, r6, lr}
	if (z_is_thread_queued(thread)) {
    6f42:	f990 200d 	ldrsb.w	r2, [r0, #13]
	return z_is_thread_state_set(thread, _THREAD_QUEUED);
    6f46:	7b43      	ldrb	r3, [r0, #13]
    6f48:	2a00      	cmp	r2, #0
{
    6f4a:	4601      	mov	r1, r0
	if (z_is_thread_queued(thread)) {
    6f4c:	da04      	bge.n	6f58 <move_thread_to_end_of_prio_q+0x18>
	thread->base.thread_state &= ~_THREAD_QUEUED;
    6f4e:	f003 037f 	and.w	r3, r3, #127	; 0x7f
    6f52:	7343      	strb	r3, [r0, #13]
	sys_dlist_remove(&thread->base.qnode_dlist);
    6f54:	f001 ff37 	bl	8dc6 <sys_dlist_remove>
	thread->base.thread_state |= _THREAD_QUEUED;
    6f58:	7b4b      	ldrb	r3, [r1, #13]
	return list->head == list;
    6f5a:	4a17      	ldr	r2, [pc, #92]	; (6fb8 <move_thread_to_end_of_prio_q+0x78>)
    6f5c:	f063 037f 	orn	r3, r3, #127	; 0x7f
    6f60:	4610      	mov	r0, r2
    6f62:	734b      	strb	r3, [r1, #13]
    6f64:	f850 3f28 	ldr.w	r3, [r0, #40]!
 */

static inline sys_dnode_t *sys_dlist_peek_next(sys_dlist_t *list,
					       sys_dnode_t *node)
{
	return (node != NULL) ? sys_dlist_peek_next_no_check(list, node) : NULL;
    6f68:	6ad5      	ldr	r5, [r2, #44]	; 0x2c
	return sys_dlist_is_empty(list) ? NULL : list->head;
    6f6a:	4283      	cmp	r3, r0
    6f6c:	bf08      	it	eq
    6f6e:	2300      	moveq	r3, #0
    6f70:	2b00      	cmp	r3, #0
    6f72:	bf38      	it	cc
    6f74:	2300      	movcc	r3, #0
	SYS_DLIST_FOR_EACH_CONTAINER(pq, t, base.qnode_dlist) {
    6f76:	b1cb      	cbz	r3, 6fac <move_thread_to_end_of_prio_q+0x6c>
	int32_t b1 = thread_1->base.prio;
    6f78:	f991 600e 	ldrsb.w	r6, [r1, #14]
	int32_t b2 = thread_2->base.prio;
    6f7c:	f993 400e 	ldrsb.w	r4, [r3, #14]
	if (b1 != b2) {
    6f80:	42a6      	cmp	r6, r4
    6f82:	d00f      	beq.n	6fa4 <move_thread_to_end_of_prio_q+0x64>
		return b2 - b1;
    6f84:	1ba4      	subs	r4, r4, r6
		if (z_sched_prio_cmp(thread, t) > 0) {
    6f86:	2c00      	cmp	r4, #0
    6f88:	dd0c      	ble.n	6fa4 <move_thread_to_end_of_prio_q+0x64>
 * @param successor the position before which "node" will be inserted
 * @param node the element to insert
 */
static inline void sys_dlist_insert(sys_dnode_t *successor, sys_dnode_t *node)
{
	sys_dnode_t *const prev = successor->prev;
    6f8a:	6858      	ldr	r0, [r3, #4]

	node->prev = prev;
	node->next = successor;
    6f8c:	e9c1 3000 	strd	r3, r0, [r1]
	prev->next = node;
    6f90:	6001      	str	r1, [r0, #0]
	successor->prev = node;
    6f92:	6059      	str	r1, [r3, #4]
	update_cache(thread == _current);
    6f94:	6890      	ldr	r0, [r2, #8]
    6f96:	1a43      	subs	r3, r0, r1
    6f98:	4258      	negs	r0, r3
}
    6f9a:	e8bd 4070 	ldmia.w	sp!, {r4, r5, r6, lr}
	update_cache(thread == _current);
    6f9e:	4158      	adcs	r0, r3
    6fa0:	f7ff bed6 	b.w	6d50 <update_cache>
	return (node == list->tail) ? NULL : node->next;
    6fa4:	42ab      	cmp	r3, r5
    6fa6:	d001      	beq.n	6fac <move_thread_to_end_of_prio_q+0x6c>
    6fa8:	681b      	ldr	r3, [r3, #0]
    6faa:	e7e4      	b.n	6f76 <move_thread_to_end_of_prio_q+0x36>
	node->prev = tail;
    6fac:	e9c1 0500 	strd	r0, r5, [r1]
	tail->next = node;
    6fb0:	6029      	str	r1, [r5, #0]
	list->tail = node;
    6fb2:	62d1      	str	r1, [r2, #44]	; 0x2c
}
    6fb4:	e7ee      	b.n	6f94 <move_thread_to_end_of_prio_q+0x54>
    6fb6:	bf00      	nop
    6fb8:	2000092c 	.word	0x2000092c

00006fbc <z_time_slice>:
{
    6fbc:	b570      	push	{r4, r5, r6, lr}
    6fbe:	4601      	mov	r1, r0
	__asm__ volatile(
    6fc0:	f04f 0320 	mov.w	r3, #32
    6fc4:	f3ef 8411 	mrs	r4, BASEPRI
    6fc8:	f383 8811 	msr	BASEPRI, r3
    6fcc:	f3bf 8f6f 	isb	sy
	if (pending_current == _current) {
    6fd0:	4b16      	ldr	r3, [pc, #88]	; (702c <z_time_slice+0x70>)
    6fd2:	4a17      	ldr	r2, [pc, #92]	; (7030 <z_time_slice+0x74>)
    6fd4:	6898      	ldr	r0, [r3, #8]
    6fd6:	6815      	ldr	r5, [r2, #0]
    6fd8:	42a8      	cmp	r0, r5
    6fda:	461d      	mov	r5, r3
    6fdc:	d106      	bne.n	6fec <z_time_slice+0x30>
			z_reset_time_slice();
    6fde:	f7ff fe49 	bl	6c74 <z_reset_time_slice>
	__asm__ volatile(
    6fe2:	f384 8811 	msr	BASEPRI, r4
    6fe6:	f3bf 8f6f 	isb	sy
}
    6fea:	bd70      	pop	{r4, r5, r6, pc}
	pending_current = NULL;
    6fec:	2600      	movs	r6, #0
    6fee:	6016      	str	r6, [r2, #0]
	if (slice_time && sliceable(_current)) {
    6ff0:	4a10      	ldr	r2, [pc, #64]	; (7034 <z_time_slice+0x78>)
    6ff2:	6812      	ldr	r2, [r2, #0]
    6ff4:	b1ba      	cbz	r2, 7026 <z_time_slice+0x6a>
		&& !z_is_idle_thread_object(thread);
    6ff6:	89c2      	ldrh	r2, [r0, #14]
    6ff8:	2a7f      	cmp	r2, #127	; 0x7f
    6ffa:	d814      	bhi.n	7026 <z_time_slice+0x6a>
		&& !z_is_thread_prevented_from_running(thread)
    6ffc:	7b42      	ldrb	r2, [r0, #13]
    6ffe:	06d2      	lsls	r2, r2, #27
    7000:	d111      	bne.n	7026 <z_time_slice+0x6a>
		&& !z_is_prio_higher(thread->base.prio, slice_max_prio)
    7002:	4a0d      	ldr	r2, [pc, #52]	; (7038 <z_time_slice+0x7c>)
    7004:	f990 600e 	ldrsb.w	r6, [r0, #14]
    7008:	6812      	ldr	r2, [r2, #0]
    700a:	4296      	cmp	r6, r2
    700c:	db0b      	blt.n	7026 <z_time_slice+0x6a>
		&& !z_is_idle_thread_object(thread);
    700e:	4a0b      	ldr	r2, [pc, #44]	; (703c <z_time_slice+0x80>)
    7010:	4290      	cmp	r0, r2
    7012:	d008      	beq.n	7026 <z_time_slice+0x6a>
		if (ticks >= _current_cpu->slice_ticks) {
    7014:	691a      	ldr	r2, [r3, #16]
    7016:	428a      	cmp	r2, r1
    7018:	dc02      	bgt.n	7020 <z_time_slice+0x64>
			move_thread_to_end_of_prio_q(_current);
    701a:	f7ff ff91 	bl	6f40 <move_thread_to_end_of_prio_q>
    701e:	e7de      	b.n	6fde <z_time_slice+0x22>
			_current_cpu->slice_ticks -= ticks;
    7020:	1a52      	subs	r2, r2, r1
    7022:	611a      	str	r2, [r3, #16]
    7024:	e7dd      	b.n	6fe2 <z_time_slice+0x26>
		_current_cpu->slice_ticks = 0;
    7026:	2300      	movs	r3, #0
    7028:	612b      	str	r3, [r5, #16]
    702a:	e7da      	b.n	6fe2 <z_time_slice+0x26>
    702c:	2000092c 	.word	0x2000092c
    7030:	2000095c 	.word	0x2000095c
    7034:	20000964 	.word	0x20000964
    7038:	20000960 	.word	0x20000960
    703c:	20000268 	.word	0x20000268

00007040 <ready_thread>:
{
    7040:	b470      	push	{r4, r5, r6}
	if (!z_is_thread_queued(thread) && z_is_thread_ready(thread)) {
    7042:	f990 300d 	ldrsb.w	r3, [r0, #13]
    7046:	7b42      	ldrb	r2, [r0, #13]
    7048:	2b00      	cmp	r3, #0
    704a:	db2d      	blt.n	70a8 <ready_thread+0x68>
	return !((z_is_thread_prevented_from_running(thread)) != 0U ||
    704c:	06d3      	lsls	r3, r2, #27
    704e:	d12b      	bne.n	70a8 <ready_thread+0x68>
	return !sys_dnode_is_linked(&to->node);
    7050:	6983      	ldr	r3, [r0, #24]
    7052:	bb4b      	cbnz	r3, 70a8 <ready_thread+0x68>
	return list->head == list;
    7054:	4915      	ldr	r1, [pc, #84]	; (70ac <ready_thread+0x6c>)
	thread->base.thread_state |= _THREAD_QUEUED;
    7056:	f062 027f 	orn	r2, r2, #127	; 0x7f
    705a:	7342      	strb	r2, [r0, #13]
    705c:	460a      	mov	r2, r1
	return (node != NULL) ? sys_dlist_peek_next_no_check(list, node) : NULL;
    705e:	6acd      	ldr	r5, [r1, #44]	; 0x2c
	return list->head == list;
    7060:	f852 4f28 	ldr.w	r4, [r2, #40]!
	return sys_dlist_is_empty(list) ? NULL : list->head;
    7064:	4294      	cmp	r4, r2
    7066:	bf18      	it	ne
    7068:	4623      	movne	r3, r4
    706a:	2b00      	cmp	r3, #0
    706c:	bf38      	it	cc
    706e:	2300      	movcc	r3, #0
	SYS_DLIST_FOR_EACH_CONTAINER(pq, t, base.qnode_dlist) {
    7070:	b1ab      	cbz	r3, 709e <ready_thread+0x5e>
	int32_t b1 = thread_1->base.prio;
    7072:	f990 600e 	ldrsb.w	r6, [r0, #14]
	int32_t b2 = thread_2->base.prio;
    7076:	f993 400e 	ldrsb.w	r4, [r3, #14]
	if (b1 != b2) {
    707a:	42a6      	cmp	r6, r4
    707c:	d00b      	beq.n	7096 <ready_thread+0x56>
		return b2 - b1;
    707e:	1ba4      	subs	r4, r4, r6
		if (z_sched_prio_cmp(thread, t) > 0) {
    7080:	2c00      	cmp	r4, #0
    7082:	dd08      	ble.n	7096 <ready_thread+0x56>
	sys_dnode_t *const prev = successor->prev;
    7084:	685a      	ldr	r2, [r3, #4]
	node->next = successor;
    7086:	e9c0 3200 	strd	r3, r2, [r0]
	prev->next = node;
    708a:	6010      	str	r0, [r2, #0]
	successor->prev = node;
    708c:	6058      	str	r0, [r3, #4]
}
    708e:	bc70      	pop	{r4, r5, r6}
		update_cache(0);
    7090:	2000      	movs	r0, #0
    7092:	f7ff be5d 	b.w	6d50 <update_cache>
	return (node == list->tail) ? NULL : node->next;
    7096:	42ab      	cmp	r3, r5
    7098:	d001      	beq.n	709e <ready_thread+0x5e>
    709a:	681b      	ldr	r3, [r3, #0]
    709c:	e7e8      	b.n	7070 <ready_thread+0x30>
	node->prev = tail;
    709e:	e9c0 2500 	strd	r2, r5, [r0]
	tail->next = node;
    70a2:	6028      	str	r0, [r5, #0]
	list->tail = node;
    70a4:	62c8      	str	r0, [r1, #44]	; 0x2c
}
    70a6:	e7f2      	b.n	708e <ready_thread+0x4e>
}
    70a8:	bc70      	pop	{r4, r5, r6}
    70aa:	4770      	bx	lr
    70ac:	2000092c 	.word	0x2000092c

000070b0 <z_sched_start>:
{
    70b0:	b510      	push	{r4, lr}
	__asm__ volatile(
    70b2:	f04f 0220 	mov.w	r2, #32
    70b6:	f3ef 8411 	mrs	r4, BASEPRI
    70ba:	f382 8811 	msr	BASEPRI, r2
    70be:	f3bf 8f6f 	isb	sy
	if (z_has_thread_started(thread)) {
    70c2:	7b42      	ldrb	r2, [r0, #13]
    70c4:	0751      	lsls	r1, r2, #29
    70c6:	d404      	bmi.n	70d2 <z_sched_start+0x22>
	__asm__ volatile(
    70c8:	f384 8811 	msr	BASEPRI, r4
    70cc:	f3bf 8f6f 	isb	sy
}
    70d0:	bd10      	pop	{r4, pc}
	thread->base.thread_state &= ~_THREAD_PRESTART;
    70d2:	f022 0204 	bic.w	r2, r2, #4
    70d6:	7342      	strb	r2, [r0, #13]
	ready_thread(thread);
    70d8:	f7ff ffb2 	bl	7040 <ready_thread>
	z_reschedule(&sched_spinlock, key);
    70dc:	4621      	mov	r1, r4
    70de:	4802      	ldr	r0, [pc, #8]	; (70e8 <z_sched_start+0x38>)
}
    70e0:	e8bd 4010 	ldmia.w	sp!, {r4, lr}
	z_reschedule(&sched_spinlock, key);
    70e4:	f7ff be0e 	b.w	6d04 <z_reschedule>
    70e8:	20000e9c 	.word	0x20000e9c

000070ec <z_set_prio>:
{
    70ec:	b5f8      	push	{r3, r4, r5, r6, r7, lr}
    70ee:	4604      	mov	r4, r0
	__asm__ volatile(
    70f0:	f04f 0320 	mov.w	r3, #32
    70f4:	f3ef 8611 	mrs	r6, BASEPRI
    70f8:	f383 8811 	msr	BASEPRI, r3
    70fc:	f3bf 8f6f 	isb	sy
	return !((z_is_thread_prevented_from_running(thread)) != 0U ||
    7100:	7b43      	ldrb	r3, [r0, #13]
    7102:	06da      	lsls	r2, r3, #27
    7104:	b249      	sxtb	r1, r1
    7106:	d138      	bne.n	717a <z_set_prio+0x8e>
    7108:	6985      	ldr	r5, [r0, #24]
		if (need_sched) {
    710a:	2d00      	cmp	r5, #0
    710c:	d135      	bne.n	717a <z_set_prio+0x8e>
	thread->base.thread_state &= ~_THREAD_QUEUED;
    710e:	f003 037f 	and.w	r3, r3, #127	; 0x7f
    7112:	7343      	strb	r3, [r0, #13]
	sys_dlist_remove(&thread->base.qnode_dlist);
    7114:	f001 fe57 	bl	8dc6 <sys_dlist_remove>
	thread->base.thread_state |= _THREAD_QUEUED;
    7118:	7b43      	ldrb	r3, [r0, #13]
				thread->base.prio = prio;
    711a:	7381      	strb	r1, [r0, #14]
	thread->base.thread_state |= _THREAD_QUEUED;
    711c:	f063 037f 	orn	r3, r3, #127	; 0x7f
    7120:	7343      	strb	r3, [r0, #13]
	return list->head == list;
    7122:	4817      	ldr	r0, [pc, #92]	; (7180 <z_set_prio+0x94>)
    7124:	4603      	mov	r3, r0
    7126:	f853 7f28 	ldr.w	r7, [r3, #40]!
	return sys_dlist_is_empty(list) ? NULL : list->head;
    712a:	429f      	cmp	r7, r3
    712c:	bf18      	it	ne
    712e:	463d      	movne	r5, r7
    7130:	2d00      	cmp	r5, #0
	return (node != NULL) ? sys_dlist_peek_next_no_check(list, node) : NULL;
    7132:	6ac7      	ldr	r7, [r0, #44]	; 0x2c
    7134:	461a      	mov	r2, r3
    7136:	462b      	mov	r3, r5
    7138:	bf38      	it	cc
    713a:	2300      	movcc	r3, #0
	SYS_DLIST_FOR_EACH_CONTAINER(pq, t, base.qnode_dlist) {
    713c:	b1c3      	cbz	r3, 7170 <z_set_prio+0x84>
	int32_t b2 = thread_2->base.prio;
    713e:	f993 500e 	ldrsb.w	r5, [r3, #14]
	if (b1 != b2) {
    7142:	42a9      	cmp	r1, r5
    7144:	d010      	beq.n	7168 <z_set_prio+0x7c>
		return b2 - b1;
    7146:	1a6d      	subs	r5, r5, r1
		if (z_sched_prio_cmp(thread, t) > 0) {
    7148:	2d00      	cmp	r5, #0
    714a:	dd0d      	ble.n	7168 <z_set_prio+0x7c>
	sys_dnode_t *const prev = successor->prev;
    714c:	685a      	ldr	r2, [r3, #4]
	node->next = successor;
    714e:	e9c4 3200 	strd	r3, r2, [r4]
	prev->next = node;
    7152:	6014      	str	r4, [r2, #0]
	successor->prev = node;
    7154:	605c      	str	r4, [r3, #4]
			update_cache(1);
    7156:	2001      	movs	r0, #1
    7158:	f7ff fdfa 	bl	6d50 <update_cache>
    715c:	2001      	movs	r0, #1
	__asm__ volatile(
    715e:	f386 8811 	msr	BASEPRI, r6
    7162:	f3bf 8f6f 	isb	sy
}
    7166:	bdf8      	pop	{r3, r4, r5, r6, r7, pc}
	return (node == list->tail) ? NULL : node->next;
    7168:	42bb      	cmp	r3, r7
    716a:	d001      	beq.n	7170 <z_set_prio+0x84>
    716c:	681b      	ldr	r3, [r3, #0]
    716e:	e7e5      	b.n	713c <z_set_prio+0x50>
	node->prev = tail;
    7170:	e9c4 2700 	strd	r2, r7, [r4]
	tail->next = node;
    7174:	603c      	str	r4, [r7, #0]
	list->tail = node;
    7176:	62c4      	str	r4, [r0, #44]	; 0x2c
}
    7178:	e7ed      	b.n	7156 <z_set_prio+0x6a>
			thread->base.prio = prio;
    717a:	73a1      	strb	r1, [r4, #14]
    717c:	2000      	movs	r0, #0
    717e:	e7ee      	b.n	715e <z_set_prio+0x72>
    7180:	2000092c 	.word	0x2000092c

00007184 <z_sched_init>:
	list->head = (sys_dnode_t *)list;
    7184:	4b04      	ldr	r3, [pc, #16]	; (7198 <z_sched_init+0x14>)
	k_sched_time_slice_set(CONFIG_TIMESLICE_SIZE,
    7186:	2100      	movs	r1, #0
    7188:	f103 0228 	add.w	r2, r3, #40	; 0x28
	list->tail = (sys_dnode_t *)list;
    718c:	e9c3 220a 	strd	r2, r2, [r3, #40]	; 0x28
    7190:	4608      	mov	r0, r1
    7192:	f7ff bd85 	b.w	6ca0 <k_sched_time_slice_set>
    7196:	bf00      	nop
    7198:	2000092c 	.word	0x2000092c

0000719c <z_impl_k_yield>:
	if (!z_is_idle_thread_object(_current)) {
    719c:	4926      	ldr	r1, [pc, #152]	; (7238 <z_impl_k_yield+0x9c>)
{
    719e:	b5f8      	push	{r3, r4, r5, r6, r7, lr}
	if (!z_is_idle_thread_object(_current)) {
    71a0:	688a      	ldr	r2, [r1, #8]
    71a2:	4b26      	ldr	r3, [pc, #152]	; (723c <z_impl_k_yield+0xa0>)
    71a4:	429a      	cmp	r2, r3
    71a6:	d03d      	beq.n	7224 <z_impl_k_yield+0x88>
	__asm__ volatile(
    71a8:	f04f 0320 	mov.w	r3, #32
    71ac:	f3ef 8511 	mrs	r5, BASEPRI
    71b0:	f383 8811 	msr	BASEPRI, r3
    71b4:	f3bf 8f6f 	isb	sy
			dequeue_thread(&_kernel.ready_q.runq,
    71b8:	6888      	ldr	r0, [r1, #8]
	thread->base.thread_state &= ~_THREAD_QUEUED;
    71ba:	7b43      	ldrb	r3, [r0, #13]
    71bc:	f003 037f 	and.w	r3, r3, #127	; 0x7f
    71c0:	7343      	strb	r3, [r0, #13]
	sys_dlist_remove(&thread->base.qnode_dlist);
    71c2:	f001 fe00 	bl	8dc6 <sys_dlist_remove>
		queue_thread(&_kernel.ready_q.runq, _current);
    71c6:	688a      	ldr	r2, [r1, #8]
	thread->base.thread_state |= _THREAD_QUEUED;
    71c8:	7b53      	ldrb	r3, [r2, #13]
	return list->head == list;
    71ca:	4608      	mov	r0, r1
    71cc:	f063 037f 	orn	r3, r3, #127	; 0x7f
    71d0:	7353      	strb	r3, [r2, #13]
    71d2:	f850 3f28 	ldr.w	r3, [r0, #40]!
	return (node != NULL) ? sys_dlist_peek_next_no_check(list, node) : NULL;
    71d6:	6ace      	ldr	r6, [r1, #44]	; 0x2c
	return sys_dlist_is_empty(list) ? NULL : list->head;
    71d8:	4283      	cmp	r3, r0
    71da:	bf08      	it	eq
    71dc:	2300      	moveq	r3, #0
    71de:	2b00      	cmp	r3, #0
    71e0:	bf38      	it	cc
    71e2:	2300      	movcc	r3, #0
	SYS_DLIST_FOR_EACH_CONTAINER(pq, t, base.qnode_dlist) {
    71e4:	b1cb      	cbz	r3, 721a <z_impl_k_yield+0x7e>
	int32_t b1 = thread_1->base.prio;
    71e6:	f992 700e 	ldrsb.w	r7, [r2, #14]
	int32_t b2 = thread_2->base.prio;
    71ea:	f993 400e 	ldrsb.w	r4, [r3, #14]
	if (b1 != b2) {
    71ee:	42a7      	cmp	r7, r4
    71f0:	d00f      	beq.n	7212 <z_impl_k_yield+0x76>
		return b2 - b1;
    71f2:	1be4      	subs	r4, r4, r7
		if (z_sched_prio_cmp(thread, t) > 0) {
    71f4:	2c00      	cmp	r4, #0
    71f6:	dd0c      	ble.n	7212 <z_impl_k_yield+0x76>
	sys_dnode_t *const prev = successor->prev;
    71f8:	6859      	ldr	r1, [r3, #4]
	node->next = successor;
    71fa:	e9c2 3100 	strd	r3, r1, [r2]
	prev->next = node;
    71fe:	600a      	str	r2, [r1, #0]
	successor->prev = node;
    7200:	605a      	str	r2, [r3, #4]
		update_cache(1);
    7202:	2001      	movs	r0, #1
    7204:	f7ff fda4 	bl	6d50 <update_cache>
    7208:	4628      	mov	r0, r5
}
    720a:	e8bd 40f8 	ldmia.w	sp!, {r3, r4, r5, r6, r7, lr}
    720e:	f7fc bb25 	b.w	385c <arch_swap>
	return (node == list->tail) ? NULL : node->next;
    7212:	42b3      	cmp	r3, r6
    7214:	d001      	beq.n	721a <z_impl_k_yield+0x7e>
    7216:	681b      	ldr	r3, [r3, #0]
    7218:	e7e4      	b.n	71e4 <z_impl_k_yield+0x48>
	node->prev = tail;
    721a:	e9c2 0600 	strd	r0, r6, [r2]
	tail->next = node;
    721e:	6032      	str	r2, [r6, #0]
	list->tail = node;
    7220:	62ca      	str	r2, [r1, #44]	; 0x2c
}
    7222:	e7ee      	b.n	7202 <z_impl_k_yield+0x66>
    7224:	f04f 0320 	mov.w	r3, #32
    7228:	f3ef 8011 	mrs	r0, BASEPRI
    722c:	f383 8811 	msr	BASEPRI, r3
    7230:	f3bf 8f6f 	isb	sy
    7234:	e7e9      	b.n	720a <z_impl_k_yield+0x6e>
    7236:	bf00      	nop
    7238:	2000092c 	.word	0x2000092c
    723c:	20000268 	.word	0x20000268

00007240 <z_impl_k_sleep>:

	__ASSERT(!arch_is_in_isr(), "");
	sys_trace_void(SYS_TRACE_ID_SLEEP);

	/* in case of K_FOREVER, we suspend */
	if (K_TIMEOUT_EQ(timeout, K_FOREVER)) {
    7240:	f1b1 3fff 	cmp.w	r1, #4294967295	; 0xffffffff
    7244:	bf08      	it	eq
    7246:	f1b0 3fff 	cmpeq.w	r0, #4294967295	; 0xffffffff
{
    724a:	b508      	push	{r3, lr}
    724c:	4602      	mov	r2, r0
    724e:	460b      	mov	r3, r1
	if (K_TIMEOUT_EQ(timeout, K_FOREVER)) {
    7250:	d106      	bne.n	7260 <z_impl_k_sleep+0x20>
		k_thread_suspend(_current);
    7252:	4b0b      	ldr	r3, [pc, #44]	; (7280 <z_impl_k_sleep+0x40>)
    7254:	6898      	ldr	r0, [r3, #8]
	z_impl_k_thread_suspend(thread);
    7256:	f7ff fe25 	bl	6ea4 <z_impl_k_thread_suspend>
		return (int32_t) K_TICKS_FOREVER;
    725a:	f04f 30ff 	mov.w	r0, #4294967295	; 0xffffffff
	ticks = timeout.ticks;

	ticks = z_tick_sleep(ticks);
	sys_trace_end_call(SYS_TRACE_ID_SLEEP);
	return k_ticks_to_ms_floor64(ticks);
}
    725e:	bd08      	pop	{r3, pc}
	if (ticks == 0) {
    7260:	4313      	orrs	r3, r2
    7262:	d10a      	bne.n	727a <z_impl_k_sleep+0x3a>
	z_impl_k_yield();
    7264:	f7ff ff9a 	bl	719c <z_impl_k_yield>
		return 0;
    7268:	2000      	movs	r0, #0
			return (t * to_hz + off) / from_hz;
    726a:	f44f 737a 	mov.w	r3, #1000	; 0x3e8
    726e:	fb80 2303 	smull	r2, r3, r0, r3
    7272:	0bd0      	lsrs	r0, r2, #15
    7274:	ea40 4043 	orr.w	r0, r0, r3, lsl #17
	return k_ticks_to_ms_floor64(ticks);
    7278:	e7f1      	b.n	725e <z_impl_k_sleep+0x1e>
    727a:	f7ff fdd9 	bl	6e30 <z_tick_sleep.part.0>
    727e:	e7f4      	b.n	726a <z_impl_k_sleep+0x2a>
    7280:	2000092c 	.word	0x2000092c

00007284 <z_impl_k_current_get>:

#ifdef CONFIG_SMP
	arch_irq_unlock(k);
#endif
	return ret;
}
    7284:	4b01      	ldr	r3, [pc, #4]	; (728c <z_impl_k_current_get+0x8>)
    7286:	6898      	ldr	r0, [r3, #8]
    7288:	4770      	bx	lr
    728a:	bf00      	nop
    728c:	2000092c 	.word	0x2000092c

00007290 <z_impl_k_is_preempt_thread>:
    7290:	f3ef 8305 	mrs	r3, IPSR
#include <syscalls/k_current_get_mrsh.c>
#endif

int z_impl_k_is_preempt_thread(void)
{
	return !arch_is_in_isr() && is_preempt(_current);
    7294:	b93b      	cbnz	r3, 72a6 <z_impl_k_is_preempt_thread+0x16>
    7296:	4b05      	ldr	r3, [pc, #20]	; (72ac <z_impl_k_is_preempt_thread+0x1c>)
    7298:	689b      	ldr	r3, [r3, #8]
    729a:	89d8      	ldrh	r0, [r3, #14]
    729c:	287f      	cmp	r0, #127	; 0x7f
    729e:	bf8c      	ite	hi
    72a0:	2000      	movhi	r0, #0
    72a2:	2001      	movls	r0, #1
    72a4:	4770      	bx	lr
    72a6:	2000      	movs	r0, #0
}
    72a8:	4770      	bx	lr
    72aa:	bf00      	nop
    72ac:	2000092c 	.word	0x2000092c

000072b0 <z_thread_abort>:
#endif
	}
}

void z_thread_abort(struct k_thread *thread)
{
    72b0:	e92d 41f0 	stmdb	sp!, {r4, r5, r6, r7, r8, lr}
    72b4:	4604      	mov	r4, r0
    72b6:	f04f 0320 	mov.w	r3, #32
    72ba:	f3ef 8611 	mrs	r6, BASEPRI
    72be:	f383 8811 	msr	BASEPRI, r3
    72c2:	f3bf 8f6f 	isb	sy
	k_spinlock_key_t key = k_spin_lock(&sched_spinlock);

	if ((thread->base.thread_state & _THREAD_DEAD) != 0U) {
    72c6:	7b43      	ldrb	r3, [r0, #13]
    72c8:	071a      	lsls	r2, r3, #28
    72ca:	d505      	bpl.n	72d8 <z_thread_abort+0x28>
	__asm__ volatile(
    72cc:	f386 8811 	msr	BASEPRI, r6
    72d0:	f3bf 8f6f 	isb	sy
	if (thread == _current && !arch_is_in_isr()) {
		z_swap(&sched_spinlock, key);
		__ASSERT(false, "aborted _current back from dead");
	}
	k_spin_unlock(&sched_spinlock, key);
}
    72d4:	e8bd 81f0 	ldmia.w	sp!, {r4, r5, r6, r7, r8, pc}
		thread->base.thread_state &= ~_THREAD_ABORTING;
    72d8:	f023 0220 	bic.w	r2, r3, #32
    72dc:	f042 0108 	orr.w	r1, r2, #8
		if (z_is_thread_queued(thread)) {
    72e0:	09d2      	lsrs	r2, r2, #7
    72e2:	d120      	bne.n	7326 <z_thread_abort+0x76>
		thread->base.thread_state &= ~_THREAD_ABORTING;
    72e4:	7341      	strb	r1, [r0, #13]
		if (thread->base.pended_on != NULL) {
    72e6:	68a3      	ldr	r3, [r4, #8]
    72e8:	b113      	cbz	r3, 72f0 <z_thread_abort+0x40>
			unpend_thread_no_timeout(thread);
    72ea:	4620      	mov	r0, r4
    72ec:	f001 fd73 	bl	8dd6 <unpend_thread_no_timeout>
	return z_abort_timeout(&thread->base.timeout);
    72f0:	f104 0018 	add.w	r0, r4, #24
    72f4:	f001 fe9c 	bl	9030 <z_abort_timeout>
	sys_dlist_init(&w->waitq);
}

static inline struct k_thread *z_waitq_head(_wait_q_t *w)
{
	return (struct k_thread *)sys_dlist_peek_head(&w->waitq);
    72f8:	f104 0758 	add.w	r7, r4, #88	; 0x58
    72fc:	f04f 0800 	mov.w	r8, #0
	return list->head == list;
    7300:	6da5      	ldr	r5, [r4, #88]	; 0x58
	return sys_dlist_is_empty(list) ? NULL : list->head;
    7302:	42bd      	cmp	r5, r7
    7304:	d000      	beq.n	7308 <z_thread_abort+0x58>
	while ((thread = z_waitq_head(wait_q)) != NULL) {
    7306:	b9b5      	cbnz	r5, 7336 <z_thread_abort+0x86>
		update_cache(1);
    7308:	2001      	movs	r0, #1
    730a:	f7ff fd21 	bl	6d50 <update_cache>
	if (thread == _current && !arch_is_in_isr()) {
    730e:	4b10      	ldr	r3, [pc, #64]	; (7350 <z_thread_abort+0xa0>)
    7310:	689b      	ldr	r3, [r3, #8]
    7312:	42a3      	cmp	r3, r4
    7314:	d1da      	bne.n	72cc <z_thread_abort+0x1c>
    7316:	f3ef 8305 	mrs	r3, IPSR
    731a:	2b00      	cmp	r3, #0
    731c:	d1d6      	bne.n	72cc <z_thread_abort+0x1c>
    731e:	4630      	mov	r0, r6
    7320:	f7fc fa9c 	bl	385c <arch_swap>
	return ret;
    7324:	e7d2      	b.n	72cc <z_thread_abort+0x1c>
	thread->base.thread_state &= ~_THREAD_QUEUED;
    7326:	f003 035f 	and.w	r3, r3, #95	; 0x5f
    732a:	f043 0308 	orr.w	r3, r3, #8
    732e:	7343      	strb	r3, [r0, #13]
	sys_dlist_remove(&thread->base.qnode_dlist);
    7330:	f001 fd49 	bl	8dc6 <sys_dlist_remove>
}
    7334:	e7d7      	b.n	72e6 <z_thread_abort+0x36>
		unpend_thread_no_timeout(thread);
    7336:	4628      	mov	r0, r5
    7338:	f001 fd4d 	bl	8dd6 <unpend_thread_no_timeout>
    733c:	f105 0018 	add.w	r0, r5, #24
    7340:	f001 fe76 	bl	9030 <z_abort_timeout>
    7344:	f8c5 8078 	str.w	r8, [r5, #120]	; 0x78
		ready_thread(thread);
    7348:	4628      	mov	r0, r5
    734a:	f7ff fe79 	bl	7040 <ready_thread>
    734e:	e7d7      	b.n	7300 <z_thread_abort+0x50>
    7350:	2000092c 	.word	0x2000092c

00007354 <z_sched_wait>:
	return ret;
}

int z_sched_wait(struct k_spinlock *lock, k_spinlock_key_t key,
		 _wait_q_t *wait_q, k_timeout_t timeout, void **data)
{
    7354:	b5d3      	push	{r0, r1, r4, r6, r7, lr}
	int ret = z_pend_curr(lock, key, wait_q, timeout);
    7356:	e9dd 6706 	ldrd	r6, r7, [sp, #24]
{
    735a:	9c08      	ldr	r4, [sp, #32]
	int ret = z_pend_curr(lock, key, wait_q, timeout);
    735c:	e9cd 6700 	strd	r6, r7, [sp]
    7360:	f7ff fd52 	bl	6e08 <z_pend_curr>

	if (data != NULL) {
    7364:	b11c      	cbz	r4, 736e <z_sched_wait+0x1a>
		*data = _current->base.swap_data;
    7366:	4b03      	ldr	r3, [pc, #12]	; (7374 <z_sched_wait+0x20>)
    7368:	689b      	ldr	r3, [r3, #8]
    736a:	695b      	ldr	r3, [r3, #20]
    736c:	6023      	str	r3, [r4, #0]
	}
	return ret;
}
    736e:	b002      	add	sp, #8
    7370:	bdd0      	pop	{r4, r6, r7, pc}
    7372:	bf00      	nop
    7374:	2000092c 	.word	0x2000092c

00007378 <z_impl_k_sem_give>:
	ARG_UNUSED(sem);
#endif
}

void z_impl_k_sem_give(struct k_sem *sem)
{
    7378:	b538      	push	{r3, r4, r5, lr}
    737a:	4604      	mov	r4, r0
	__asm__ volatile(
    737c:	f04f 0320 	mov.w	r3, #32
    7380:	f3ef 8511 	mrs	r5, BASEPRI
    7384:	f383 8811 	msr	BASEPRI, r3
    7388:	f3bf 8f6f 	isb	sy
	k_spinlock_key_t key = k_spin_lock(&lock);
	struct k_thread *thread;

	sys_trace_semaphore_give(sem);
	thread = z_unpend_first_thread(&sem->wait_q);
    738c:	f001 fdd1 	bl	8f32 <z_unpend_first_thread>

	if (thread != NULL) {
    7390:	b148      	cbz	r0, 73a6 <z_impl_k_sem_give+0x2e>
    7392:	2200      	movs	r2, #0
    7394:	6782      	str	r2, [r0, #120]	; 0x78
		arch_thread_return_value_set(thread, 0);
		z_ready_thread(thread);
    7396:	f001 fd85 	bl	8ea4 <z_ready_thread>
	} else {
		sem->count += (sem->count != sem->limit) ? 1U : 0U;
		handle_poll_events(sem);
	}

	z_reschedule(&lock, key);
    739a:	4629      	mov	r1, r5
    739c:	4805      	ldr	r0, [pc, #20]	; (73b4 <z_impl_k_sem_give+0x3c>)
	sys_trace_end_call(SYS_TRACE_ID_SEMA_GIVE);
}
    739e:	e8bd 4038 	ldmia.w	sp!, {r3, r4, r5, lr}
	z_reschedule(&lock, key);
    73a2:	f7ff bcaf 	b.w	6d04 <z_reschedule>
		sem->count += (sem->count != sem->limit) ? 1U : 0U;
    73a6:	e9d4 3202 	ldrd	r3, r2, [r4, #8]
    73aa:	429a      	cmp	r2, r3
    73ac:	bf18      	it	ne
    73ae:	3301      	addne	r3, #1
    73b0:	60a3      	str	r3, [r4, #8]
		handle_poll_events(sem);
    73b2:	e7f2      	b.n	739a <z_impl_k_sem_give+0x22>
    73b4:	20000e9c 	.word	0x20000e9c

000073b8 <z_impl_k_sem_take>:
}
#include <syscalls/k_sem_give_mrsh.c>
#endif

int z_impl_k_sem_take(struct k_sem *sem, k_timeout_t timeout)
{
    73b8:	b537      	push	{r0, r1, r2, r4, r5, lr}
    73ba:	4614      	mov	r4, r2
    73bc:	461d      	mov	r5, r3
    73be:	f04f 0320 	mov.w	r3, #32
    73c2:	f3ef 8111 	mrs	r1, BASEPRI
    73c6:	f383 8811 	msr	BASEPRI, r3
    73ca:	f3bf 8f6f 	isb	sy
		  K_TIMEOUT_EQ(timeout, K_NO_WAIT)), "");

	k_spinlock_key_t key = k_spin_lock(&lock);
	sys_trace_semaphore_take(sem);

	if (likely(sem->count > 0U)) {
    73ce:	6883      	ldr	r3, [r0, #8]
    73d0:	b143      	cbz	r3, 73e4 <z_impl_k_sem_take+0x2c>
		sem->count--;
    73d2:	3b01      	subs	r3, #1
    73d4:	6083      	str	r3, [r0, #8]
	__asm__ volatile(
    73d6:	f381 8811 	msr	BASEPRI, r1
    73da:	f3bf 8f6f 	isb	sy
		k_spin_unlock(&lock, key);
		ret = 0;
    73de:	2000      	movs	r0, #0
	ret = z_pend_curr(&lock, key, &sem->wait_q, timeout);

out:
	sys_trace_end_call(SYS_TRACE_ID_SEMA_TAKE);
	return ret;
}
    73e0:	b003      	add	sp, #12
    73e2:	bd30      	pop	{r4, r5, pc}
	if (K_TIMEOUT_EQ(timeout, K_NO_WAIT)) {
    73e4:	ea54 0305 	orrs.w	r3, r4, r5
    73e8:	d106      	bne.n	73f8 <z_impl_k_sem_take+0x40>
    73ea:	f381 8811 	msr	BASEPRI, r1
    73ee:	f3bf 8f6f 	isb	sy
		ret = -EBUSY;
    73f2:	f06f 000f 	mvn.w	r0, #15
    73f6:	e7f3      	b.n	73e0 <z_impl_k_sem_take+0x28>
	ret = z_pend_curr(&lock, key, &sem->wait_q, timeout);
    73f8:	4602      	mov	r2, r0
    73fa:	e9cd 4500 	strd	r4, r5, [sp]
    73fe:	4802      	ldr	r0, [pc, #8]	; (7408 <z_impl_k_sem_take+0x50>)
    7400:	f7ff fd02 	bl	6e08 <z_pend_curr>
	return ret;
    7404:	e7ec      	b.n	73e0 <z_impl_k_sem_take+0x28>
    7406:	bf00      	nop
    7408:	20000e9c 	.word	0x20000e9c

0000740c <k_sys_work_q_init>:
			     CONFIG_SYSTEM_WORKQUEUE_STACK_SIZE);

struct k_work_q k_sys_work_q;

static int k_sys_work_q_init(const struct device *dev)
{
    740c:	b51f      	push	{r0, r1, r2, r3, r4, lr}
	ARG_UNUSED(dev);
	struct k_work_queue_config cfg = {
    740e:	4b09      	ldr	r3, [pc, #36]	; (7434 <k_sys_work_q_init+0x28>)
    7410:	9302      	str	r3, [sp, #8]
		.name = "sysworkq",
		.no_yield = IS_ENABLED(CONFIG_SYSTEM_WORKQUEUE_NO_YIELD),
	};

	k_work_queue_start(&k_sys_work_q,
    7412:	ab02      	add	r3, sp, #8
	struct k_work_queue_config cfg = {
    7414:	2400      	movs	r4, #0
	k_work_queue_start(&k_sys_work_q,
    7416:	9300      	str	r3, [sp, #0]
    7418:	4907      	ldr	r1, [pc, #28]	; (7438 <k_sys_work_q_init+0x2c>)
    741a:	4808      	ldr	r0, [pc, #32]	; (743c <k_sys_work_q_init+0x30>)
	struct k_work_queue_config cfg = {
    741c:	f88d 400c 	strb.w	r4, [sp, #12]
	k_work_queue_start(&k_sys_work_q,
    7420:	f04f 33ff 	mov.w	r3, #4294967295	; 0xffffffff
    7424:	f44f 6280 	mov.w	r2, #1024	; 0x400
    7428:	f000 f9de 	bl	77e8 <k_work_queue_start>
			    sys_work_q_stack,
			    K_KERNEL_STACK_SIZEOF(sys_work_q_stack),
			    CONFIG_SYSTEM_WORKQUEUE_PRIORITY, &cfg);
	return 0;
}
    742c:	4620      	mov	r0, r4
    742e:	b004      	add	sp, #16
    7430:	bd10      	pop	{r4, pc}
    7432:	bf00      	nop
    7434:	0000a081 	.word	0x0000a081
    7438:	20001ee0 	.word	0x20001ee0
    743c:	20000368 	.word	0x20000368

00007440 <z_setup_new_thread>:
char *z_setup_new_thread(struct k_thread *new_thread,
			 k_thread_stack_t *stack, size_t stack_size,
			 k_thread_entry_t entry,
			 void *p1, void *p2, void *p3,
			 int prio, uint32_t options, const char *name)
{
    7440:	e92d 41ff 	stmdb	sp!, {r0, r1, r2, r3, r4, r5, r6, r7, r8, lr}
void z_init_thread_base(struct _thread_base *thread_base, int priority,
		       uint32_t initial_state, unsigned int options)
{
	/* k_q_node is initialized upon first insertion in a list */
	thread_base->pended_on = NULL;
	thread_base->user_options = (uint8_t)options;
    7444:	9e0e      	ldr	r6, [sp, #56]	; 0x38
    7446:	7306      	strb	r6, [r0, #12]
	thread_base->thread_state = (uint8_t)initial_state;
    7448:	2604      	movs	r6, #4
    744a:	7346      	strb	r6, [r0, #13]

	thread_base->prio = priority;
    744c:	9e0d      	ldr	r6, [sp, #52]	; 0x34
    744e:	7386      	strb	r6, [r0, #14]
	sys_dlist_init(&w->waitq);
    7450:	f100 0558 	add.w	r5, r0, #88	; 0x58
		stack_obj_size = Z_KERNEL_STACK_SIZE_ADJUST(stack_size);
    7454:	1dd6      	adds	r6, r2, #7
	list->tail = (sys_dnode_t *)list;
    7456:	e9c0 5516 	strd	r5, r5, [r0, #88]	; 0x58
	arch_new_thread(new_thread, stack, stack_ptr, entry, p1, p2, p3);
    745a:	9a0c      	ldr	r2, [sp, #48]	; 0x30
	thread_base->pended_on = NULL;
    745c:	2500      	movs	r5, #0
		stack_obj_size = Z_KERNEL_STACK_SIZE_ADJUST(stack_size);
    745e:	f026 0607 	bic.w	r6, r6, #7
	node->prev = NULL;
    7462:	e9c0 5506 	strd	r5, r5, [r0, #24]
	new_thread->stack_info.size = stack_buf_size;
    7466:	e9c0 1619 	strd	r1, r6, [r0, #100]	; 0x64
	thread_base->pended_on = NULL;
    746a:	6085      	str	r5, [r0, #8]

	thread_base->sched_locked = 0U;
    746c:	73c5      	strb	r5, [r0, #15]
	new_thread->stack_info.delta = delta;
    746e:	66c5      	str	r5, [r0, #108]	; 0x6c
	arch_new_thread(new_thread, stack, stack_ptr, entry, p1, p2, p3);
    7470:	9202      	str	r2, [sp, #8]
    7472:	9a0b      	ldr	r2, [sp, #44]	; 0x2c
    7474:	9201      	str	r2, [sp, #4]
	stack_ptr = (char *)stack + stack_obj_size;
    7476:	eb01 0806 	add.w	r8, r1, r6
	arch_new_thread(new_thread, stack, stack_ptr, entry, p1, p2, p3);
    747a:	9a0a      	ldr	r2, [sp, #40]	; 0x28
    747c:	9200      	str	r2, [sp, #0]
    747e:	4642      	mov	r2, r8
{
    7480:	4604      	mov	r4, r0
	arch_new_thread(new_thread, stack, stack_ptr, entry, p1, p2, p3);
    7482:	f7fc fa6f 	bl	3964 <arch_new_thread>
	if (!_current) {
    7486:	4b05      	ldr	r3, [pc, #20]	; (749c <z_setup_new_thread+0x5c>)
	new_thread->init_data = NULL;
    7488:	6565      	str	r5, [r4, #84]	; 0x54
	if (!_current) {
    748a:	689b      	ldr	r3, [r3, #8]
    748c:	b103      	cbz	r3, 7490 <z_setup_new_thread+0x50>
	new_thread->resource_pool = _current->resource_pool;
    748e:	6f1b      	ldr	r3, [r3, #112]	; 0x70
	return stack_ptr;
    7490:	6723      	str	r3, [r4, #112]	; 0x70
}
    7492:	4640      	mov	r0, r8
    7494:	b004      	add	sp, #16
    7496:	e8bd 81f0 	ldmia.w	sp!, {r4, r5, r6, r7, r8, pc}
    749a:	bf00      	nop
    749c:	2000092c 	.word	0x2000092c

000074a0 <z_impl_k_thread_create>:
{
    74a0:	b5f0      	push	{r4, r5, r6, r7, lr}
    74a2:	b087      	sub	sp, #28
	z_setup_new_thread(new_thread, stack, stack_size, entry, p1, p2, p3,
    74a4:	2500      	movs	r5, #0
    74a6:	9505      	str	r5, [sp, #20]
    74a8:	9d10      	ldr	r5, [sp, #64]	; 0x40
    74aa:	9504      	str	r5, [sp, #16]
    74ac:	9d0f      	ldr	r5, [sp, #60]	; 0x3c
    74ae:	9503      	str	r5, [sp, #12]
    74b0:	9d0e      	ldr	r5, [sp, #56]	; 0x38
    74b2:	9502      	str	r5, [sp, #8]
{
    74b4:	e9dd 6712 	ldrd	r6, r7, [sp, #72]	; 0x48
	z_setup_new_thread(new_thread, stack, stack_size, entry, p1, p2, p3,
    74b8:	9d0d      	ldr	r5, [sp, #52]	; 0x34
    74ba:	9501      	str	r5, [sp, #4]
    74bc:	9d0c      	ldr	r5, [sp, #48]	; 0x30
    74be:	9500      	str	r5, [sp, #0]
{
    74c0:	4604      	mov	r4, r0
	z_setup_new_thread(new_thread, stack, stack_size, entry, p1, p2, p3,
    74c2:	f7ff ffbd 	bl	7440 <z_setup_new_thread>
	if (!K_TIMEOUT_EQ(delay, K_FOREVER)) {
    74c6:	1c7b      	adds	r3, r7, #1
    74c8:	bf08      	it	eq
    74ca:	f1b6 3fff 	cmpeq.w	r6, #4294967295	; 0xffffffff
    74ce:	d005      	beq.n	74dc <z_impl_k_thread_create+0x3c>
	if (K_TIMEOUT_EQ(delay, K_NO_WAIT)) {
    74d0:	ea56 0307 	orrs.w	r3, r6, r7
    74d4:	d105      	bne.n	74e2 <z_impl_k_thread_create+0x42>
	z_sched_start(thread);
    74d6:	4620      	mov	r0, r4
    74d8:	f7ff fdea 	bl	70b0 <z_sched_start>
}
    74dc:	4620      	mov	r0, r4
    74de:	b007      	add	sp, #28
    74e0:	bdf0      	pop	{r4, r5, r6, r7, pc}
	z_add_timeout(&thread->base.timeout, z_thread_timeout, ticks);
    74e2:	4904      	ldr	r1, [pc, #16]	; (74f4 <z_impl_k_thread_create+0x54>)
    74e4:	4632      	mov	r2, r6
    74e6:	463b      	mov	r3, r7
    74e8:	f104 0018 	add.w	r0, r4, #24
    74ec:	f000 fa2a 	bl	7944 <z_add_timeout>
    74f0:	e7f4      	b.n	74dc <z_impl_k_thread_create+0x3c>
    74f2:	bf00      	nop
    74f4:	00008ec5 	.word	0x00008ec5

000074f8 <z_init_static_threads>:
{
    74f8:	e92d 47f0 	stmdb	sp!, {r4, r5, r6, r7, r8, r9, sl, lr}
	_FOREACH_STATIC_THREAD(thread_data) {
    74fc:	4e2a      	ldr	r6, [pc, #168]	; (75a8 <z_init_static_threads+0xb0>)
    74fe:	4d2b      	ldr	r5, [pc, #172]	; (75ac <z_init_static_threads+0xb4>)
{
    7500:	b086      	sub	sp, #24
    7502:	46b0      	mov	r8, r6
	_FOREACH_STATIC_THREAD(thread_data) {
    7504:	42b5      	cmp	r5, r6
    7506:	f105 0430 	add.w	r4, r5, #48	; 0x30
    750a:	d310      	bcc.n	752e <z_init_static_threads+0x36>
	k_sched_lock();
    750c:	f7ff fc0c 	bl	6d28 <k_sched_lock>
	_FOREACH_STATIC_THREAD(thread_data) {
    7510:	4c26      	ldr	r4, [pc, #152]	; (75ac <z_init_static_threads+0xb4>)
    7512:	f8df a09c 	ldr.w	sl, [pc, #156]	; 75b0 <z_init_static_threads+0xb8>
    7516:	f44f 4900 	mov.w	r9, #32768	; 0x8000
    751a:	f240 36e7 	movw	r6, #999	; 0x3e7
    751e:	2700      	movs	r7, #0
    7520:	4544      	cmp	r4, r8
    7522:	d321      	bcc.n	7568 <z_init_static_threads+0x70>
}
    7524:	b006      	add	sp, #24
    7526:	e8bd 47f0 	ldmia.w	sp!, {r4, r5, r6, r7, r8, r9, sl, lr}
	k_sched_unlock();
    752a:	f7ff bced 	b.w	6f08 <k_sched_unlock>
		z_setup_new_thread(
    752e:	f854 3c04 	ldr.w	r3, [r4, #-4]
    7532:	9305      	str	r3, [sp, #20]
    7534:	f854 3c10 	ldr.w	r3, [r4, #-16]
    7538:	9304      	str	r3, [sp, #16]
    753a:	f854 3c14 	ldr.w	r3, [r4, #-20]
    753e:	9303      	str	r3, [sp, #12]
    7540:	f854 3c18 	ldr.w	r3, [r4, #-24]
    7544:	9302      	str	r3, [sp, #8]
    7546:	f854 3c1c 	ldr.w	r3, [r4, #-28]
    754a:	9301      	str	r3, [sp, #4]
    754c:	f854 3c20 	ldr.w	r3, [r4, #-32]
    7550:	9300      	str	r3, [sp, #0]
    7552:	e954 230a 	ldrd	r2, r3, [r4, #-40]	; 0x28
    7556:	e954 010c 	ldrd	r0, r1, [r4, #-48]	; 0x30
    755a:	f7ff ff71 	bl	7440 <z_setup_new_thread>
		thread_data->init_thread->init_data = thread_data;
    755e:	f854 3c30 	ldr.w	r3, [r4, #-48]
    7562:	655d      	str	r5, [r3, #84]	; 0x54
    7564:	4625      	mov	r5, r4
    7566:	e7cd      	b.n	7504 <z_init_static_threads+0xc>
		if (thread_data->init_delay != K_TICKS_FOREVER) {
    7568:	6a63      	ldr	r3, [r4, #36]	; 0x24
    756a:	1c5a      	adds	r2, r3, #1
    756c:	d00d      	beq.n	758a <z_init_static_threads+0x92>
					    K_MSEC(thread_data->init_delay));
    756e:	ea23 73e3 	bic.w	r3, r3, r3, asr #31
    7572:	4630      	mov	r0, r6
    7574:	4639      	mov	r1, r7
    7576:	fbc9 0103 	smlal	r0, r1, r9, r3
	if (K_TIMEOUT_EQ(delay, K_NO_WAIT)) {
    757a:	42b9      	cmp	r1, r7
    757c:	bf08      	it	eq
    757e:	42b0      	cmpeq	r0, r6
			schedule_new_thread(thread_data->init_thread,
    7580:	6825      	ldr	r5, [r4, #0]
	if (K_TIMEOUT_EQ(delay, K_NO_WAIT)) {
    7582:	d104      	bne.n	758e <z_init_static_threads+0x96>
	z_sched_start(thread);
    7584:	4628      	mov	r0, r5
    7586:	f7ff fd93 	bl	70b0 <z_sched_start>
	_FOREACH_STATIC_THREAD(thread_data) {
    758a:	3430      	adds	r4, #48	; 0x30
    758c:	e7c8      	b.n	7520 <z_init_static_threads+0x28>
    758e:	f44f 727a 	mov.w	r2, #1000	; 0x3e8
    7592:	2300      	movs	r3, #0
    7594:	f7f9 fa52 	bl	a3c <__aeabi_uldivmod>
    7598:	4602      	mov	r2, r0
    759a:	460b      	mov	r3, r1
    759c:	f105 0018 	add.w	r0, r5, #24
    75a0:	4651      	mov	r1, sl
    75a2:	f000 f9cf 	bl	7944 <z_add_timeout>
    75a6:	e7f0      	b.n	758a <z_init_static_threads+0x92>
    75a8:	2000014c 	.word	0x2000014c
    75ac:	2000014c 	.word	0x2000014c
    75b0:	00008ec5 	.word	0x00008ec5

000075b4 <submit_to_queue_locked>:
 * @retval -EINVAL if no queue is provided
 * @retval -ENODEV if the queue is not started
 */
static int submit_to_queue_locked(struct k_work *work,
				  struct k_work_q **queuep)
{
    75b4:	b5f8      	push	{r3, r4, r5, r6, r7, lr}
	int ret = 0;

	if (flag_test(&work->flags, K_WORK_CANCELING_BIT)) {
    75b6:	68c3      	ldr	r3, [r0, #12]
    75b8:	079a      	lsls	r2, r3, #30
{
    75ba:	4604      	mov	r4, r0
    75bc:	460e      	mov	r6, r1
	if (flag_test(&work->flags, K_WORK_CANCELING_BIT)) {
    75be:	f3c3 0540 	ubfx	r5, r3, #1, #1
    75c2:	d41f      	bmi.n	7604 <submit_to_queue_locked+0x50>
		/* Disallowed */
		ret = -EBUSY;
	} else if (!flag_test(&work->flags, K_WORK_QUEUED_BIT)) {
    75c4:	075f      	lsls	r7, r3, #29
    75c6:	d41f      	bmi.n	7608 <submit_to_queue_locked+0x54>
		/* Not currently queued */
		ret = 1;

		/* If no queue specified resubmit to last queue.
		 */
		if (*queuep == NULL) {
    75c8:	680a      	ldr	r2, [r1, #0]
    75ca:	b90a      	cbnz	r2, 75d0 <submit_to_queue_locked+0x1c>
			*queuep = work->queue;
    75cc:	6882      	ldr	r2, [r0, #8]
    75ce:	600a      	str	r2, [r1, #0]

		/* If the work is currently running we have to use the
		 * queue it's running on to prevent handler
		 * re-entrancy.
		 */
		if (flag_test(&work->flags, K_WORK_RUNNING_BIT)) {
    75d0:	07d8      	lsls	r0, r3, #31
			__ASSERT_NO_MSG(work->queue != NULL);
			*queuep = work->queue;
    75d2:	bf44      	itt	mi
    75d4:	68a3      	ldrmi	r3, [r4, #8]
    75d6:	6033      	strmi	r3, [r6, #0]
			ret = 2;
		}

		int rc = queue_submit_locked(*queuep, work);
    75d8:	6837      	ldr	r7, [r6, #0]
			ret = 2;
    75da:	bf4c      	ite	mi
    75dc:	2502      	movmi	r5, #2
		ret = 1;
    75de:	2501      	movpl	r5, #1
	if (queue == NULL) {
    75e0:	b37f      	cbz	r7, 7642 <submit_to_queue_locked+0x8e>
	bool chained = (_current == &queue->thread) && !k_is_in_isr();
    75e2:	4b1b      	ldr	r3, [pc, #108]	; (7650 <submit_to_queue_locked+0x9c>)
    75e4:	689b      	ldr	r3, [r3, #8]
    75e6:	42bb      	cmp	r3, r7
    75e8:	d111      	bne.n	760e <submit_to_queue_locked+0x5a>
    75ea:	f001 fce3 	bl	8fb4 <k_is_in_isr>
    75ee:	f080 0001 	eor.w	r0, r0, #1
    75f2:	b2c0      	uxtb	r0, r0
	bool draining = flag_test(&queue->flags, K_WORK_QUEUE_DRAIN_BIT);
    75f4:	f8d7 3098 	ldr.w	r3, [r7, #152]	; 0x98
	if (!flag_test(&queue->flags, K_WORK_QUEUE_STARTED_BIT)) {
    75f8:	07d9      	lsls	r1, r3, #31
	return (*flagp & BIT(bit)) != 0U;
    75fa:	f3c3 0280 	ubfx	r2, r3, #2, #1
	if (!flag_test(&queue->flags, K_WORK_QUEUE_STARTED_BIT)) {
    75fe:	d523      	bpl.n	7648 <submit_to_queue_locked+0x94>
	} else if (draining && !chained) {
    7600:	b13a      	cbz	r2, 7612 <submit_to_queue_locked+0x5e>
    7602:	b940      	cbnz	r0, 7616 <submit_to_queue_locked+0x62>
		ret = -EBUSY;
    7604:	f06f 050f 	mvn.w	r5, #15
	} else {
		/* Already queued, do nothing. */
	}

	if (ret <= 0) {
		*queuep = NULL;
    7608:	2300      	movs	r3, #0
    760a:	6033      	str	r3, [r6, #0]
	}

	return ret;
    760c:	e013      	b.n	7636 <submit_to_queue_locked+0x82>
	bool chained = (_current == &queue->thread) && !k_is_in_isr();
    760e:	2000      	movs	r0, #0
    7610:	e7f0      	b.n	75f4 <submit_to_queue_locked+0x40>
	} else if (plugged && !draining) {
    7612:	071b      	lsls	r3, r3, #28
    7614:	d4f6      	bmi.n	7604 <submit_to_queue_locked+0x50>
	parent->next = child;
    7616:	2300      	movs	r3, #0
    7618:	6023      	str	r3, [r4, #0]
Z_GENLIST_APPEND(slist, snode)
    761a:	f8d7 3084 	ldr.w	r3, [r7, #132]	; 0x84
    761e:	b963      	cbnz	r3, 763a <submit_to_queue_locked+0x86>
	list->head = node;
    7620:	e9c7 4420 	strd	r4, r4, [r7, #128]	; 0x80
		(void)notify_queue_locked(queue);
    7624:	4638      	mov	r0, r7
    7626:	f001 fcd6 	bl	8fd6 <notify_queue_locked>
	*flagp |= BIT(bit);
    762a:	68e3      	ldr	r3, [r4, #12]
    762c:	f043 0304 	orr.w	r3, r3, #4
    7630:	60e3      	str	r3, [r4, #12]
			work->queue = *queuep;
    7632:	6833      	ldr	r3, [r6, #0]
    7634:	60a3      	str	r3, [r4, #8]
}
    7636:	4628      	mov	r0, r5
    7638:	bdf8      	pop	{r3, r4, r5, r6, r7, pc}
	parent->next = child;
    763a:	601c      	str	r4, [r3, #0]
	list->tail = node;
    763c:	f8c7 4084 	str.w	r4, [r7, #132]	; 0x84
}
    7640:	e7f0      	b.n	7624 <submit_to_queue_locked+0x70>
		return -EINVAL;
    7642:	f06f 0515 	mvn.w	r5, #21
    7646:	e7df      	b.n	7608 <submit_to_queue_locked+0x54>
		ret = -ENODEV;
    7648:	f06f 0512 	mvn.w	r5, #18
    764c:	e7dc      	b.n	7608 <submit_to_queue_locked+0x54>
    764e:	bf00      	nop
    7650:	2000092c 	.word	0x2000092c

00007654 <finalize_cancel_locked>:
	*flagp &= ~BIT(bit);
    7654:	68c3      	ldr	r3, [r0, #12]
{
    7656:	e92d 41f0 	stmdb	sp!, {r4, r5, r6, r7, r8, lr}
	SYS_SLIST_FOR_EACH_CONTAINER_SAFE(&pending_cancels, wc, tmp, node) {
    765a:	4c17      	ldr	r4, [pc, #92]	; (76b8 <finalize_cancel_locked+0x64>)
	*flagp &= ~BIT(bit);
    765c:	f023 0302 	bic.w	r3, r3, #2
{
    7660:	4607      	mov	r7, r0
	*flagp &= ~BIT(bit);
    7662:	60c3      	str	r3, [r0, #12]
	SYS_SLIST_FOR_EACH_CONTAINER_SAFE(&pending_cancels, wc, tmp, node) {
    7664:	6820      	ldr	r0, [r4, #0]
    7666:	b320      	cbz	r0, 76b2 <finalize_cancel_locked+0x5e>
	return node->next;
    7668:	6805      	ldr	r5, [r0, #0]
Z_GENLIST_PEEK_NEXT_NO_CHECK(slist, snode)
    766a:	2600      	movs	r6, #0
    766c:	2d00      	cmp	r5, #0
    766e:	bf38      	it	cc
    7670:	2500      	movcc	r5, #0
	parent->next = child;
    7672:	46b0      	mov	r8, r6
		if (wc->work == work) {
    7674:	6842      	ldr	r2, [r0, #4]
    7676:	42ba      	cmp	r2, r7
    7678:	4603      	mov	r3, r0
    767a:	d10b      	bne.n	7694 <finalize_cancel_locked+0x40>
 */
static inline void sys_slist_remove(sys_slist_t *list,
				    sys_snode_t *prev_node,
				    sys_snode_t *node);

Z_GENLIST_REMOVE(slist, snode)
    767c:	6803      	ldr	r3, [r0, #0]
    767e:	b996      	cbnz	r6, 76a6 <finalize_cancel_locked+0x52>
    7680:	6862      	ldr	r2, [r4, #4]
	list->head = node;
    7682:	6023      	str	r3, [r4, #0]
Z_GENLIST_REMOVE(slist, snode)
    7684:	4290      	cmp	r0, r2
    7686:	d100      	bne.n	768a <finalize_cancel_locked+0x36>
	list->tail = node;
    7688:	6063      	str	r3, [r4, #4]
	parent->next = child;
    768a:	f840 8b08 	str.w	r8, [r0], #8
	z_impl_k_sem_give(sem);
    768e:	f7ff fe73 	bl	7378 <z_impl_k_sem_give>
}
    7692:	4633      	mov	r3, r6
	SYS_SLIST_FOR_EACH_CONTAINER_SAFE(&pending_cancels, wc, tmp, node) {
    7694:	b16d      	cbz	r5, 76b2 <finalize_cancel_locked+0x5e>
	return node->next;
    7696:	682a      	ldr	r2, [r5, #0]
    7698:	2a00      	cmp	r2, #0
    769a:	bf38      	it	cc
    769c:	2200      	movcc	r2, #0
Z_GENLIST_PEEK_NEXT_NO_CHECK(slist, snode)
    769e:	4628      	mov	r0, r5
    76a0:	461e      	mov	r6, r3
    76a2:	4615      	mov	r5, r2
    76a4:	e7e6      	b.n	7674 <finalize_cancel_locked+0x20>
	parent->next = child;
    76a6:	6033      	str	r3, [r6, #0]
Z_GENLIST_REMOVE(slist, snode)
    76a8:	6863      	ldr	r3, [r4, #4]
    76aa:	4298      	cmp	r0, r3
	list->tail = node;
    76ac:	bf08      	it	eq
    76ae:	6066      	streq	r6, [r4, #4]
}
    76b0:	e7eb      	b.n	768a <finalize_cancel_locked+0x36>
}
    76b2:	e8bd 81f0 	ldmia.w	sp!, {r4, r5, r6, r7, r8, pc}
    76b6:	bf00      	nop
    76b8:	20000968 	.word	0x20000968

000076bc <work_queue_main>:
/* Loop executed by a work queue thread.
 *
 * @param workq_ptr pointer to the work queue structure
 */
static void work_queue_main(void *workq_ptr, void *p2, void *p3)
{
    76bc:	e92d 4ff0 	stmdb	sp!, {r4, r5, r6, r7, r8, r9, sl, fp, lr}
			 * the lock, and we didn't find work nor got asked to
			 * stop.  Just go to sleep: when something happens the
			 * work thread will be woken and we can check again.
			 */

			(void)z_sched_wait(&lock, key, &queue->notifyq,
    76c0:	f8df 9120 	ldr.w	r9, [pc, #288]	; 77e4 <work_queue_main+0x128>
{
    76c4:	b087      	sub	sp, #28
    76c6:	4604      	mov	r4, r0
					   K_FOREVER, NULL);
    76c8:	f04f 36ff 	mov.w	r6, #4294967295	; 0xffffffff
    76cc:	f04f 37ff 	mov.w	r7, #4294967295	; 0xffffffff
			(void)z_sched_wait(&lock, key, &queue->notifyq,
    76d0:	f100 0888 	add.w	r8, r0, #136	; 0x88
	__asm__ volatile(
    76d4:	f04f 0320 	mov.w	r3, #32
    76d8:	f3ef 8a11 	mrs	sl, BASEPRI
    76dc:	f383 8811 	msr	BASEPRI, r3
    76e0:	f3bf 8f6f 	isb	sy
Z_GENLIST_IS_EMPTY(slist)
    76e4:	f8d4 5080 	ldr.w	r5, [r4, #128]	; 0x80
	return list->head;
    76e8:	f8d4 3098 	ldr.w	r3, [r4, #152]	; 0x98
Z_GENLIST_GET(slist, snode)
    76ec:	b9c5      	cbnz	r5, 7720 <work_queue_main+0x64>
	*flagp &= ~BIT(bit);
    76ee:	f023 0204 	bic.w	r2, r3, #4
		} else if (flag_test_and_clear(&queue->flags,
    76f2:	0759      	lsls	r1, r3, #29
	*flagp &= ~BIT(bit);
    76f4:	f8c4 2098 	str.w	r2, [r4, #152]	; 0x98
		} else if (flag_test_and_clear(&queue->flags,
    76f8:	d508      	bpl.n	770c <work_queue_main+0x50>
			(void)z_sched_wake_all(&queue->drainq, 1, NULL);
    76fa:	f104 0590 	add.w	r5, r4, #144	; 0x90
static inline bool z_sched_wake_all(_wait_q_t *wait_q, int swap_retval,
				    void *swap_data)
{
	bool woken = false;

	while (z_sched_wake(wait_q, swap_retval, swap_data)) {
    76fe:	2200      	movs	r2, #0
    7700:	2101      	movs	r1, #1
    7702:	4628      	mov	r0, r5
    7704:	f001 fc2d 	bl	8f62 <z_sched_wake>
    7708:	2800      	cmp	r0, #0
    770a:	d1f8      	bne.n	76fe <work_queue_main+0x42>
			(void)z_sched_wait(&lock, key, &queue->notifyq,
    770c:	2300      	movs	r3, #0
    770e:	e9cd 6700 	strd	r6, r7, [sp]
    7712:	9302      	str	r3, [sp, #8]
    7714:	4642      	mov	r2, r8
    7716:	4651      	mov	r1, sl
    7718:	4648      	mov	r0, r9
    771a:	f7ff fe1b 	bl	7354 <z_sched_wait>
			continue;
    771e:	e7d9      	b.n	76d4 <work_queue_main+0x18>
Z_GENLIST_GET_NOT_EMPTY(slist, snode)
    7720:	f8d4 2084 	ldr.w	r2, [r4, #132]	; 0x84
    7724:	6829      	ldr	r1, [r5, #0]
	list->head = node;
    7726:	f8c4 1080 	str.w	r1, [r4, #128]	; 0x80
Z_GENLIST_GET_NOT_EMPTY(slist, snode)
    772a:	4295      	cmp	r5, r2
    772c:	d101      	bne.n	7732 <work_queue_main+0x76>
	list->tail = node;
    772e:	f8c4 1084 	str.w	r1, [r4, #132]	; 0x84
	*flagp |= BIT(bit);
    7732:	f043 0302 	orr.w	r3, r3, #2
    7736:	f8c4 3098 	str.w	r3, [r4, #152]	; 0x98
	__asm__ volatile(
    773a:	f38a 8811 	msr	BASEPRI, sl
    773e:	f3bf 8f6f 	isb	sy

		k_spin_unlock(&lock, key);

		if (work != NULL) {
			bool yield;
			k_work_handler_t handler = work->handler;
    7742:	f8d5 a004 	ldr.w	sl, [r5, #4]
	__asm__ volatile(
    7746:	f04f 0320 	mov.w	r3, #32
    774a:	f3ef 8b11 	mrs	fp, BASEPRI
    774e:	f383 8811 	msr	BASEPRI, r3
    7752:	f3bf 8f6f 	isb	sy
	*flagp &= ~BIT(bit);
    7756:	68eb      	ldr	r3, [r5, #12]
    7758:	f023 0304 	bic.w	r3, r3, #4
	return (*flagp & BIT(bit)) != 0U;
    775c:	f3c3 0140 	ubfx	r1, r3, #1, #1
	*flagp &= ~BIT(bit);
    7760:	60eb      	str	r3, [r5, #12]
	if (ret) {
    7762:	f081 0201 	eor.w	r2, r1, #1
    7766:	b129      	cbz	r1, 7774 <work_queue_main+0xb8>
		finalize_cancel_locked(work);
    7768:	4628      	mov	r0, r5
    776a:	9205      	str	r2, [sp, #20]
    776c:	f7ff ff72 	bl	7654 <finalize_cancel_locked>
    7770:	9a05      	ldr	r2, [sp, #20]
    7772:	e002      	b.n	777a <work_queue_main+0xbe>
	*flagp |= BIT(bit);
    7774:	f043 0301 	orr.w	r3, r3, #1
    7778:	60eb      	str	r3, [r5, #12]
	__asm__ volatile(
    777a:	f38b 8811 	msr	BASEPRI, fp
    777e:	f3bf 8f6f 	isb	sy

			__ASSERT_NO_MSG(handler != 0);

			if (work_set_running(work, queue)) {
    7782:	b9b2      	cbnz	r2, 77b2 <work_queue_main+0xf6>
	__asm__ volatile(
    7784:	f04f 0320 	mov.w	r3, #32
    7788:	f3ef 8211 	mrs	r2, BASEPRI
    778c:	f383 8811 	msr	BASEPRI, r3
    7790:	f3bf 8f6f 	isb	sy
	*flagp &= ~BIT(bit);
    7794:	f8d4 3098 	ldr.w	r3, [r4, #152]	; 0x98
    7798:	f023 0302 	bic.w	r3, r3, #2
    779c:	f8c4 3098 	str.w	r3, [r4, #152]	; 0x98
	__asm__ volatile(
    77a0:	f382 8811 	msr	BASEPRI, r2
    77a4:	f3bf 8f6f 	isb	sy
			k_spin_unlock(&lock, key);

			/* Optionally yield to prevent the work queue from
			 * starving other threads.
			 */
			if (yield) {
    77a8:	05db      	lsls	r3, r3, #23
    77aa:	d493      	bmi.n	76d4 <work_queue_main+0x18>
	z_impl_k_yield();
    77ac:	f7ff fcf6 	bl	719c <z_impl_k_yield>
}
    77b0:	e790      	b.n	76d4 <work_queue_main+0x18>
				handler(work);
    77b2:	4628      	mov	r0, r5
    77b4:	47d0      	blx	sl
	__asm__ volatile(
    77b6:	f04f 0320 	mov.w	r3, #32
    77ba:	f3ef 8a11 	mrs	sl, BASEPRI
    77be:	f383 8811 	msr	BASEPRI, r3
    77c2:	f3bf 8f6f 	isb	sy
	*flagp &= ~BIT(bit);
    77c6:	68eb      	ldr	r3, [r5, #12]
    77c8:	f023 0301 	bic.w	r3, r3, #1
	if (flag_test(&work->flags, K_WORK_CANCELING_BIT)) {
    77cc:	079a      	lsls	r2, r3, #30
	*flagp &= ~BIT(bit);
    77ce:	60eb      	str	r3, [r5, #12]
	if (flag_test(&work->flags, K_WORK_CANCELING_BIT)) {
    77d0:	d502      	bpl.n	77d8 <work_queue_main+0x11c>
		finalize_cancel_locked(work);
    77d2:	4628      	mov	r0, r5
    77d4:	f7ff ff3e 	bl	7654 <finalize_cancel_locked>
	__asm__ volatile(
    77d8:	f38a 8811 	msr	BASEPRI, sl
    77dc:	f3bf 8f6f 	isb	sy
}
    77e0:	e7d0      	b.n	7784 <work_queue_main+0xc8>
    77e2:	bf00      	nop
    77e4:	20000e9c 	.word	0x20000e9c

000077e8 <k_work_queue_start>:
void k_work_queue_start(struct k_work_q *queue,
			k_thread_stack_t *stack,
			size_t stack_size,
			int prio,
			const struct k_work_queue_config *cfg)
{
    77e8:	b5f0      	push	{r4, r5, r6, r7, lr}
    77ea:	b089      	sub	sp, #36	; 0x24
    77ec:	4604      	mov	r4, r0
	list->head = NULL;
    77ee:	2000      	movs	r0, #0
	list->tail = NULL;
    77f0:	e9c4 0020 	strd	r0, r0, [r4, #128]	; 0x80
    77f4:	9d0e      	ldr	r5, [sp, #56]	; 0x38
    77f6:	f104 0088 	add.w	r0, r4, #136	; 0x88
	list->tail = (sys_dnode_t *)list;
    77fa:	e9c4 0022 	strd	r0, r0, [r4, #136]	; 0x88
    77fe:	f104 0090 	add.w	r0, r4, #144	; 0x90
    7802:	e9c4 0024 	strd	r0, r0, [r4, #144]	; 0x90

	sys_slist_init(&queue->pending);
	z_waitq_init(&queue->notifyq);
	z_waitq_init(&queue->drainq);

	if ((cfg != NULL) && cfg->no_yield) {
    7806:	b31d      	cbz	r5, 7850 <k_work_queue_start+0x68>
    7808:	7928      	ldrb	r0, [r5, #4]
		flags |= K_WORK_QUEUE_NO_YIELD;
    780a:	2800      	cmp	r0, #0
    780c:	f240 1001 	movw	r0, #257	; 0x101
    7810:	bf08      	it	eq
    7812:	2001      	moveq	r0, #1
	*flagp = flags;
    7814:	f8c4 0098 	str.w	r0, [r4, #152]	; 0x98
	return z_impl_k_thread_create(new_thread, stack, stack_size, entry, p1, p2, p3, prio, options, delay);
    7818:	2000      	movs	r0, #0
    781a:	f04f 36ff 	mov.w	r6, #4294967295	; 0xffffffff
    781e:	f04f 37ff 	mov.w	r7, #4294967295	; 0xffffffff
    7822:	e9cd 3003 	strd	r3, r0, [sp, #12]
    7826:	e9cd 0001 	strd	r0, r0, [sp, #4]
    782a:	e9cd 6706 	strd	r6, r7, [sp, #24]
    782e:	4b09      	ldr	r3, [pc, #36]	; (7854 <k_work_queue_start+0x6c>)
    7830:	9400      	str	r4, [sp, #0]
    7832:	4620      	mov	r0, r4
    7834:	f7ff fe34 	bl	74a0 <z_impl_k_thread_create>

	(void)k_thread_create(&queue->thread, stack, stack_size,
			      work_queue_main, queue, NULL, NULL,
			      prio, 0, K_FOREVER);

	if ((cfg != NULL) && (cfg->name != NULL)) {
    7838:	b125      	cbz	r5, 7844 <k_work_queue_start+0x5c>
    783a:	6829      	ldr	r1, [r5, #0]
    783c:	b111      	cbz	r1, 7844 <k_work_queue_start+0x5c>
	return z_impl_k_thread_name_set(thread, str);
    783e:	4620      	mov	r0, r4
    7840:	f001 fbc2 	bl	8fc8 <z_impl_k_thread_name_set>
	z_impl_k_thread_start(thread);
    7844:	4620      	mov	r0, r4
		k_thread_name_set(&queue->thread, cfg->name);
	}

	k_thread_start(&queue->thread);
}
    7846:	b009      	add	sp, #36	; 0x24
    7848:	e8bd 40f0 	ldmia.w	sp!, {r4, r5, r6, r7, lr}
    784c:	f001 bbc1 	b.w	8fd2 <z_impl_k_thread_start>
	uint32_t flags = K_WORK_QUEUE_STARTED;
    7850:	2001      	movs	r0, #1
    7852:	e7df      	b.n	7814 <k_work_queue_start+0x2c>
    7854:	000076bd 	.word	0x000076bd

00007858 <boot_banner>:
#if defined(CONFIG_BOOT_BANNER)
#ifdef BUILD_VERSION
	printk("*** Booting Zephyr OS build %s %s ***\n",
	       STRINGIFY(BUILD_VERSION), BOOT_DELAY_BANNER);
#else
	printk("*** Booting Zephyr OS version %s %s ***\n",
    7858:	4a02      	ldr	r2, [pc, #8]	; (7864 <boot_banner+0xc>)
    785a:	4903      	ldr	r1, [pc, #12]	; (7868 <boot_banner+0x10>)
    785c:	4803      	ldr	r0, [pc, #12]	; (786c <boot_banner+0x14>)
    785e:	f000 bad8 	b.w	7e12 <printk>
    7862:	bf00      	nop
    7864:	00009800 	.word	0x00009800
    7868:	0000a08a 	.word	0x0000a08a
    786c:	0000a091 	.word	0x0000a091

00007870 <z_data_copy>:
 * This routine copies the data section from ROM to RAM.
 *
 * @return N/A
 */
void z_data_copy(void)
{
    7870:	b508      	push	{r3, lr}
__ssp_bos_icheck3_restrict(memcpy, void *, const void *)
    7872:	4806      	ldr	r0, [pc, #24]	; (788c <z_data_copy+0x1c>)
    7874:	4a06      	ldr	r2, [pc, #24]	; (7890 <z_data_copy+0x20>)
    7876:	4907      	ldr	r1, [pc, #28]	; (7894 <z_data_copy+0x24>)
    7878:	1a12      	subs	r2, r2, r0
    787a:	f001 fc49 	bl	9110 <memcpy>
#else
	(void)memcpy(&_app_smem_start, &_app_smem_rom_start,
		 _app_smem_end - _app_smem_start);
#endif /* CONFIG_STACK_CANARIES */
#endif /* CONFIG_USERSPACE */
}
    787e:	e8bd 4008 	ldmia.w	sp!, {r3, lr}
    7882:	4a05      	ldr	r2, [pc, #20]	; (7898 <z_data_copy+0x28>)
    7884:	4905      	ldr	r1, [pc, #20]	; (789c <z_data_copy+0x2c>)
    7886:	4806      	ldr	r0, [pc, #24]	; (78a0 <z_data_copy+0x30>)
    7888:	f001 bc42 	b.w	9110 <memcpy>
    788c:	20000000 	.word	0x20000000
    7890:	200001ac 	.word	0x200001ac
    7894:	0000a1bc 	.word	0x0000a1bc
    7898:	00000000 	.word	0x00000000
    789c:	0000a1bc 	.word	0x0000a1bc
    78a0:	20000000 	.word	0x20000000

000078a4 <elapsed>:
	sys_dlist_remove(&t->node);
}

static int32_t elapsed(void)
{
	return announce_remaining == 0 ? sys_clock_elapsed() : 0U;
    78a4:	4b03      	ldr	r3, [pc, #12]	; (78b4 <elapsed+0x10>)
    78a6:	681b      	ldr	r3, [r3, #0]
    78a8:	b90b      	cbnz	r3, 78ae <elapsed+0xa>
    78aa:	f7fb bee9 	b.w	3680 <sys_clock_elapsed>
}
    78ae:	2000      	movs	r0, #0
    78b0:	4770      	bx	lr
    78b2:	bf00      	nop
    78b4:	20000970 	.word	0x20000970

000078b8 <remove_timeout>:
{
    78b8:	b530      	push	{r4, r5, lr}
    78ba:	6803      	ldr	r3, [r0, #0]
	return (node != NULL) ? sys_dlist_peek_next_no_check(list, node) : NULL;
    78bc:	b168      	cbz	r0, 78da <remove_timeout+0x22>
    78be:	4a0a      	ldr	r2, [pc, #40]	; (78e8 <remove_timeout+0x30>)
	return (node == list->tail) ? NULL : node->next;
    78c0:	6852      	ldr	r2, [r2, #4]
    78c2:	4290      	cmp	r0, r2
    78c4:	d009      	beq.n	78da <remove_timeout+0x22>
	if (next(t) != NULL) {
    78c6:	b143      	cbz	r3, 78da <remove_timeout+0x22>
		next(t)->dticks += t->dticks;
    78c8:	e9d3 2104 	ldrd	r2, r1, [r3, #16]
    78cc:	e9d0 4504 	ldrd	r4, r5, [r0, #16]
    78d0:	1912      	adds	r2, r2, r4
    78d2:	eb45 0101 	adc.w	r1, r5, r1
    78d6:	e9c3 2104 	strd	r2, r1, [r3, #16]
 * @return N/A
 */

static inline void sys_dlist_remove(sys_dnode_t *node)
{
	sys_dnode_t *const prev = node->prev;
    78da:	6842      	ldr	r2, [r0, #4]
	sys_dnode_t *const next = node->next;

	prev->next = next;
    78dc:	6013      	str	r3, [r2, #0]
	next->prev = prev;
    78de:	605a      	str	r2, [r3, #4]
	node->next = NULL;
    78e0:	2300      	movs	r3, #0
	node->prev = NULL;
    78e2:	e9c0 3300 	strd	r3, r3, [r0]
}
    78e6:	bd30      	pop	{r4, r5, pc}
    78e8:	2000009c 	.word	0x2000009c

000078ec <next_timeout>:

static int32_t next_timeout(void)
{
    78ec:	b538      	push	{r3, r4, r5, lr}
	return list->head == list;
    78ee:	4b13      	ldr	r3, [pc, #76]	; (793c <next_timeout+0x50>)
    78f0:	681c      	ldr	r4, [r3, #0]
	return sys_dlist_is_empty(list) ? NULL : list->head;
    78f2:	429c      	cmp	r4, r3
    78f4:	bf08      	it	eq
    78f6:	2400      	moveq	r4, #0
	struct _timeout *to = first();
	int32_t ticks_elapsed = elapsed();
    78f8:	f7ff ffd4 	bl	78a4 <elapsed>
    78fc:	4605      	mov	r5, r0
	int32_t ret = to == NULL ? MAX_WAIT
    78fe:	b1bc      	cbz	r4, 7930 <next_timeout+0x44>
		: CLAMP(to->dticks - ticks_elapsed, 0, MAX_WAIT);
    7900:	e9d4 0104 	ldrd	r0, r1, [r4, #16]
    7904:	1b40      	subs	r0, r0, r5
    7906:	eb61 71e5 	sbc.w	r1, r1, r5, asr #31
	int32_t ret = to == NULL ? MAX_WAIT
    790a:	2801      	cmp	r0, #1
    790c:	f171 0300 	sbcs.w	r3, r1, #0
    7910:	db11      	blt.n	7936 <next_timeout+0x4a>
		: CLAMP(to->dticks - ticks_elapsed, 0, MAX_WAIT);
    7912:	f06f 4200 	mvn.w	r2, #2147483648	; 0x80000000
    7916:	2300      	movs	r3, #0
    7918:	4282      	cmp	r2, r0
    791a:	eb73 0401 	sbcs.w	r4, r3, r1
    791e:	da00      	bge.n	7922 <next_timeout+0x36>
    7920:	4610      	mov	r0, r2

#ifdef CONFIG_TIMESLICING
	if (_current_cpu->slice_ticks && _current_cpu->slice_ticks < ret) {
    7922:	4b07      	ldr	r3, [pc, #28]	; (7940 <next_timeout+0x54>)
    7924:	691b      	ldr	r3, [r3, #16]
    7926:	b113      	cbz	r3, 792e <next_timeout+0x42>
    7928:	4298      	cmp	r0, r3
    792a:	bfa8      	it	ge
    792c:	4618      	movge	r0, r3
		ret = _current_cpu->slice_ticks;
	}
#endif
	return ret;
}
    792e:	bd38      	pop	{r3, r4, r5, pc}
	int32_t ret = to == NULL ? MAX_WAIT
    7930:	f06f 4000 	mvn.w	r0, #2147483648	; 0x80000000
    7934:	e7f5      	b.n	7922 <next_timeout+0x36>
    7936:	2000      	movs	r0, #0
    7938:	e7f3      	b.n	7922 <next_timeout+0x36>
    793a:	bf00      	nop
    793c:	2000009c 	.word	0x2000009c
    7940:	2000092c 	.word	0x2000092c

00007944 <z_add_timeout>:

void z_add_timeout(struct _timeout *to, _timeout_func_t fn,
		   k_timeout_t timeout)
{
    7944:	e92d 4ff0 	stmdb	sp!, {r4, r5, r6, r7, r8, r9, sl, fp, lr}
	if (K_TIMEOUT_EQ(timeout, K_FOREVER)) {
    7948:	f1b3 3fff 	cmp.w	r3, #4294967295	; 0xffffffff
    794c:	bf08      	it	eq
    794e:	f1b2 3fff 	cmpeq.w	r2, #4294967295	; 0xffffffff
{
    7952:	b085      	sub	sp, #20
    7954:	4604      	mov	r4, r0
    7956:	4692      	mov	sl, r2
    7958:	469b      	mov	fp, r3
	if (K_TIMEOUT_EQ(timeout, K_FOREVER)) {
    795a:	d070      	beq.n	7a3e <z_add_timeout+0xfa>

#ifdef CONFIG_KERNEL_COHERENCE
	__ASSERT_NO_MSG(arch_mem_coherent(to));
#endif

	k_ticks_t ticks = timeout.ticks + 1;
    795c:	1c56      	adds	r6, r2, #1

	if (IS_ENABLED(CONFIG_TIMEOUT_64BIT) && Z_TICK_ABS(ticks) >= 0) {
    795e:	f06f 0501 	mvn.w	r5, #1
	k_ticks_t ticks = timeout.ticks + 1;
    7962:	f143 0700 	adc.w	r7, r3, #0
	if (IS_ENABLED(CONFIG_TIMEOUT_64BIT) && Z_TICK_ABS(ticks) >= 0) {
    7966:	f04f 33ff 	mov.w	r3, #4294967295	; 0xffffffff
    796a:	ebb5 0806 	subs.w	r8, r5, r6
    796e:	eb63 0907 	sbc.w	r9, r3, r7
    7972:	f1b8 0f00 	cmp.w	r8, #0
    7976:	f179 0300 	sbcs.w	r3, r9, #0
    797a:	db16      	blt.n	79aa <z_add_timeout+0x66>
		ticks = Z_TICK_ABS(timeout.ticks) - (curr_tick + elapsed());
    797c:	4e36      	ldr	r6, [pc, #216]	; (7a58 <z_add_timeout+0x114>)
    797e:	9103      	str	r1, [sp, #12]
    7980:	f7ff ff90 	bl	78a4 <elapsed>
    7984:	e9d6 2600 	ldrd	r2, r6, [r6]
    7988:	f04f 33ff 	mov.w	r3, #4294967295	; 0xffffffff
    798c:	1aad      	subs	r5, r5, r2
    798e:	eb63 0306 	sbc.w	r3, r3, r6
    7992:	ebb5 020a 	subs.w	r2, r5, sl
    7996:	eb63 030b 	sbc.w	r3, r3, fp
    799a:	9200      	str	r2, [sp, #0]
    799c:	9301      	str	r3, [sp, #4]
    799e:	e9dd 6700 	ldrd	r6, r7, [sp]
    79a2:	9903      	ldr	r1, [sp, #12]
    79a4:	1a36      	subs	r6, r6, r0
    79a6:	eb67 77e0 	sbc.w	r7, r7, r0, asr #31
	}

	__ASSERT(!sys_dnode_is_linked(&to->node), "");
	to->fn = fn;
    79aa:	60a1      	str	r1, [r4, #8]
	__asm__ volatile(
    79ac:	f04f 0320 	mov.w	r3, #32
    79b0:	f3ef 8511 	mrs	r5, BASEPRI
    79b4:	f383 8811 	msr	BASEPRI, r3
    79b8:	f3bf 8f6f 	isb	sy
	ticks = MAX(1, ticks);

	LOCKED(&timeout_lock) {
		struct _timeout *t;

		to->dticks = ticks + elapsed();
    79bc:	f7ff ff72 	bl	78a4 <elapsed>
	ticks = MAX(1, ticks);
    79c0:	2e01      	cmp	r6, #1
	return list->head == list;
    79c2:	4a26      	ldr	r2, [pc, #152]	; (7a5c <z_add_timeout+0x118>)
    79c4:	f177 0300 	sbcs.w	r3, r7, #0
    79c8:	bfb8      	it	lt
    79ca:	2601      	movlt	r6, #1
    79cc:	6813      	ldr	r3, [r2, #0]
    79ce:	bfb8      	it	lt
    79d0:	2700      	movlt	r7, #0
		to->dticks = ticks + elapsed();
    79d2:	1836      	adds	r6, r6, r0
    79d4:	eb47 77e0 	adc.w	r7, r7, r0, asr #31
	return sys_dlist_is_empty(list) ? NULL : list->head;
    79d8:	4293      	cmp	r3, r2
    79da:	e9c4 6704 	strd	r6, r7, [r4, #16]
    79de:	d002      	beq.n	79e6 <z_add_timeout+0xa2>
	return (node != NULL) ? sys_dlist_peek_next_no_check(list, node) : NULL;
    79e0:	f8d2 c004 	ldr.w	ip, [r2, #4]
		for (t = first(); t != NULL; t = next(t)) {
    79e4:	b92b      	cbnz	r3, 79f2 <z_add_timeout+0xae>
	sys_dnode_t *const tail = list->tail;
    79e6:	6853      	ldr	r3, [r2, #4]
	node->prev = tail;
    79e8:	e9c4 2300 	strd	r2, r3, [r4]
	tail->next = node;
    79ec:	601c      	str	r4, [r3, #0]
	list->tail = node;
    79ee:	6054      	str	r4, [r2, #4]
}
    79f0:	e012      	b.n	7a18 <z_add_timeout+0xd4>
			if (t->dticks > to->dticks) {
    79f2:	e9d3 8904 	ldrd	r8, r9, [r3, #16]
    79f6:	e9d4 6704 	ldrd	r6, r7, [r4, #16]
    79fa:	4546      	cmp	r6, r8
    79fc:	eb77 0109 	sbcs.w	r1, r7, r9
    7a00:	da20      	bge.n	7a44 <z_add_timeout+0x100>
				t->dticks -= to->dticks;
    7a02:	ebb8 0006 	subs.w	r0, r8, r6
    7a06:	eb69 0107 	sbc.w	r1, r9, r7
    7a0a:	e9c3 0104 	strd	r0, r1, [r3, #16]
	sys_dnode_t *const prev = successor->prev;
    7a0e:	6859      	ldr	r1, [r3, #4]
	node->next = successor;
    7a10:	e9c4 3100 	strd	r3, r1, [r4]
	prev->next = node;
    7a14:	600c      	str	r4, [r1, #0]
	successor->prev = node;
    7a16:	605c      	str	r4, [r3, #4]
	return list->head == list;
    7a18:	6813      	ldr	r3, [r2, #0]
	return sys_dlist_is_empty(list) ? NULL : list->head;
    7a1a:	4293      	cmp	r3, r2
    7a1c:	d00b      	beq.n	7a36 <z_add_timeout+0xf2>

		if (t == NULL) {
			sys_dlist_append(&timeout_list, &to->node);
		}

		if (to == first()) {
    7a1e:	429c      	cmp	r4, r3
    7a20:	d109      	bne.n	7a36 <z_add_timeout+0xf2>
			 * last announcement, and slice_ticks is based
			 * on that. It means the that time remaining for
			 * the next announcement can be lesser than
			 * slice_ticks.
			 */
			int32_t next_time = next_timeout();
    7a22:	f7ff ff63 	bl	78ec <next_timeout>

			if (next_time == 0 ||
    7a26:	b118      	cbz	r0, 7a30 <z_add_timeout+0xec>
			    _current_cpu->slice_ticks != next_time) {
    7a28:	4b0d      	ldr	r3, [pc, #52]	; (7a60 <z_add_timeout+0x11c>)
			if (next_time == 0 ||
    7a2a:	691b      	ldr	r3, [r3, #16]
    7a2c:	4283      	cmp	r3, r0
    7a2e:	d002      	beq.n	7a36 <z_add_timeout+0xf2>
				sys_clock_set_timeout(next_time, false);
    7a30:	2100      	movs	r1, #0
    7a32:	f7fb fdf3 	bl	361c <sys_clock_set_timeout>
	__asm__ volatile(
    7a36:	f385 8811 	msr	BASEPRI, r5
    7a3a:	f3bf 8f6f 	isb	sy
#else
			sys_clock_set_timeout(next_timeout(), false);
#endif	/* CONFIG_TIMESLICING */
		}
	}
}
    7a3e:	b005      	add	sp, #20
    7a40:	e8bd 8ff0 	ldmia.w	sp!, {r4, r5, r6, r7, r8, r9, sl, fp, pc}
			to->dticks -= t->dticks;
    7a44:	ebb6 0008 	subs.w	r0, r6, r8
    7a48:	eb67 0109 	sbc.w	r1, r7, r9
	return (node == list->tail) ? NULL : node->next;
    7a4c:	4563      	cmp	r3, ip
    7a4e:	e9c4 0104 	strd	r0, r1, [r4, #16]
    7a52:	d0c8      	beq.n	79e6 <z_add_timeout+0xa2>
    7a54:	681b      	ldr	r3, [r3, #0]
    7a56:	e7c5      	b.n	79e4 <z_add_timeout+0xa0>
    7a58:	20000408 	.word	0x20000408
    7a5c:	2000009c 	.word	0x2000009c
    7a60:	2000092c 	.word	0x2000092c

00007a64 <sys_clock_announce>:
		}
	}
}

void sys_clock_announce(int32_t ticks)
{
    7a64:	e92d 4ff7 	stmdb	sp!, {r0, r1, r2, r4, r5, r6, r7, r8, r9, sl, fp, lr}
    7a68:	4606      	mov	r6, r0
#ifdef CONFIG_TIMESLICING
	z_time_slice(ticks);
    7a6a:	f7ff faa7 	bl	6fbc <z_time_slice>
	__asm__ volatile(
    7a6e:	f04f 0320 	mov.w	r3, #32
    7a72:	f3ef 8411 	mrs	r4, BASEPRI
    7a76:	f383 8811 	msr	BASEPRI, r3
    7a7a:	f3bf 8f6f 	isb	sy
#endif

	k_spinlock_key_t key = k_spin_lock(&timeout_lock);

	announce_remaining = ticks;
    7a7e:	4d2c      	ldr	r5, [pc, #176]	; (7b30 <sys_clock_announce+0xcc>)
    7a80:	f8df a0b0 	ldr.w	sl, [pc, #176]	; 7b34 <sys_clock_announce+0xd0>
	return list->head == list;
    7a84:	f8df b0b0 	ldr.w	fp, [pc, #176]	; 7b38 <sys_clock_announce+0xd4>
    7a88:	602e      	str	r6, [r5, #0]

	while (first() != NULL && first()->dticks <= announce_remaining) {
    7a8a:	4651      	mov	r1, sl
    7a8c:	f8d5 c000 	ldr.w	ip, [r5]
    7a90:	f8db 0000 	ldr.w	r0, [fp]
    7a94:	4662      	mov	r2, ip
    7a96:	17d3      	asrs	r3, r2, #31
	return sys_dlist_is_empty(list) ? NULL : list->head;
    7a98:	4558      	cmp	r0, fp
    7a9a:	e9da 8900 	ldrd	r8, r9, [sl]
    7a9e:	e9cd 2300 	strd	r2, r3, [sp]
    7aa2:	d00d      	beq.n	7ac0 <sys_clock_announce+0x5c>
    7aa4:	b160      	cbz	r0, 7ac0 <sys_clock_announce+0x5c>
    7aa6:	e9d0 6704 	ldrd	r6, r7, [r0, #16]
    7aaa:	45b4      	cmp	ip, r6
    7aac:	41bb      	sbcs	r3, r7
    7aae:	da1e      	bge.n	7aee <sys_clock_announce+0x8a>
		t->fn(t);
		key = k_spin_lock(&timeout_lock);
	}

	if (first() != NULL) {
		first()->dticks -= announce_remaining;
    7ab0:	9b00      	ldr	r3, [sp, #0]
    7ab2:	ebb6 0c03 	subs.w	ip, r6, r3
    7ab6:	9b01      	ldr	r3, [sp, #4]
    7ab8:	eb67 0603 	sbc.w	r6, r7, r3
    7abc:	e9c0 c604 	strd	ip, r6, [r0, #16]
	}

	curr_tick += announce_remaining;
    7ac0:	9b00      	ldr	r3, [sp, #0]
    7ac2:	eb13 0208 	adds.w	r2, r3, r8
    7ac6:	9b01      	ldr	r3, [sp, #4]
	announce_remaining = 0;
    7ac8:	f04f 0600 	mov.w	r6, #0
	curr_tick += announce_remaining;
    7acc:	eb43 0309 	adc.w	r3, r3, r9
    7ad0:	e9c1 2300 	strd	r2, r3, [r1]
	announce_remaining = 0;
    7ad4:	602e      	str	r6, [r5, #0]

	sys_clock_set_timeout(next_timeout(), false);
    7ad6:	f7ff ff09 	bl	78ec <next_timeout>
    7ada:	4631      	mov	r1, r6
    7adc:	f7fb fd9e 	bl	361c <sys_clock_set_timeout>
	__asm__ volatile(
    7ae0:	f384 8811 	msr	BASEPRI, r4
    7ae4:	f3bf 8f6f 	isb	sy

	k_spin_unlock(&timeout_lock, key);
}
    7ae8:	b003      	add	sp, #12
    7aea:	e8bd 8ff0 	ldmia.w	sp!, {r4, r5, r6, r7, r8, r9, sl, fp, pc}
		curr_tick += dt;
    7aee:	eb18 0806 	adds.w	r8, r8, r6
		t->dticks = 0;
    7af2:	f04f 0200 	mov.w	r2, #0
    7af6:	f04f 0300 	mov.w	r3, #0
		curr_tick += dt;
    7afa:	eb49 79e6 	adc.w	r9, r9, r6, asr #31
		t->dticks = 0;
    7afe:	e9c0 2304 	strd	r2, r3, [r0, #16]
		announce_remaining -= dt;
    7b02:	ebac 0606 	sub.w	r6, ip, r6
		curr_tick += dt;
    7b06:	e9ca 8900 	strd	r8, r9, [sl]
		announce_remaining -= dt;
    7b0a:	602e      	str	r6, [r5, #0]
		remove_timeout(t);
    7b0c:	f7ff fed4 	bl	78b8 <remove_timeout>
    7b10:	f384 8811 	msr	BASEPRI, r4
    7b14:	f3bf 8f6f 	isb	sy
		t->fn(t);
    7b18:	6883      	ldr	r3, [r0, #8]
    7b1a:	4798      	blx	r3
	__asm__ volatile(
    7b1c:	f04f 0320 	mov.w	r3, #32
    7b20:	f3ef 8411 	mrs	r4, BASEPRI
    7b24:	f383 8811 	msr	BASEPRI, r3
    7b28:	f3bf 8f6f 	isb	sy

	/* Note that we need to use the underlying arch-specific lock
	 * implementation.  The "irq_lock()" API in SMP context is
	 * actually a wrapper for a global spinlock!
	 */
	k.key = arch_irq_lock();
    7b2c:	4901      	ldr	r1, [pc, #4]	; (7b34 <sys_clock_announce+0xd0>)
#endif

#ifdef CONFIG_SPIN_VALIDATE
	z_spin_lock_set_owner(l);
#endif
	return k;
    7b2e:	e7ad      	b.n	7a8c <sys_clock_announce+0x28>
    7b30:	20000970 	.word	0x20000970
    7b34:	20000408 	.word	0x20000408
    7b38:	2000009c 	.word	0x2000009c

00007b3c <sys_clock_tick_get>:

int64_t sys_clock_tick_get(void)
{
    7b3c:	b510      	push	{r4, lr}
    7b3e:	f04f 0320 	mov.w	r3, #32
    7b42:	f3ef 8411 	mrs	r4, BASEPRI
    7b46:	f383 8811 	msr	BASEPRI, r3
    7b4a:	f3bf 8f6f 	isb	sy
	uint64_t t = 0U;

	LOCKED(&timeout_lock) {
		t = curr_tick + sys_clock_elapsed();
    7b4e:	f7fb fd97 	bl	3680 <sys_clock_elapsed>
    7b52:	4b06      	ldr	r3, [pc, #24]	; (7b6c <sys_clock_tick_get+0x30>)
    7b54:	e9d3 2300 	ldrd	r2, r3, [r3]
    7b58:	1812      	adds	r2, r2, r0
    7b5a:	f143 0300 	adc.w	r3, r3, #0
	__asm__ volatile(
    7b5e:	f384 8811 	msr	BASEPRI, r4
    7b62:	f3bf 8f6f 	isb	sy
	}
	return t;
}
    7b66:	4610      	mov	r0, r2
    7b68:	4619      	mov	r1, r3
    7b6a:	bd10      	pop	{r4, pc}
    7b6c:	20000408 	.word	0x20000408

00007b70 <z_timer_expiration_handler>:
 * @param t  Timeout used by the timer.
 *
 * @return N/A
 */
void z_timer_expiration_handler(struct _timeout *t)
{
    7b70:	b5f8      	push	{r3, r4, r5, r6, r7, lr}

	/*
	 * if the timer is periodic, start it again; don't add _TICK_ALIGN
	 * since we're already aligned to a tick boundary
	 */
	if (!K_TIMEOUT_EQ(timer->period, K_NO_WAIT) &&
    7b72:	e9d0 230a 	ldrd	r2, r3, [r0, #40]	; 0x28
    7b76:	1c56      	adds	r6, r2, #1
    7b78:	f143 0700 	adc.w	r7, r3, #0
    7b7c:	2f00      	cmp	r7, #0
    7b7e:	bf08      	it	eq
    7b80:	2e02      	cmpeq	r6, #2
{
    7b82:	4604      	mov	r4, r0
	if (!K_TIMEOUT_EQ(timer->period, K_NO_WAIT) &&
    7b84:	d302      	bcc.n	7b8c <z_timer_expiration_handler+0x1c>
	    !K_TIMEOUT_EQ(timer->period, K_FOREVER)) {
		z_add_timeout(&timer->timeout, z_timer_expiration_handler,
    7b86:	490d      	ldr	r1, [pc, #52]	; (7bbc <z_timer_expiration_handler+0x4c>)
    7b88:	f7ff fedc 	bl	7944 <z_add_timeout>
			     timer->period);
	}

	/* update timer's status */
	timer->status += 1U;
    7b8c:	6b23      	ldr	r3, [r4, #48]	; 0x30
    7b8e:	3301      	adds	r3, #1
    7b90:	6323      	str	r3, [r4, #48]	; 0x30

	/* invoke timer expiry function */
	if (timer->expiry_fn != NULL) {
    7b92:	6a23      	ldr	r3, [r4, #32]
    7b94:	b10b      	cbz	r3, 7b9a <z_timer_expiration_handler+0x2a>
		timer->expiry_fn(timer);
    7b96:	4620      	mov	r0, r4
    7b98:	4798      	blx	r3
	return list->head == list;
    7b9a:	f854 5f18 	ldr.w	r5, [r4, #24]!
	return sys_dlist_is_empty(list) ? NULL : list->head;
    7b9e:	42a5      	cmp	r5, r4
    7ba0:	d00a      	beq.n	7bb8 <z_timer_expiration_handler+0x48>
	}

	thread = z_waitq_head(&timer->wait_q);

	if (thread == NULL) {
    7ba2:	b14d      	cbz	r5, 7bb8 <z_timer_expiration_handler+0x48>
	 * place a thread can be taken off this pend queue, and b) the
	 * only place a thread can be put on the pend queue is at
	 * thread level, which of course cannot interrupt the current
	 * context.
	 */
	z_unpend_thread_no_timeout(thread);
    7ba4:	4628      	mov	r0, r5
    7ba6:	f001 f920 	bl	8dea <z_unpend_thread_no_timeout>
    7baa:	2300      	movs	r3, #0
    7bac:	67ab      	str	r3, [r5, #120]	; 0x78

	arch_thread_return_value_set(thread, 0);

	z_ready_thread(thread);
    7bae:	4628      	mov	r0, r5
}
    7bb0:	e8bd 40f8 	ldmia.w	sp!, {r3, r4, r5, r6, r7, lr}
	z_ready_thread(thread);
    7bb4:	f001 b976 	b.w	8ea4 <z_ready_thread>
}
    7bb8:	bdf8      	pop	{r3, r4, r5, r6, r7, pc}
    7bba:	bf00      	nop
    7bbc:	00007b71 	.word	0x00007b71

00007bc0 <z_impl_k_timer_start>:
}


void z_impl_k_timer_start(struct k_timer *timer, k_timeout_t duration,
			  k_timeout_t period)
{
    7bc0:	e92d 4f73 	stmdb	sp!, {r0, r1, r4, r5, r6, r8, r9, sl, fp, lr}
    7bc4:	4619      	mov	r1, r3
    7bc6:	4606      	mov	r6, r0
	if (K_TIMEOUT_EQ(duration, K_FOREVER)) {
    7bc8:	1c4c      	adds	r4, r1, #1
{
    7bca:	4610      	mov	r0, r2
	if (K_TIMEOUT_EQ(duration, K_FOREVER)) {
    7bcc:	bf08      	it	eq
    7bce:	f1b0 3fff 	cmpeq.w	r0, #4294967295	; 0xffffffff
{
    7bd2:	e9dd 230a 	ldrd	r2, r3, [sp, #40]	; 0x28
    7bd6:	4680      	mov	r8, r0
    7bd8:	4689      	mov	r9, r1
	if (K_TIMEOUT_EQ(duration, K_FOREVER)) {
    7bda:	d04c      	beq.n	7c76 <z_impl_k_timer_start+0xb6>
    7bdc:	461d      	mov	r5, r3
	 * for backwards compatibility.  This is unfortunate
	 * (i.e. k_timer_start() doesn't treat its initial sleep
	 * argument the same way k_sleep() does), but historical.  The
	 * timer_api test relies on this behavior.
	 */
	if (!K_TIMEOUT_EQ(period, K_FOREVER) && period.ticks != 0 &&
    7bde:	1c6b      	adds	r3, r5, #1
    7be0:	bf08      	it	eq
    7be2:	f1b2 3fff 	cmpeq.w	r2, #4294967295	; 0xffffffff
    7be6:	4614      	mov	r4, r2
    7be8:	d019      	beq.n	7c1e <z_impl_k_timer_start+0x5e>
    7bea:	ea54 0305 	orrs.w	r3, r4, r5
    7bee:	d016      	beq.n	7c1e <z_impl_k_timer_start+0x5e>
	    Z_TICK_ABS(period.ticks) < 0) {
    7bf0:	f06f 0301 	mvn.w	r3, #1
    7bf4:	ebb3 0a02 	subs.w	sl, r3, r2
    7bf8:	f04f 33ff 	mov.w	r3, #4294967295	; 0xffffffff
    7bfc:	eb63 0b05 	sbc.w	fp, r3, r5
	if (!K_TIMEOUT_EQ(period, K_FOREVER) && period.ticks != 0 &&
    7c00:	f1ba 0f00 	cmp.w	sl, #0
    7c04:	f17b 0300 	sbcs.w	r3, fp, #0
    7c08:	da09      	bge.n	7c1e <z_impl_k_timer_start+0x5e>
		period.ticks = MAX(period.ticks - 1, 1);
    7c0a:	f112 34ff 	adds.w	r4, r2, #4294967295	; 0xffffffff
    7c0e:	f145 35ff 	adc.w	r5, r5, #4294967295	; 0xffffffff
    7c12:	2c01      	cmp	r4, #1
    7c14:	f175 0300 	sbcs.w	r3, r5, #0
    7c18:	bfbc      	itt	lt
    7c1a:	2401      	movlt	r4, #1
    7c1c:	2500      	movlt	r5, #0
	}
	if (Z_TICK_ABS(duration.ticks) < 0) {
    7c1e:	f06f 0301 	mvn.w	r3, #1
    7c22:	1a1b      	subs	r3, r3, r0
    7c24:	9300      	str	r3, [sp, #0]
    7c26:	f04f 33ff 	mov.w	r3, #4294967295	; 0xffffffff
    7c2a:	eb63 0301 	sbc.w	r3, r3, r1
    7c2e:	9301      	str	r3, [sp, #4]
    7c30:	e9dd 2300 	ldrd	r2, r3, [sp]
    7c34:	2a00      	cmp	r2, #0
    7c36:	f173 0300 	sbcs.w	r3, r3, #0
    7c3a:	da0c      	bge.n	7c56 <z_impl_k_timer_start+0x96>
		duration.ticks = MAX(duration.ticks - 1, 0);
    7c3c:	f110 38ff 	adds.w	r8, r0, #4294967295	; 0xffffffff
    7c40:	f141 39ff 	adc.w	r9, r1, #4294967295	; 0xffffffff
    7c44:	f1b8 0f00 	cmp.w	r8, #0
    7c48:	f179 0300 	sbcs.w	r3, r9, #0
    7c4c:	bfbc      	itt	lt
    7c4e:	f04f 0800 	movlt.w	r8, #0
    7c52:	f04f 0900 	movlt.w	r9, #0
	}

	(void)z_abort_timeout(&timer->timeout);
    7c56:	4630      	mov	r0, r6
    7c58:	f001 f9ea 	bl	9030 <z_abort_timeout>
	timer->period = period;
	timer->status = 0U;
    7c5c:	2300      	movs	r3, #0

	z_add_timeout(&timer->timeout, z_timer_expiration_handler,
    7c5e:	4907      	ldr	r1, [pc, #28]	; (7c7c <z_impl_k_timer_start+0xbc>)
	timer->status = 0U;
    7c60:	6333      	str	r3, [r6, #48]	; 0x30
	z_add_timeout(&timer->timeout, z_timer_expiration_handler,
    7c62:	4642      	mov	r2, r8
    7c64:	464b      	mov	r3, r9
    7c66:	4630      	mov	r0, r6
	timer->period = period;
    7c68:	e9c6 450a 	strd	r4, r5, [r6, #40]	; 0x28
		     duration);
}
    7c6c:	b002      	add	sp, #8
    7c6e:	e8bd 4f70 	ldmia.w	sp!, {r4, r5, r6, r8, r9, sl, fp, lr}
	z_add_timeout(&timer->timeout, z_timer_expiration_handler,
    7c72:	f7ff be67 	b.w	7944 <z_add_timeout>
}
    7c76:	b002      	add	sp, #8
    7c78:	e8bd 8f70 	ldmia.w	sp!, {r4, r5, r6, r8, r9, sl, fp, pc}
    7c7c:	00007b71 	.word	0x00007b71

00007c80 <round>:
    7c80:	b580      	push	{r7, lr}
    7c82:	b08c      	sub	sp, #48	; 0x30
    7c84:	af00      	add	r7, sp, #0
    7c86:	e9c7 0100 	strd	r0, r1, [r7]
    7c8a:	e9d7 2300 	ldrd	r2, r3, [r7]
    7c8e:	e9c7 2304 	strd	r2, r3, [r7, #16]
    7c92:	697b      	ldr	r3, [r7, #20]
    7c94:	62fb      	str	r3, [r7, #44]	; 0x2c
    7c96:	693b      	ldr	r3, [r7, #16]
    7c98:	62bb      	str	r3, [r7, #40]	; 0x28
    7c9a:	6afb      	ldr	r3, [r7, #44]	; 0x2c
    7c9c:	151b      	asrs	r3, r3, #20
    7c9e:	f3c3 030a 	ubfx	r3, r3, #0, #11
    7ca2:	f2a3 33ff 	subw	r3, r3, #1023	; 0x3ff
    7ca6:	627b      	str	r3, [r7, #36]	; 0x24
    7ca8:	6a7b      	ldr	r3, [r7, #36]	; 0x24
    7caa:	2b13      	cmp	r3, #19
    7cac:	dc33      	bgt.n	7d16 <round+0x96>
    7cae:	6a7b      	ldr	r3, [r7, #36]	; 0x24
    7cb0:	2b00      	cmp	r3, #0
    7cb2:	da10      	bge.n	7cd6 <round+0x56>
    7cb4:	6afb      	ldr	r3, [r7, #44]	; 0x2c
    7cb6:	f003 4300 	and.w	r3, r3, #2147483648	; 0x80000000
    7cba:	62fb      	str	r3, [r7, #44]	; 0x2c
    7cbc:	6a7b      	ldr	r3, [r7, #36]	; 0x24
    7cbe:	f1b3 3fff 	cmp.w	r3, #4294967295	; 0xffffffff
    7cc2:	d105      	bne.n	7cd0 <round+0x50>
    7cc4:	6afb      	ldr	r3, [r7, #44]	; 0x2c
    7cc6:	f043 537f 	orr.w	r3, r3, #1069547520	; 0x3fc00000
    7cca:	f443 1340 	orr.w	r3, r3, #3145728	; 0x300000
    7cce:	62fb      	str	r3, [r7, #44]	; 0x2c
    7cd0:	2300      	movs	r3, #0
    7cd2:	62bb      	str	r3, [r7, #40]	; 0x28
    7cd4:	e059      	b.n	7d8a <round+0x10a>
    7cd6:	4a34      	ldr	r2, [pc, #208]	; (7da8 <round+0x128>)
    7cd8:	6a7b      	ldr	r3, [r7, #36]	; 0x24
    7cda:	fa42 f303 	asr.w	r3, r2, r3
    7cde:	61bb      	str	r3, [r7, #24]
    7ce0:	6afa      	ldr	r2, [r7, #44]	; 0x2c
    7ce2:	69bb      	ldr	r3, [r7, #24]
    7ce4:	4013      	ands	r3, r2
    7ce6:	2b00      	cmp	r3, #0
    7ce8:	d105      	bne.n	7cf6 <round+0x76>
    7cea:	6abb      	ldr	r3, [r7, #40]	; 0x28
    7cec:	2b00      	cmp	r3, #0
    7cee:	d102      	bne.n	7cf6 <round+0x76>
    7cf0:	e9d7 2300 	ldrd	r2, r3, [r7]
    7cf4:	e053      	b.n	7d9e <round+0x11e>
    7cf6:	f44f 2200 	mov.w	r2, #524288	; 0x80000
    7cfa:	6a7b      	ldr	r3, [r7, #36]	; 0x24
    7cfc:	fa42 f303 	asr.w	r3, r2, r3
    7d00:	6afa      	ldr	r2, [r7, #44]	; 0x2c
    7d02:	4413      	add	r3, r2
    7d04:	62fb      	str	r3, [r7, #44]	; 0x2c
    7d06:	69bb      	ldr	r3, [r7, #24]
    7d08:	43da      	mvns	r2, r3
    7d0a:	6afb      	ldr	r3, [r7, #44]	; 0x2c
    7d0c:	4013      	ands	r3, r2
    7d0e:	62fb      	str	r3, [r7, #44]	; 0x2c
    7d10:	2300      	movs	r3, #0
    7d12:	62bb      	str	r3, [r7, #40]	; 0x28
    7d14:	e039      	b.n	7d8a <round+0x10a>
    7d16:	6a7b      	ldr	r3, [r7, #36]	; 0x24
    7d18:	2b33      	cmp	r3, #51	; 0x33
    7d1a:	dd0f      	ble.n	7d3c <round+0xbc>
    7d1c:	6a7b      	ldr	r3, [r7, #36]	; 0x24
    7d1e:	f5b3 6f80 	cmp.w	r3, #1024	; 0x400
    7d22:	d108      	bne.n	7d36 <round+0xb6>
    7d24:	e9d7 0100 	ldrd	r0, r1, [r7]
    7d28:	4602      	mov	r2, r0
    7d2a:	460b      	mov	r3, r1
    7d2c:	f7f8 f9ee 	bl	10c <__adddf3>
    7d30:	4602      	mov	r2, r0
    7d32:	460b      	mov	r3, r1
    7d34:	e033      	b.n	7d9e <round+0x11e>
    7d36:	e9d7 2300 	ldrd	r2, r3, [r7]
    7d3a:	e030      	b.n	7d9e <round+0x11e>
    7d3c:	6a7b      	ldr	r3, [r7, #36]	; 0x24
    7d3e:	3b14      	subs	r3, #20
    7d40:	f04f 32ff 	mov.w	r2, #4294967295	; 0xffffffff
    7d44:	fa22 f303 	lsr.w	r3, r2, r3
    7d48:	623b      	str	r3, [r7, #32]
    7d4a:	6aba      	ldr	r2, [r7, #40]	; 0x28
    7d4c:	6a3b      	ldr	r3, [r7, #32]
    7d4e:	4013      	ands	r3, r2
    7d50:	2b00      	cmp	r3, #0
    7d52:	d102      	bne.n	7d5a <round+0xda>
    7d54:	e9d7 2300 	ldrd	r2, r3, [r7]
    7d58:	e021      	b.n	7d9e <round+0x11e>
    7d5a:	6a7b      	ldr	r3, [r7, #36]	; 0x24
    7d5c:	f1c3 0333 	rsb	r3, r3, #51	; 0x33
    7d60:	2201      	movs	r2, #1
    7d62:	fa02 f303 	lsl.w	r3, r2, r3
    7d66:	461a      	mov	r2, r3
    7d68:	6abb      	ldr	r3, [r7, #40]	; 0x28
    7d6a:	4413      	add	r3, r2
    7d6c:	61fb      	str	r3, [r7, #28]
    7d6e:	69fa      	ldr	r2, [r7, #28]
    7d70:	6abb      	ldr	r3, [r7, #40]	; 0x28
    7d72:	429a      	cmp	r2, r3
    7d74:	d202      	bcs.n	7d7c <round+0xfc>
    7d76:	6afb      	ldr	r3, [r7, #44]	; 0x2c
    7d78:	3301      	adds	r3, #1
    7d7a:	62fb      	str	r3, [r7, #44]	; 0x2c
    7d7c:	69fb      	ldr	r3, [r7, #28]
    7d7e:	62bb      	str	r3, [r7, #40]	; 0x28
    7d80:	6a3b      	ldr	r3, [r7, #32]
    7d82:	43db      	mvns	r3, r3
    7d84:	6aba      	ldr	r2, [r7, #40]	; 0x28
    7d86:	4013      	ands	r3, r2
    7d88:	62bb      	str	r3, [r7, #40]	; 0x28
    7d8a:	6afb      	ldr	r3, [r7, #44]	; 0x2c
    7d8c:	60fb      	str	r3, [r7, #12]
    7d8e:	6abb      	ldr	r3, [r7, #40]	; 0x28
    7d90:	60bb      	str	r3, [r7, #8]
    7d92:	e9d7 2302 	ldrd	r2, r3, [r7, #8]
    7d96:	e9c7 2300 	strd	r2, r3, [r7]
    7d9a:	e9d7 2300 	ldrd	r2, r3, [r7]
    7d9e:	4610      	mov	r0, r2
    7da0:	4619      	mov	r1, r3
    7da2:	3730      	adds	r7, #48	; 0x30
    7da4:	46bd      	mov	sp, r7
    7da6:	bd80      	pop	{r7, pc}
    7da8:	000fffff 	.word	0x000fffff

00007dac <sys_notify_validate>:

int sys_notify_validate(struct sys_notify *notify)
{
	int rv = 0;

	if (notify == NULL) {
    7dac:	4603      	mov	r3, r0
    7dae:	b158      	cbz	r0, 7dc8 <sys_notify_validate+0x1c>
	uint32_t method = notify->flags >> SYS_NOTIFY_METHOD_POS;
    7db0:	6842      	ldr	r2, [r0, #4]
	return method & SYS_NOTIFY_METHOD_MASK;
    7db2:	f002 0203 	and.w	r2, r2, #3
		return -EINVAL;
	}

	/* Validate configuration based on mode */
	switch (sys_notify_get_method(notify)) {
    7db6:	2a01      	cmp	r2, #1
    7db8:	d003      	beq.n	7dc2 <sys_notify_validate+0x16>
    7dba:	2a03      	cmp	r2, #3
    7dbc:	d104      	bne.n	7dc8 <sys_notify_validate+0x1c>
	case SYS_NOTIFY_METHOD_SPINWAIT:
		break;
	case SYS_NOTIFY_METHOD_CALLBACK:
		if (notify->method.callback == NULL) {
    7dbe:	6802      	ldr	r2, [r0, #0]
    7dc0:	b112      	cbz	r2, 7dc8 <sys_notify_validate+0x1c>
		break;
	}

	/* Clear the result here instead of in all callers. */
	if (rv == 0) {
		notify->result = 0;
    7dc2:	2000      	movs	r0, #0
    7dc4:	6098      	str	r0, [r3, #8]
    7dc6:	4770      	bx	lr
		return -EINVAL;
    7dc8:	f06f 0015 	mvn.w	r0, #21
	}

	return rv;
}
    7dcc:	4770      	bx	lr

00007dce <sys_notify_finalize>:
	uint32_t method = notify->flags >> SYS_NOTIFY_METHOD_POS;
    7dce:	6842      	ldr	r2, [r0, #4]
	uint32_t method = sys_notify_get_method(notify);

	/* Store the result and capture secondary notification
	 * information.
	 */
	notify->result = res;
    7dd0:	6081      	str	r1, [r0, #8]
	return method & SYS_NOTIFY_METHOD_MASK;
    7dd2:	f002 0203 	and.w	r2, r2, #3
	switch (method) {
    7dd6:	2a03      	cmp	r2, #3
    7dd8:	f04f 0200 	mov.w	r2, #0
{
    7ddc:	4603      	mov	r3, r0
	case SYS_NOTIFY_METHOD_SPINWAIT:
		break;
	case SYS_NOTIFY_METHOD_CALLBACK:
		rv = notify->method.callback;
    7dde:	bf0c      	ite	eq
    7de0:	6800      	ldreq	r0, [r0, #0]
	sys_notify_generic_callback rv = 0;
    7de2:	4610      	movne	r0, r2
	/* Mark completion by clearing the flags field to the
	 * completed state, releasing any spin-waiters, then complete
	 * secondary notification.
	 */
	compiler_barrier();
	notify->flags = SYS_NOTIFY_METHOD_COMPLETED;
    7de4:	605a      	str	r2, [r3, #4]
	if (IS_ENABLED(CONFIG_POLL) && (sig != NULL)) {
		k_poll_signal_raise(sig, res);
	}

	return rv;
}
    7de6:	4770      	bx	lr

00007de8 <arch_printk_char_out>:
}
    7de8:	2000      	movs	r0, #0
    7dea:	4770      	bx	lr

00007dec <str_out>:
{
    7dec:	b530      	push	{r4, r5, lr}
    7dee:	688a      	ldr	r2, [r1, #8]
	if (ctx->str == NULL || ctx->count >= ctx->max) {
    7df0:	680c      	ldr	r4, [r1, #0]
    7df2:	1c55      	adds	r5, r2, #1
    7df4:	b114      	cbz	r4, 7dfc <str_out+0x10>
    7df6:	684b      	ldr	r3, [r1, #4]
    7df8:	4293      	cmp	r3, r2
    7dfa:	dc01      	bgt.n	7e00 <str_out+0x14>
		ctx->count++;
    7dfc:	608d      	str	r5, [r1, #8]
}
    7dfe:	bd30      	pop	{r4, r5, pc}
	if (ctx->count == ctx->max - 1) {
    7e00:	3b01      	subs	r3, #1
    7e02:	4293      	cmp	r3, r2
		ctx->str[ctx->count++] = '\0';
    7e04:	bf08      	it	eq
    7e06:	2200      	moveq	r2, #0
    7e08:	608d      	str	r5, [r1, #8]
    7e0a:	bf0c      	ite	eq
    7e0c:	54e2      	strbeq	r2, [r4, r3]
		ctx->str[ctx->count++] = c;
    7e0e:	54a0      	strbne	r0, [r4, r2]
    7e10:	e7f5      	b.n	7dfe <str_out+0x12>

00007e12 <printk>:
{
    7e12:	b40f      	push	{r0, r1, r2, r3}
    7e14:	b507      	push	{r0, r1, r2, lr}
    7e16:	a904      	add	r1, sp, #16
    7e18:	f851 0b04 	ldr.w	r0, [r1], #4
	va_start(ap, fmt);
    7e1c:	9101      	str	r1, [sp, #4]
		log_printk(fmt, ap);
    7e1e:	f000 f957 	bl	80d0 <log_printk>
}
    7e22:	b003      	add	sp, #12
    7e24:	f85d eb04 	ldr.w	lr, [sp], #4
    7e28:	b004      	add	sp, #16
    7e2a:	4770      	bx	lr

00007e2c <snprintk>:
{
    7e2c:	b40c      	push	{r2, r3}
    7e2e:	b507      	push	{r0, r1, r2, lr}
    7e30:	ab04      	add	r3, sp, #16
    7e32:	f853 2b04 	ldr.w	r2, [r3], #4
	va_start(ap, fmt);
    7e36:	9301      	str	r3, [sp, #4]
	ret = vsnprintk(str, size, fmt, ap);
    7e38:	f7f9 fe74 	bl	1b24 <vsnprintk>
}
    7e3c:	b003      	add	sp, #12
    7e3e:	f85d eb04 	ldr.w	lr, [sp], #4
    7e42:	b002      	add	sp, #8
    7e44:	4770      	bx	lr

00007e46 <process_recheck>:
	uint32_t state = mgr->flags & ONOFF_STATE_MASK;
    7e46:	8b03      	ldrh	r3, [r0, #24]
	if ((state == ONOFF_STATE_OFF)
    7e48:	f013 0307 	ands.w	r3, r3, #7
    7e4c:	d105      	bne.n	7e5a <process_recheck+0x14>
	    && !sys_slist_is_empty(&mgr->clients)) {
    7e4e:	6803      	ldr	r3, [r0, #0]
    7e50:	2b00      	cmp	r3, #0
		evt = EVT_START;
    7e52:	bf0c      	ite	eq
    7e54:	2000      	moveq	r0, #0
    7e56:	2003      	movne	r0, #3
    7e58:	4770      	bx	lr
	} else if ((state == ONOFF_STATE_ON)
    7e5a:	2b02      	cmp	r3, #2
    7e5c:	d105      	bne.n	7e6a <process_recheck+0x24>
		   && (mgr->refs == 0U)) {
    7e5e:	8b43      	ldrh	r3, [r0, #26]
    7e60:	2b00      	cmp	r3, #0
		evt = EVT_STOP;
    7e62:	bf14      	ite	ne
    7e64:	2000      	movne	r0, #0
    7e66:	2004      	moveq	r0, #4
    7e68:	4770      	bx	lr
	} else if ((state == ONOFF_STATE_ERROR)
    7e6a:	2b01      	cmp	r3, #1
    7e6c:	d105      	bne.n	7e7a <process_recheck+0x34>
		   && !sys_slist_is_empty(&mgr->clients)) {
    7e6e:	6803      	ldr	r3, [r0, #0]
    7e70:	2b00      	cmp	r3, #0
		evt = EVT_RESET;
    7e72:	bf0c      	ite	eq
    7e74:	2000      	moveq	r0, #0
    7e76:	2005      	movne	r0, #5
    7e78:	4770      	bx	lr
	int evt = EVT_NOP;
    7e7a:	2000      	movs	r0, #0
}
    7e7c:	4770      	bx	lr

00007e7e <notify_one>:
{
    7e7e:	e92d 41f0 	stmdb	sp!, {r4, r5, r6, r7, r8, lr}
    7e82:	460d      	mov	r5, r1
    7e84:	4607      	mov	r7, r0
		(onoff_client_callback)sys_notify_finalize(&cli->notify, res);
    7e86:	4619      	mov	r1, r3
    7e88:	1d28      	adds	r0, r5, #4
{
    7e8a:	4690      	mov	r8, r2
    7e8c:	461e      	mov	r6, r3
		(onoff_client_callback)sys_notify_finalize(&cli->notify, res);
    7e8e:	f7ff ff9e 	bl	7dce <sys_notify_finalize>
	if (cb) {
    7e92:	4604      	mov	r4, r0
    7e94:	b138      	cbz	r0, 7ea6 <notify_one+0x28>
		cb(mgr, cli, state, res);
    7e96:	4633      	mov	r3, r6
    7e98:	4642      	mov	r2, r8
    7e9a:	4629      	mov	r1, r5
    7e9c:	4638      	mov	r0, r7
    7e9e:	46a4      	mov	ip, r4
}
    7ea0:	e8bd 41f0 	ldmia.w	sp!, {r4, r5, r6, r7, r8, lr}
		cb(mgr, cli, state, res);
    7ea4:	4760      	bx	ip
}
    7ea6:	e8bd 81f0 	ldmia.w	sp!, {r4, r5, r6, r7, r8, pc}

00007eaa <transition_complete>:
{
    7eaa:	b410      	push	{r4}
	__asm__ volatile(
    7eac:	f04f 0420 	mov.w	r4, #32
    7eb0:	f3ef 8211 	mrs	r2, BASEPRI
    7eb4:	f384 8811 	msr	BASEPRI, r4
    7eb8:	f3bf 8f6f 	isb	sy
	mgr->last_res = res;
    7ebc:	6141      	str	r1, [r0, #20]
}
    7ebe:	bc10      	pop	{r4}
	process_event(mgr, EVT_COMPLETE, key);
    7ec0:	2101      	movs	r1, #1
    7ec2:	f7f9 be43 	b.w	1b4c <process_event>

00007ec6 <validate_args>:
{
    7ec6:	b510      	push	{r4, lr}
    7ec8:	460c      	mov	r4, r1
	if ((mgr == NULL) || (cli == NULL)) {
    7eca:	b140      	cbz	r0, 7ede <validate_args+0x18>
    7ecc:	b139      	cbz	r1, 7ede <validate_args+0x18>
	int rv = sys_notify_validate(&cli->notify);
    7ece:	1d08      	adds	r0, r1, #4
    7ed0:	f7ff ff6c 	bl	7dac <sys_notify_validate>
	if ((rv == 0)
    7ed4:	b928      	cbnz	r0, 7ee2 <validate_args+0x1c>
	    && ((cli->notify.flags
    7ed6:	68a3      	ldr	r3, [r4, #8]
    7ed8:	f033 0303 	bics.w	r3, r3, #3
    7edc:	d001      	beq.n	7ee2 <validate_args+0x1c>
		rv = -EINVAL;
    7ede:	f06f 0015 	mvn.w	r0, #21
}
    7ee2:	bd10      	pop	{r4, pc}

00007ee4 <onoff_manager_init>:
{
    7ee4:	b538      	push	{r3, r4, r5, lr}
    7ee6:	460c      	mov	r4, r1
	if ((mgr == NULL)
    7ee8:	4605      	mov	r5, r0
    7eea:	b158      	cbz	r0, 7f04 <onoff_manager_init+0x20>
	    || (transitions == NULL)
    7eec:	b151      	cbz	r1, 7f04 <onoff_manager_init+0x20>
	    || (transitions->start == NULL)
    7eee:	680b      	ldr	r3, [r1, #0]
    7ef0:	b143      	cbz	r3, 7f04 <onoff_manager_init+0x20>
	    || (transitions->stop == NULL)) {
    7ef2:	684b      	ldr	r3, [r1, #4]
    7ef4:	b133      	cbz	r3, 7f04 <onoff_manager_init+0x20>
	*mgr = (struct onoff_manager)ONOFF_MANAGER_INITIALIZER(transitions);
    7ef6:	221c      	movs	r2, #28
    7ef8:	2100      	movs	r1, #0
    7efa:	f001 f917 	bl	912c <memset>
    7efe:	612c      	str	r4, [r5, #16]
	return 0;
    7f00:	2000      	movs	r0, #0
}
    7f02:	bd38      	pop	{r3, r4, r5, pc}
		return -EINVAL;
    7f04:	f06f 0015 	mvn.w	r0, #21
    7f08:	e7fb      	b.n	7f02 <onoff_manager_init+0x1e>

00007f0a <onoff_request>:

int onoff_request(struct onoff_manager *mgr,
		  struct onoff_client *cli)
{
    7f0a:	b570      	push	{r4, r5, r6, lr}
    7f0c:	4604      	mov	r4, r0
    7f0e:	460e      	mov	r6, r1
	bool add_client = false;        /* add client to pending list */
	bool start = false;             /* trigger a start transition */
	bool notify = false;            /* do client notification */
	int rv = validate_args(mgr, cli);
    7f10:	f7ff ffd9 	bl	7ec6 <validate_args>

	if (rv < 0) {
    7f14:	1e05      	subs	r5, r0, #0
    7f16:	db31      	blt.n	7f7c <onoff_request+0x72>
    7f18:	f04f 0320 	mov.w	r3, #32
    7f1c:	f3ef 8111 	mrs	r1, BASEPRI
    7f20:	f383 8811 	msr	BASEPRI, r3
    7f24:	f3bf 8f6f 	isb	sy

	k_spinlock_key_t key = k_spin_lock(&mgr->lock);
	uint32_t state = mgr->flags & ONOFF_STATE_MASK;

	/* Reject if this would overflow the reference count. */
	if (mgr->refs == SERVICE_REFS_MAX) {
    7f28:	8b63      	ldrh	r3, [r4, #26]
	uint32_t state = mgr->flags & ONOFF_STATE_MASK;
    7f2a:	8b20      	ldrh	r0, [r4, #24]
	if (mgr->refs == SERVICE_REFS_MAX) {
    7f2c:	f64f 75ff 	movw	r5, #65535	; 0xffff
    7f30:	42ab      	cmp	r3, r5
    7f32:	f000 0207 	and.w	r2, r0, #7
    7f36:	d02e      	beq.n	7f96 <onoff_request+0x8c>
		rv = -EAGAIN;
		goto out;
	}

	rv = state;
	if (state == ONOFF_STATE_ON) {
    7f38:	2a02      	cmp	r2, #2
    7f3a:	d10e      	bne.n	7f5a <onoff_request+0x50>
		/* Increment reference count, notify in exit */
		notify = true;
		mgr->refs += 1U;
    7f3c:	3301      	adds	r3, #1
    7f3e:	8363      	strh	r3, [r4, #26]
	rv = state;
    7f40:	4615      	mov	r5, r2
		notify = true;
    7f42:	2301      	movs	r3, #1
	__asm__ volatile(
    7f44:	f381 8811 	msr	BASEPRI, r1
    7f48:	f3bf 8f6f 	isb	sy
	if (start) {
		process_event(mgr, EVT_RECHECK, key);
	} else {
		k_spin_unlock(&mgr->lock, key);

		if (notify) {
    7f4c:	b1b3      	cbz	r3, 7f7c <onoff_request+0x72>
			notify_one(mgr, cli, state, 0);
    7f4e:	2300      	movs	r3, #0
    7f50:	4631      	mov	r1, r6
    7f52:	4620      	mov	r0, r4
    7f54:	f7ff ff93 	bl	7e7e <notify_one>
    7f58:	e010      	b.n	7f7c <onoff_request+0x72>
	} else if ((state == ONOFF_STATE_OFF)
    7f5a:	0783      	lsls	r3, r0, #30
    7f5c:	d001      	beq.n	7f62 <onoff_request+0x58>
		   || (state == ONOFF_STATE_TO_ON)) {
    7f5e:	2a06      	cmp	r2, #6
    7f60:	d10e      	bne.n	7f80 <onoff_request+0x76>
	parent->next = child;
    7f62:	2300      	movs	r3, #0
    7f64:	6033      	str	r3, [r6, #0]
Z_GENLIST_APPEND(slist, snode)
    7f66:	6863      	ldr	r3, [r4, #4]
    7f68:	b993      	cbnz	r3, 7f90 <onoff_request+0x86>
	list->head = node;
    7f6a:	e9c4 6600 	strd	r6, r6, [r4]
	if (start) {
    7f6e:	4615      	mov	r5, r2
    7f70:	b962      	cbnz	r2, 7f8c <onoff_request+0x82>
		process_event(mgr, EVT_RECHECK, key);
    7f72:	460a      	mov	r2, r1
    7f74:	4620      	mov	r0, r4
    7f76:	2102      	movs	r1, #2
    7f78:	f7f9 fde8 	bl	1b4c <process_event>
		}
	}

	return rv;
}
    7f7c:	4628      	mov	r0, r5
    7f7e:	bd70      	pop	{r4, r5, r6, pc}
		rv = -EIO;
    7f80:	2a05      	cmp	r2, #5
    7f82:	bf0c      	ite	eq
    7f84:	f06f 0585 	mvneq.w	r5, #133	; 0x85
    7f88:	f06f 0504 	mvnne.w	r5, #4
    7f8c:	2300      	movs	r3, #0
    7f8e:	e7d9      	b.n	7f44 <onoff_request+0x3a>
	parent->next = child;
    7f90:	601e      	str	r6, [r3, #0]
	list->tail = node;
    7f92:	6066      	str	r6, [r4, #4]
}
    7f94:	e7eb      	b.n	7f6e <onoff_request+0x64>
		rv = -EAGAIN;
    7f96:	f06f 050a 	mvn.w	r5, #10
    7f9a:	e7f7      	b.n	7f8c <onoff_request+0x82>

00007f9c <z_thread_entry>:
 * This routine does not return, and is marked as such so the compiler won't
 * generate preamble code that is only used by functions that actually return.
 */
FUNC_NORETURN void z_thread_entry(k_thread_entry_t entry,
				 void *p1, void *p2, void *p3)
{
    7f9c:	4604      	mov	r4, r0
    7f9e:	b508      	push	{r3, lr}
    7fa0:	4608      	mov	r0, r1
    7fa2:	4611      	mov	r1, r2
	entry(p1, p2, p3);
    7fa4:	461a      	mov	r2, r3
    7fa6:	47a0      	blx	r4
	return z_impl_k_current_get();
    7fa8:	f7ff f96c 	bl	7284 <z_impl_k_current_get>
	z_impl_k_thread_abort(thread);
    7fac:	f7fb fff4 	bl	3f98 <z_impl_k_thread_abort>

00007fb0 <outs>:
{
    7fb0:	e92d 41f0 	stmdb	sp!, {r4, r5, r6, r7, r8, lr}
    7fb4:	4607      	mov	r7, r0
    7fb6:	4688      	mov	r8, r1
    7fb8:	4615      	mov	r5, r2
    7fba:	461e      	mov	r6, r3
	while ((sp < ep) || ((ep == NULL) && *sp)) {
    7fbc:	4614      	mov	r4, r2
    7fbe:	42b4      	cmp	r4, r6
    7fc0:	eba4 0005 	sub.w	r0, r4, r5
    7fc4:	d302      	bcc.n	7fcc <outs+0x1c>
    7fc6:	b93e      	cbnz	r6, 7fd8 <outs+0x28>
    7fc8:	7823      	ldrb	r3, [r4, #0]
    7fca:	b12b      	cbz	r3, 7fd8 <outs+0x28>
		int rc = out((int)*sp++, ctx);
    7fcc:	f814 0b01 	ldrb.w	r0, [r4], #1
    7fd0:	4641      	mov	r1, r8
    7fd2:	47b8      	blx	r7
		if (rc < 0) {
    7fd4:	2800      	cmp	r0, #0
    7fd6:	daf2      	bge.n	7fbe <outs+0xe>
}
    7fd8:	e8bd 81f0 	ldmia.w	sp!, {r4, r5, r6, r7, r8, pc}

00007fdc <_ConfigAbsSyms>:
GEN_ABSOLUTE_SYM_KCONFIG(CONFIG_OUTPUT_DISASSEMBLY, 1);
GEN_ABSOLUTE_SYM_KCONFIG(CONFIG_OUTPUT_PRINT_MEMORY_USAGE, 1);
GEN_ABSOLUTE_SYM_KCONFIG(CONFIG_BUILD_OUTPUT_BIN, 1);
GEN_ABSOLUTE_SYM_KCONFIG(CONFIG_COMPAT_INCLUDES, 1);

GEN_ABS_SYM_END
    7fdc:	4770      	bx	lr

00007fde <log_list_init>:

#include "log_list.h"

void log_list_init(struct log_list_t *list)
{
	list->tail = NULL;
    7fde:	2300      	movs	r3, #0
	list->head = NULL;
    7fe0:	e9c0 3300 	strd	r3, r3, [r0]
}
    7fe4:	4770      	bx	lr

00007fe6 <log_list_add_tail>:

void log_list_add_tail(struct log_list_t *list, struct log_msg *msg)
{
	if (list->head == NULL) {
    7fe6:	6803      	ldr	r3, [r0, #0]
    7fe8:	b923      	cbnz	r3, 7ff4 <log_list_add_tail+0xe>
		list->head = msg;
    7fea:	6001      	str	r1, [r0, #0]
	} else {
		list->tail->next = msg;
	}

	list->tail = msg;
	msg->next = NULL;
    7fec:	2300      	movs	r3, #0
	list->tail = msg;
    7fee:	6041      	str	r1, [r0, #4]
	msg->next = NULL;
    7ff0:	600b      	str	r3, [r1, #0]
}
    7ff2:	4770      	bx	lr
		list->tail->next = msg;
    7ff4:	6843      	ldr	r3, [r0, #4]
    7ff6:	6019      	str	r1, [r3, #0]
    7ff8:	e7f8      	b.n	7fec <log_list_add_tail+0x6>

00007ffa <log_list_head_peek>:

struct log_msg *log_list_head_peek(struct log_list_t *list)
{
	return list->head;
}
    7ffa:	6800      	ldr	r0, [r0, #0]
    7ffc:	4770      	bx	lr

00007ffe <log_list_head_get>:

struct log_msg *log_list_head_get(struct log_list_t *list)
{
    7ffe:	4603      	mov	r3, r0
	struct log_msg *msg = list->head;
    8000:	6800      	ldr	r0, [r0, #0]

	if (list->head != NULL) {
    8002:	b108      	cbz	r0, 8008 <CONFIG_SYS_CLOCK_HW_CYCLES_PER_SEC+0x8>
		list->head = list->head->next;
    8004:	6802      	ldr	r2, [r0, #0]
    8006:	601a      	str	r2, [r3, #0]
	}

	return msg;
}
    8008:	4770      	bx	lr

0000800a <z_log_msg_std_alloc>:
/** @brief Allocate chunk for standard log message.
 *
 *  @return Allocated chunk of NULL.
 */
static inline struct log_msg *z_log_msg_std_alloc(void)
{
    800a:	b508      	push	{r3, lr}
	struct  log_msg *msg = (struct  log_msg *)log_msg_chunk_alloc();
    800c:	f7fa fd66 	bl	2adc <log_msg_chunk_alloc>

	if (msg != NULL) {
    8010:	b118      	cbz	r0, 801a <z_log_msg_std_alloc+0x10>
		/* all fields reset to 0, reference counter to 1 */
		msg->hdr.ref_cnt = 1;
    8012:	2301      	movs	r3, #1
    8014:	6043      	str	r3, [r0, #4]
		msg->hdr.params.raw = 0U;
    8016:	2300      	movs	r3, #0
    8018:	8103      	strh	r3, [r0, #8]
			msg->hdr.ids.source_id = 0;
		}
	}

	return msg;
}
    801a:	bd08      	pop	{r3, pc}

0000801c <k_cycle_get_32_wrapper>:
#ifndef _ASMLANGUAGE
extern uint32_t sys_clock_cycle_get_32(void);

static inline uint32_t arch_k_cycle_get_32(void)
{
	return sys_clock_cycle_get_32();
    801c:	f7fb bb4a 	b.w	36b4 <sys_clock_cycle_get_32>

00008020 <dummy_timestamp>:
    8020:	2000      	movs	r0, #0
    8022:	4770      	bx	lr

00008024 <log_0>:
{
    8024:	b538      	push	{r3, r4, r5, lr}
    8026:	4605      	mov	r5, r0
    8028:	460c      	mov	r4, r1
 *
 *  @return Pointer to allocated head of the message or NULL.
 */
static inline struct log_msg *log_msg_create_0(const char *str)
{
	struct log_msg *msg = z_log_msg_std_alloc();
    802a:	f7ff ffee 	bl	800a <z_log_msg_std_alloc>

	if (msg != NULL) {
    802e:	b128      	cbz	r0, 803c <log_0+0x18>
		msg->str = str;
    8030:	6105      	str	r5, [r0, #16]
		msg_finalize(msg, src_level);
    8032:	4621      	mov	r1, r4
}
    8034:	e8bd 4038 	ldmia.w	sp!, {r3, r4, r5, lr}
		msg_finalize(msg, src_level);
    8038:	f7fa bc6a 	b.w	2910 <msg_finalize>
}
    803c:	bd38      	pop	{r3, r4, r5, pc}

0000803e <log_1>:
{
    803e:	b570      	push	{r4, r5, r6, lr}
    8040:	4606      	mov	r6, r0
    8042:	460d      	mov	r5, r1
    8044:	4614      	mov	r4, r2
 *  @return Pointer to allocated head of the message or NULL.
 */
static inline struct log_msg *log_msg_create_1(const char *str,
					       log_arg_t arg1)
{
	struct  log_msg *msg = z_log_msg_std_alloc();
    8046:	f7ff ffe0 	bl	800a <z_log_msg_std_alloc>

	if (msg != NULL) {
    804a:	b158      	cbz	r0, 8064 <log_1+0x26>
		msg->str = str;
		msg->hdr.params.std.nargs = 1U;
    804c:	7a42      	ldrb	r2, [r0, #9]
		msg->str = str;
    804e:	6106      	str	r6, [r0, #16]
		msg->hdr.params.std.nargs = 1U;
    8050:	2101      	movs	r1, #1
    8052:	f361 1207 	bfi	r2, r1, #4, #4
    8056:	7242      	strb	r2, [r0, #9]
		msg->payload.single.args[0] = arg1;
    8058:	6145      	str	r5, [r0, #20]
		msg_finalize(msg, src_level);
    805a:	4621      	mov	r1, r4
}
    805c:	e8bd 4070 	ldmia.w	sp!, {r4, r5, r6, lr}
		msg_finalize(msg, src_level);
    8060:	f7fa bc56 	b.w	2910 <msg_finalize>
}
    8064:	bd70      	pop	{r4, r5, r6, pc}

00008066 <log_2>:
{
    8066:	e92d 41f0 	stmdb	sp!, {r4, r5, r6, r7, r8, lr}
    806a:	4680      	mov	r8, r0
    806c:	460f      	mov	r7, r1
    806e:	4616      	mov	r6, r2
    8070:	461d      	mov	r5, r3
 */
static inline struct log_msg *log_msg_create_2(const char *str,
					       log_arg_t arg1,
					       log_arg_t arg2)
{
	struct  log_msg *msg = z_log_msg_std_alloc();
    8072:	f7ff ffca 	bl	800a <z_log_msg_std_alloc>

	if (msg != NULL) {
    8076:	b168      	cbz	r0, 8094 <log_2+0x2e>
		msg->str = str;
		msg->hdr.params.std.nargs = 2U;
    8078:	7a43      	ldrb	r3, [r0, #9]
		msg->str = str;
    807a:	f8c0 8010 	str.w	r8, [r0, #16]
		msg->hdr.params.std.nargs = 2U;
    807e:	2202      	movs	r2, #2
    8080:	f362 1307 	bfi	r3, r2, #4, #4
    8084:	7243      	strb	r3, [r0, #9]
		msg->payload.single.args[0] = arg1;
		msg->payload.single.args[1] = arg2;
    8086:	e9c0 7605 	strd	r7, r6, [r0, #20]
		msg_finalize(msg, src_level);
    808a:	4629      	mov	r1, r5
}
    808c:	e8bd 41f0 	ldmia.w	sp!, {r4, r5, r6, r7, r8, lr}
		msg_finalize(msg, src_level);
    8090:	f7fa bc3e 	b.w	2910 <msg_finalize>
}
    8094:	e8bd 81f0 	ldmia.w	sp!, {r4, r5, r6, r7, r8, pc}

00008098 <log_3>:
{
    8098:	e92d 43f8 	stmdb	sp!, {r3, r4, r5, r6, r7, r8, r9, lr}
    809c:	4680      	mov	r8, r0
    809e:	f8bd 9020 	ldrh.w	r9, [sp, #32]
    80a2:	460f      	mov	r7, r1
    80a4:	4616      	mov	r6, r2
    80a6:	461d      	mov	r5, r3
static inline struct log_msg *log_msg_create_3(const char *str,
					       log_arg_t arg1,
					       log_arg_t arg2,
					       log_arg_t arg3)
{
	struct  log_msg *msg = z_log_msg_std_alloc();
    80a8:	f7ff ffaf 	bl	800a <z_log_msg_std_alloc>

	if (msg != NULL) {
    80ac:	b170      	cbz	r0, 80cc <log_3+0x34>
		msg->str = str;
		msg->hdr.params.std.nargs = 3U;
    80ae:	7a43      	ldrb	r3, [r0, #9]
		msg->str = str;
    80b0:	f8c0 8010 	str.w	r8, [r0, #16]
		msg->hdr.params.std.nargs = 3U;
    80b4:	2203      	movs	r2, #3
    80b6:	f362 1307 	bfi	r3, r2, #4, #4
    80ba:	7243      	strb	r3, [r0, #9]
		msg->payload.single.args[0] = arg1;
		msg->payload.single.args[1] = arg2;
    80bc:	e9c0 7605 	strd	r7, r6, [r0, #20]
		msg->payload.single.args[2] = arg3;
    80c0:	61c5      	str	r5, [r0, #28]
		msg_finalize(msg, src_level);
    80c2:	4649      	mov	r1, r9
}
    80c4:	e8bd 43f8 	ldmia.w	sp!, {r3, r4, r5, r6, r7, r8, r9, lr}
		msg_finalize(msg, src_level);
    80c8:	f7fa bc22 	b.w	2910 <msg_finalize>
}
    80cc:	e8bd 83f8 	ldmia.w	sp!, {r3, r4, r5, r6, r7, r8, r9, pc}

000080d0 <log_printk>:
{
    80d0:	b500      	push	{lr}
    80d2:	b0a3      	sub	sp, #140	; 0x8c
    80d4:	4602      	mov	r2, r0
    80d6:	460b      	mov	r3, r1
			length = vsnprintk(str, sizeof(str), fmt, ap);
    80d8:	a801      	add	r0, sp, #4
    80da:	2181      	movs	r1, #129	; 0x81
    80dc:	f7f9 fd22 	bl	1b24 <vsnprintk>
			msg = log_msg_hexdump_create(NULL, str, length);
    80e0:	2881      	cmp	r0, #129	; 0x81
    80e2:	4602      	mov	r2, r0
    80e4:	a901      	add	r1, sp, #4
    80e6:	bf28      	it	cs
    80e8:	2281      	movcs	r2, #129	; 0x81
    80ea:	2000      	movs	r0, #0
    80ec:	f000 f8a2 	bl	8234 <log_msg_hexdump_create>
			if (msg == NULL) {
    80f0:	b118      	cbz	r0, 80fa <log_printk+0x2a>
			msg_finalize(msg, src_level_union.structure);
    80f2:	f04f 0100 	mov.w	r1, #0
    80f6:	f7fa fc0b 	bl	2910 <msg_finalize>
}
    80fa:	b023      	add	sp, #140	; 0x8c
    80fc:	f85d fb04 	ldr.w	pc, [sp], #4

00008100 <log_msg_hexdump_data_op>:
static void log_msg_hexdump_data_op(struct log_msg *msg,
				    uint8_t *data,
				    size_t *length,
				    size_t offset,
				    bool put_op)
{
    8100:	e92d 43f8 	stmdb	sp!, {r3, r4, r5, r6, r7, r8, r9, lr}
    8104:	461c      	mov	r4, r3
	uint32_t available_len = msg->hdr.params.hexdump.length;
    8106:	8903      	ldrh	r3, [r0, #8]
{
    8108:	f89d 8020 	ldrb.w	r8, [sp, #32]
	uint8_t *head_data;
	uint32_t chunk_len;
	uint32_t req_len;
	uint32_t cpy_len;

	if (offset >= available_len) {
    810c:	ebb4 0f93 	cmp.w	r4, r3, lsr #2
{
    8110:	460e      	mov	r6, r1
    8112:	4611      	mov	r1, r2
	uint32_t available_len = msg->hdr.params.hexdump.length;
    8114:	ea4f 0293 	mov.w	r2, r3, lsr #2
	if (offset >= available_len) {
    8118:	d303      	bcc.n	8122 <log_msg_hexdump_data_op+0x22>
		*length = 0;
    811a:	2300      	movs	r3, #0
    811c:	600b      	str	r3, [r1, #0]
		offset = 0;
		cont = cont->next;
		req_len -= cpy_len;
		data += cpy_len;
	}
}
    811e:	e8bd 83f8 	ldmia.w	sp!, {r3, r4, r5, r6, r7, r8, r9, pc}
	if ((offset + *length) > available_len) {
    8122:	680b      	ldr	r3, [r1, #0]
    8124:	4423      	add	r3, r4
    8126:	4293      	cmp	r3, r2
		*length = available_len - offset;
    8128:	bf84      	itt	hi
    812a:	1b13      	subhi	r3, r2, r4
    812c:	600b      	strhi	r3, [r1, #0]
	if (available_len > LOG_MSG_HEXDUMP_BYTES_SINGLE_CHUNK) {
    812e:	2a0c      	cmp	r2, #12
	req_len = *length;
    8130:	f8d1 9000 	ldr.w	r9, [r1]
	if (available_len > LOG_MSG_HEXDUMP_BYTES_SINGLE_CHUNK) {
    8134:	d92b      	bls.n	818e <log_msg_hexdump_data_op+0x8e>
	if (offset < chunk_len) {
    8136:	2c07      	cmp	r4, #7
		cont = msg->payload.ext.next;
    8138:	6947      	ldr	r7, [r0, #20]
	if (offset < chunk_len) {
    813a:	d82e      	bhi.n	819a <log_msg_hexdump_data_op+0x9a>
		head_data = msg->payload.ext.data.bytes;
    813c:	3018      	adds	r0, #24
		chunk_len = LOG_MSG_HEXDUMP_BYTES_HEAD_CHUNK;
    813e:	2208      	movs	r2, #8
		cpy_len = req_len > chunk_len ? chunk_len : req_len;
    8140:	454a      	cmp	r2, r9
    8142:	bf28      	it	cs
    8144:	464a      	movcs	r2, r9
    8146:	4615      	mov	r5, r2
		if (put_op) {
    8148:	4420      	add	r0, r4
    814a:	f1b8 0f00 	cmp.w	r8, #0
    814e:	d021      	beq.n	8194 <log_msg_hexdump_data_op+0x94>
    8150:	4631      	mov	r1, r6
    8152:	f000 ffdd 	bl	9110 <memcpy>
		req_len -= cpy_len;
    8156:	eba9 0905 	sub.w	r9, r9, r5
		data += cpy_len;
    815a:	442e      	add	r6, r5
	while ((req_len > 0) && (cont != NULL)) {
    815c:	f1b9 0f00 	cmp.w	r9, #0
    8160:	d0dd      	beq.n	811e <log_msg_hexdump_data_op+0x1e>
    8162:	2f00      	cmp	r7, #0
    8164:	d0db      	beq.n	811e <log_msg_hexdump_data_op+0x1e>
		chunk_len = HEXDUMP_BYTES_CONT_MSG - offset;
    8166:	f1c4 051c 	rsb	r5, r4, #28
		cpy_len = req_len > chunk_len ? chunk_len : req_len;
    816a:	454d      	cmp	r5, r9
    816c:	bf28      	it	cs
    816e:	464d      	movcs	r5, r9
		if (put_op) {
    8170:	1d20      	adds	r0, r4, #4
    8172:	4438      	add	r0, r7
    8174:	462a      	mov	r2, r5
    8176:	f1b8 0f00 	cmp.w	r8, #0
    817a:	d014      	beq.n	81a6 <log_msg_hexdump_data_op+0xa6>
    817c:	4631      	mov	r1, r6
    817e:	f000 ffc7 	bl	9110 <memcpy>
		req_len -= cpy_len;
    8182:	eba9 0905 	sub.w	r9, r9, r5
		cont = cont->next;
    8186:	683f      	ldr	r7, [r7, #0]
		data += cpy_len;
    8188:	442e      	add	r6, r5
		offset = 0;
    818a:	2400      	movs	r4, #0
    818c:	e7e6      	b.n	815c <log_msg_hexdump_data_op+0x5c>
		head_data = msg->payload.single.bytes;
    818e:	3014      	adds	r0, #20
	struct log_msg_cont *cont = NULL;
    8190:	2700      	movs	r7, #0
    8192:	e7d5      	b.n	8140 <log_msg_hexdump_data_op+0x40>
    8194:	4601      	mov	r1, r0
    8196:	4630      	mov	r0, r6
    8198:	e7db      	b.n	8152 <log_msg_hexdump_data_op+0x52>
		offset -= chunk_len;
    819a:	3c08      	subs	r4, #8
		while (offset >= chunk_len) {
    819c:	2c1b      	cmp	r4, #27
    819e:	d9dd      	bls.n	815c <log_msg_hexdump_data_op+0x5c>
			cont = cont->next;
    81a0:	683f      	ldr	r7, [r7, #0]
			offset -= chunk_len;
    81a2:	3c1c      	subs	r4, #28
    81a4:	e7fa      	b.n	819c <log_msg_hexdump_data_op+0x9c>
    81a6:	4601      	mov	r1, r0
    81a8:	4630      	mov	r0, r6
    81aa:	e7e8      	b.n	817e <log_msg_hexdump_data_op+0x7e>

000081ac <log_msg_get>:
	return __atomic_fetch_add(target, value, __ATOMIC_SEQ_CST);
    81ac:	3004      	adds	r0, #4
    81ae:	f3bf 8f5b 	dmb	ish
    81b2:	e850 3f00 	ldrex	r3, [r0]
    81b6:	3301      	adds	r3, #1
    81b8:	e840 3200 	strex	r2, r3, [r0]
    81bc:	2a00      	cmp	r2, #0
    81be:	d1f8      	bne.n	81b2 <log_msg_get+0x6>
    81c0:	f3bf 8f5b 	dmb	ish
}
    81c4:	4770      	bx	lr

000081c6 <log_msg_nargs_get>:
	return msg->hdr.params.std.nargs;
    81c6:	7a40      	ldrb	r0, [r0, #9]
}
    81c8:	0900      	lsrs	r0, r0, #4
    81ca:	4770      	bx	lr

000081cc <log_msg_arg_get>:
	if (arg_idx >= msg->hdr.params.std.nargs) {
    81cc:	7a43      	ldrb	r3, [r0, #9]
    81ce:	ebb1 1f13 	cmp.w	r1, r3, lsr #4
    81d2:	ea4f 1213 	mov.w	r2, r3, lsr #4
    81d6:	d216      	bcs.n	8206 <log_msg_arg_get+0x3a>
	if (msg->hdr.params.std.nargs <= LOG_MSG_NARGS_SINGLE_CHUNK) {
    81d8:	2a03      	cmp	r2, #3
    81da:	d803      	bhi.n	81e4 <log_msg_arg_get+0x18>
		arg = msg->payload.single.args[arg_idx];
    81dc:	eb00 0181 	add.w	r1, r0, r1, lsl #2
    81e0:	6948      	ldr	r0, [r1, #20]
    81e2:	4770      	bx	lr
	if (arg_idx < LOG_MSG_NARGS_HEAD_CHUNK) {
    81e4:	2901      	cmp	r1, #1
    81e6:	d803      	bhi.n	81f0 <log_msg_arg_get+0x24>
		return msg->payload.ext.data.args[arg_idx];
    81e8:	eb00 0181 	add.w	r1, r0, r1, lsl #2
    81ec:	6988      	ldr	r0, [r1, #24]
    81ee:	4770      	bx	lr
	cont = msg->payload.ext.next;
    81f0:	6943      	ldr	r3, [r0, #20]
	arg_idx -= LOG_MSG_NARGS_HEAD_CHUNK;
    81f2:	3902      	subs	r1, #2
	while (arg_idx >= ARGS_CONT_MSG) {
    81f4:	2906      	cmp	r1, #6
    81f6:	d803      	bhi.n	8200 <log_msg_arg_get+0x34>
	return cont->payload.args[arg_idx];
    81f8:	eb03 0181 	add.w	r1, r3, r1, lsl #2
    81fc:	6848      	ldr	r0, [r1, #4]
    81fe:	4770      	bx	lr
		cont = cont->next;
    8200:	681b      	ldr	r3, [r3, #0]
		arg_idx -= ARGS_CONT_MSG;
    8202:	3907      	subs	r1, #7
		cont = cont->next;
    8204:	e7f6      	b.n	81f4 <log_msg_arg_get+0x28>
		return 0;
    8206:	2000      	movs	r0, #0
}
    8208:	4770      	bx	lr

0000820a <log_msg_put>:
{
    820a:	4603      	mov	r3, r0
	return __atomic_fetch_sub(target, value, __ATOMIC_SEQ_CST);
    820c:	1d02      	adds	r2, r0, #4
    820e:	f3bf 8f5b 	dmb	ish
    8212:	e852 1f00 	ldrex	r1, [r2]
    8216:	3901      	subs	r1, #1
    8218:	e842 1c00 	strex	ip, r1, [r2]
    821c:	f1bc 0f00 	cmp.w	ip, #0
    8220:	d1f7      	bne.n	8212 <log_msg_put+0x8>
    8222:	f3bf 8f5b 	dmb	ish
	if (msg->hdr.ref_cnt == 0) {
    8226:	685b      	ldr	r3, [r3, #4]
    8228:	b90b      	cbnz	r3, 822e <log_msg_put+0x24>
		msg_free(msg);
    822a:	f7fa bc6b 	b.w	2b04 <msg_free>
}
    822e:	4770      	bx	lr

00008230 <log_msg_str_get>:
}
    8230:	6900      	ldr	r0, [r0, #16]
    8232:	4770      	bx	lr

00008234 <log_msg_hexdump_create>:
{
    8234:	e92d 43f8 	stmdb	sp!, {r3, r4, r5, r6, r7, r8, r9, lr}
	length = (length > LOG_MSG_HEXDUMP_MAX_LENGTH) ?
    8238:	f643 75ff 	movw	r5, #16383	; 0x3fff
    823c:	4295      	cmp	r5, r2
{
    823e:	4680      	mov	r8, r0
    8240:	460e      	mov	r6, r1
    8242:	4617      	mov	r7, r2
	length = (length > LOG_MSG_HEXDUMP_MAX_LENGTH) ?
    8244:	bf28      	it	cs
    8246:	4615      	movcs	r5, r2
	msg = (struct log_msg *)log_msg_chunk_alloc();
    8248:	f7fa fc48 	bl	2adc <log_msg_chunk_alloc>
	if (msg == NULL) {
    824c:	4604      	mov	r4, r0
    824e:	b378      	cbz	r0, 82b0 <log_msg_hexdump_create+0x7c>
	msg->hdr.params.hexdump.type = LOG_MSG_TYPE_HEXDUMP;
    8250:	8902      	ldrh	r2, [r0, #8]
	msg->str = str;
    8252:	f8c0 8010 	str.w	r8, [r0, #16]
	msg->hdr.ref_cnt = 1;
    8256:	2301      	movs	r3, #1
    8258:	6043      	str	r3, [r0, #4]
	msg->hdr.params.hexdump.type = LOG_MSG_TYPE_HEXDUMP;
    825a:	00ab      	lsls	r3, r5, #2
    825c:	f043 0301 	orr.w	r3, r3, #1
    8260:	f002 0202 	and.w	r2, r2, #2
    8264:	4313      	orrs	r3, r2
	if (length > LOG_MSG_HEXDUMP_BYTES_SINGLE_CHUNK) {
    8266:	2f0c      	cmp	r7, #12
	msg->hdr.params.hexdump.type = LOG_MSG_TYPE_HEXDUMP;
    8268:	8103      	strh	r3, [r0, #8]
	if (length > LOG_MSG_HEXDUMP_BYTES_SINGLE_CHUNK) {
    826a:	f100 0814 	add.w	r8, r0, #20
    826e:	d916      	bls.n	829e <log_msg_hexdump_create+0x6a>
    8270:	6833      	ldr	r3, [r6, #0]
		msg->hdr.params.generic.ext = 1;
    8272:	7a02      	ldrb	r2, [r0, #8]
    8274:	6183      	str	r3, [r0, #24]
    8276:	6873      	ldr	r3, [r6, #4]
    8278:	61c3      	str	r3, [r0, #28]
    827a:	f042 0202 	orr.w	r2, r2, #2
		msg->payload.ext.next = NULL;
    827e:	2300      	movs	r3, #0
    8280:	6143      	str	r3, [r0, #20]
		msg->hdr.params.generic.ext = 1;
    8282:	7202      	strb	r2, [r0, #8]
		data += LOG_MSG_HEXDUMP_BYTES_HEAD_CHUNK;
    8284:	3608      	adds	r6, #8
		length -= LOG_MSG_HEXDUMP_BYTES_HEAD_CHUNK;
    8286:	3d08      	subs	r5, #8
	while (length > 0) {
    8288:	4699      	mov	r9, r3
    828a:	b18d      	cbz	r5, 82b0 <log_msg_hexdump_create+0x7c>
		cont = (struct log_msg_cont *)log_msg_chunk_alloc();
    828c:	f7fa fc26 	bl	2adc <log_msg_chunk_alloc>
		if (cont == NULL) {
    8290:	4607      	mov	r7, r0
    8292:	b980      	cbnz	r0, 82b6 <log_msg_hexdump_create+0x82>
			msg_free(msg);
    8294:	4620      	mov	r0, r4
    8296:	f7fa fc35 	bl	2b04 <msg_free>
			return NULL;
    829a:	463c      	mov	r4, r7
    829c:	e008      	b.n	82b0 <log_msg_hexdump_create+0x7c>
    829e:	462a      	mov	r2, r5
    82a0:	4631      	mov	r1, r6
    82a2:	4640      	mov	r0, r8
    82a4:	f000 ff34 	bl	9110 <memcpy>
		msg->hdr.params.generic.ext = 0;
    82a8:	7a23      	ldrb	r3, [r4, #8]
    82aa:	f36f 0341 	bfc	r3, #1, #1
    82ae:	7223      	strb	r3, [r4, #8]
}
    82b0:	4620      	mov	r0, r4
    82b2:	e8bd 83f8 	ldmia.w	sp!, {r3, r4, r5, r6, r7, r8, r9, pc}
		chunk_length = (length > HEXDUMP_BYTES_CONT_MSG) ?
    82b6:	2d1c      	cmp	r5, #28
    82b8:	462f      	mov	r7, r5
    82ba:	bf28      	it	cs
    82bc:	271c      	movcs	r7, #28
		*prev_cont = cont;
    82be:	f8c8 0000 	str.w	r0, [r8]
    82c2:	4631      	mov	r1, r6
		cont->next = NULL;
    82c4:	f8c0 9000 	str.w	r9, [r0]
		prev_cont = &cont->next;
    82c8:	4680      	mov	r8, r0
    82ca:	463a      	mov	r2, r7
    82cc:	3004      	adds	r0, #4
    82ce:	f000 ff1f 	bl	9110 <memcpy>
		data += chunk_length;
    82d2:	443e      	add	r6, r7
		length -= chunk_length;
    82d4:	1bed      	subs	r5, r5, r7
    82d6:	e7d8      	b.n	828a <log_msg_hexdump_create+0x56>

000082d8 <log_msg_hexdump_data_get>:

void log_msg_hexdump_data_get(struct log_msg *msg,
			      uint8_t *data,
			      size_t *length,
			      size_t offset)
{
    82d8:	b513      	push	{r0, r1, r4, lr}
	log_msg_hexdump_data_op(msg, data, length, offset, false);
    82da:	2400      	movs	r4, #0
    82dc:	9400      	str	r4, [sp, #0]
    82de:	f7ff ff0f 	bl	8100 <log_msg_hexdump_data_op>
}
    82e2:	b002      	add	sp, #8
    82e4:	bd10      	pop	{r4, pc}

000082e6 <buffer_write>:
{
    82e6:	b5f8      	push	{r3, r4, r5, r6, r7, lr}
    82e8:	4606      	mov	r6, r0
    82ea:	460d      	mov	r5, r1
    82ec:	4614      	mov	r4, r2
    82ee:	461f      	mov	r7, r3
		processed = outf(buf, len, ctx);
    82f0:	4621      	mov	r1, r4
    82f2:	4628      	mov	r0, r5
    82f4:	463a      	mov	r2, r7
    82f6:	47b0      	blx	r6
	} while (len != 0);
    82f8:	1a24      	subs	r4, r4, r0
		buf += processed;
    82fa:	4405      	add	r5, r0
	} while (len != 0);
    82fc:	d1f8      	bne.n	82f0 <buffer_write+0xa>
}
    82fe:	bdf8      	pop	{r3, r4, r5, r6, r7, pc}

00008300 <std_print>:
{
    8300:	e92d 47f0 	stmdb	sp!, {r4, r5, r6, r7, r8, r9, sl, lr}
    8304:	b08e      	sub	sp, #56	; 0x38
    8306:	af0e      	add	r7, sp, #56	; 0x38
    8308:	4680      	mov	r8, r0
    830a:	460d      	mov	r5, r1
	const char *str = log_msg_str_get(msg);
    830c:	f7ff ff90 	bl	8230 <log_msg_str_get>
    8310:	4606      	mov	r6, r0
	uint32_t nargs = log_msg_nargs_get(msg);
    8312:	4640      	mov	r0, r8
    8314:	f7ff ff57 	bl	81c6 <log_msg_nargs_get>
	log_arg_t *args = alloca(sizeof(log_arg_t)*nargs);
    8318:	0083      	lsls	r3, r0, #2
    831a:	3307      	adds	r3, #7
    831c:	f023 0307 	bic.w	r3, r3, #7
    8320:	ebad 0d03 	sub.w	sp, sp, r3
	uint32_t nargs = log_msg_nargs_get(msg);
    8324:	4682      	mov	sl, r0
	log_arg_t *args = alloca(sizeof(log_arg_t)*nargs);
    8326:	ac0e      	add	r4, sp, #56	; 0x38
	for (i = 0; i < nargs; i++) {
    8328:	f04f 0900 	mov.w	r9, #0
    832c:	45d1      	cmp	r9, sl
    832e:	d116      	bne.n	835e <std_print+0x5e>
	switch (log_msg_nargs_get(msg)) {
    8330:	4640      	mov	r0, r8
    8332:	f7ff ff48 	bl	81c6 <log_msg_nargs_get>
    8336:	280f      	cmp	r0, #15
    8338:	d81e      	bhi.n	8378 <std_print+0x78>
    833a:	e8df f010 	tbh	[pc, r0, lsl #1]
    833e:	0019      	.short	0x0019
    8340:	00260020 	.word	0x00260020
    8344:	0036002d 	.word	0x0036002d
    8348:	004e0041 	.word	0x004e0041
    834c:	006e005d 	.word	0x006e005d
    8350:	00960081 	.word	0x00960081
    8354:	00c600ad 	.word	0x00c600ad
    8358:	00fe00e1 	.word	0x00fe00e1
    835c:	011d      	.short	0x011d
		args[i] = log_msg_arg_get(msg, i);
    835e:	4649      	mov	r1, r9
    8360:	4640      	mov	r0, r8
    8362:	f7ff ff33 	bl	81cc <log_msg_arg_get>
    8366:	f844 0029 	str.w	r0, [r4, r9, lsl #2]
	for (i = 0; i < nargs; i++) {
    836a:	f109 0901 	add.w	r9, r9, #1
    836e:	e7dd      	b.n	832c <std_print+0x2c>
		print_formatted(output, str);
    8370:	4631      	mov	r1, r6
    8372:	4628      	mov	r0, r5
    8374:	f7fa fc04 	bl	2b80 <print_formatted>
}
    8378:	46bd      	mov	sp, r7
    837a:	e8bd 87f0 	ldmia.w	sp!, {r4, r5, r6, r7, r8, r9, sl, pc}
		print_formatted(output, str, args[0]);
    837e:	6822      	ldr	r2, [r4, #0]
    8380:	4631      	mov	r1, r6
    8382:	4628      	mov	r0, r5
    8384:	f7fa fbfc 	bl	2b80 <print_formatted>
		break;
    8388:	e7f6      	b.n	8378 <std_print+0x78>
		print_formatted(output, str, args[0], args[1]);
    838a:	e9d4 2300 	ldrd	r2, r3, [r4]
    838e:	4631      	mov	r1, r6
    8390:	4628      	mov	r0, r5
    8392:	f7fa fbf5 	bl	2b80 <print_formatted>
		break;
    8396:	e7ef      	b.n	8378 <std_print+0x78>
		print_formatted(output, str, args[0], args[1], args[2]);
    8398:	68a3      	ldr	r3, [r4, #8]
    839a:	9300      	str	r3, [sp, #0]
    839c:	e9d4 2300 	ldrd	r2, r3, [r4]
    83a0:	4631      	mov	r1, r6
    83a2:	4628      	mov	r0, r5
    83a4:	f7fa fbec 	bl	2b80 <print_formatted>
		break;
    83a8:	e7e6      	b.n	8378 <std_print+0x78>
		print_formatted(output, str, args[0], args[1], args[2],
    83aa:	68e3      	ldr	r3, [r4, #12]
    83ac:	9301      	str	r3, [sp, #4]
    83ae:	68a3      	ldr	r3, [r4, #8]
    83b0:	9300      	str	r3, [sp, #0]
    83b2:	e9d4 2300 	ldrd	r2, r3, [r4]
    83b6:	4631      	mov	r1, r6
    83b8:	4628      	mov	r0, r5
    83ba:	f7fa fbe1 	bl	2b80 <print_formatted>
		break;
    83be:	e7db      	b.n	8378 <std_print+0x78>
		print_formatted(output, str, args[0], args[1], args[2],
    83c0:	6923      	ldr	r3, [r4, #16]
    83c2:	9302      	str	r3, [sp, #8]
    83c4:	68e3      	ldr	r3, [r4, #12]
    83c6:	9301      	str	r3, [sp, #4]
    83c8:	68a3      	ldr	r3, [r4, #8]
    83ca:	9300      	str	r3, [sp, #0]
    83cc:	e9d4 2300 	ldrd	r2, r3, [r4]
    83d0:	4631      	mov	r1, r6
    83d2:	4628      	mov	r0, r5
    83d4:	f7fa fbd4 	bl	2b80 <print_formatted>
		break;
    83d8:	e7ce      	b.n	8378 <std_print+0x78>
		print_formatted(output, str, args[0], args[1], args[2],
    83da:	6963      	ldr	r3, [r4, #20]
    83dc:	9303      	str	r3, [sp, #12]
    83de:	6923      	ldr	r3, [r4, #16]
    83e0:	9302      	str	r3, [sp, #8]
    83e2:	68e3      	ldr	r3, [r4, #12]
    83e4:	9301      	str	r3, [sp, #4]
    83e6:	68a3      	ldr	r3, [r4, #8]
    83e8:	9300      	str	r3, [sp, #0]
    83ea:	e9d4 2300 	ldrd	r2, r3, [r4]
    83ee:	4631      	mov	r1, r6
    83f0:	4628      	mov	r0, r5
    83f2:	f7fa fbc5 	bl	2b80 <print_formatted>
		break;
    83f6:	e7bf      	b.n	8378 <std_print+0x78>
		print_formatted(output, str, args[0], args[1], args[2],
    83f8:	69a3      	ldr	r3, [r4, #24]
    83fa:	9304      	str	r3, [sp, #16]
    83fc:	6963      	ldr	r3, [r4, #20]
    83fe:	9303      	str	r3, [sp, #12]
    8400:	6923      	ldr	r3, [r4, #16]
    8402:	9302      	str	r3, [sp, #8]
    8404:	68e3      	ldr	r3, [r4, #12]
    8406:	9301      	str	r3, [sp, #4]
    8408:	68a3      	ldr	r3, [r4, #8]
    840a:	9300      	str	r3, [sp, #0]
    840c:	e9d4 2300 	ldrd	r2, r3, [r4]
    8410:	4631      	mov	r1, r6
    8412:	4628      	mov	r0, r5
    8414:	f7fa fbb4 	bl	2b80 <print_formatted>
		break;
    8418:	e7ae      	b.n	8378 <std_print+0x78>
		print_formatted(output, str, args[0], args[1], args[2],
    841a:	69e3      	ldr	r3, [r4, #28]
    841c:	9305      	str	r3, [sp, #20]
    841e:	69a3      	ldr	r3, [r4, #24]
    8420:	9304      	str	r3, [sp, #16]
    8422:	6963      	ldr	r3, [r4, #20]
    8424:	9303      	str	r3, [sp, #12]
    8426:	6923      	ldr	r3, [r4, #16]
    8428:	9302      	str	r3, [sp, #8]
    842a:	68e3      	ldr	r3, [r4, #12]
    842c:	9301      	str	r3, [sp, #4]
    842e:	68a3      	ldr	r3, [r4, #8]
    8430:	9300      	str	r3, [sp, #0]
    8432:	e9d4 2300 	ldrd	r2, r3, [r4]
    8436:	4631      	mov	r1, r6
    8438:	4628      	mov	r0, r5
    843a:	f7fa fba1 	bl	2b80 <print_formatted>
		break;
    843e:	e79b      	b.n	8378 <std_print+0x78>
		print_formatted(output, str, args[0], args[1], args[2],
    8440:	6a23      	ldr	r3, [r4, #32]
    8442:	9306      	str	r3, [sp, #24]
    8444:	69e3      	ldr	r3, [r4, #28]
    8446:	9305      	str	r3, [sp, #20]
    8448:	69a3      	ldr	r3, [r4, #24]
    844a:	9304      	str	r3, [sp, #16]
    844c:	6963      	ldr	r3, [r4, #20]
    844e:	9303      	str	r3, [sp, #12]
    8450:	6923      	ldr	r3, [r4, #16]
    8452:	9302      	str	r3, [sp, #8]
    8454:	68e3      	ldr	r3, [r4, #12]
    8456:	9301      	str	r3, [sp, #4]
    8458:	68a3      	ldr	r3, [r4, #8]
    845a:	9300      	str	r3, [sp, #0]
    845c:	e9d4 2300 	ldrd	r2, r3, [r4]
    8460:	4631      	mov	r1, r6
    8462:	4628      	mov	r0, r5
    8464:	f7fa fb8c 	bl	2b80 <print_formatted>
		break;
    8468:	e786      	b.n	8378 <std_print+0x78>
		print_formatted(output, str, args[0], args[1], args[2],
    846a:	6a63      	ldr	r3, [r4, #36]	; 0x24
    846c:	9307      	str	r3, [sp, #28]
    846e:	6a23      	ldr	r3, [r4, #32]
    8470:	9306      	str	r3, [sp, #24]
    8472:	69e3      	ldr	r3, [r4, #28]
    8474:	9305      	str	r3, [sp, #20]
    8476:	69a3      	ldr	r3, [r4, #24]
    8478:	9304      	str	r3, [sp, #16]
    847a:	6963      	ldr	r3, [r4, #20]
    847c:	9303      	str	r3, [sp, #12]
    847e:	6923      	ldr	r3, [r4, #16]
    8480:	9302      	str	r3, [sp, #8]
    8482:	68e3      	ldr	r3, [r4, #12]
    8484:	9301      	str	r3, [sp, #4]
    8486:	68a3      	ldr	r3, [r4, #8]
    8488:	9300      	str	r3, [sp, #0]
    848a:	e9d4 2300 	ldrd	r2, r3, [r4]
    848e:	4631      	mov	r1, r6
    8490:	4628      	mov	r0, r5
    8492:	f7fa fb75 	bl	2b80 <print_formatted>
		break;
    8496:	e76f      	b.n	8378 <std_print+0x78>
		print_formatted(output, str, args[0], args[1], args[2],
    8498:	6aa3      	ldr	r3, [r4, #40]	; 0x28
    849a:	9308      	str	r3, [sp, #32]
    849c:	6a63      	ldr	r3, [r4, #36]	; 0x24
    849e:	9307      	str	r3, [sp, #28]
    84a0:	6a23      	ldr	r3, [r4, #32]
    84a2:	9306      	str	r3, [sp, #24]
    84a4:	69e3      	ldr	r3, [r4, #28]
    84a6:	9305      	str	r3, [sp, #20]
    84a8:	69a3      	ldr	r3, [r4, #24]
    84aa:	9304      	str	r3, [sp, #16]
    84ac:	6963      	ldr	r3, [r4, #20]
    84ae:	9303      	str	r3, [sp, #12]
    84b0:	6923      	ldr	r3, [r4, #16]
    84b2:	9302      	str	r3, [sp, #8]
    84b4:	68e3      	ldr	r3, [r4, #12]
    84b6:	9301      	str	r3, [sp, #4]
    84b8:	68a3      	ldr	r3, [r4, #8]
    84ba:	9300      	str	r3, [sp, #0]
    84bc:	e9d4 2300 	ldrd	r2, r3, [r4]
    84c0:	4631      	mov	r1, r6
    84c2:	4628      	mov	r0, r5
    84c4:	f7fa fb5c 	bl	2b80 <print_formatted>
		break;
    84c8:	e756      	b.n	8378 <std_print+0x78>
		print_formatted(output, str, args[0], args[1], args[2],
    84ca:	6ae3      	ldr	r3, [r4, #44]	; 0x2c
    84cc:	9309      	str	r3, [sp, #36]	; 0x24
    84ce:	6aa3      	ldr	r3, [r4, #40]	; 0x28
    84d0:	9308      	str	r3, [sp, #32]
    84d2:	6a63      	ldr	r3, [r4, #36]	; 0x24
    84d4:	9307      	str	r3, [sp, #28]
    84d6:	6a23      	ldr	r3, [r4, #32]
    84d8:	9306      	str	r3, [sp, #24]
    84da:	69e3      	ldr	r3, [r4, #28]
    84dc:	9305      	str	r3, [sp, #20]
    84de:	69a3      	ldr	r3, [r4, #24]
    84e0:	9304      	str	r3, [sp, #16]
    84e2:	6963      	ldr	r3, [r4, #20]
    84e4:	9303      	str	r3, [sp, #12]
    84e6:	6923      	ldr	r3, [r4, #16]
    84e8:	9302      	str	r3, [sp, #8]
    84ea:	68e3      	ldr	r3, [r4, #12]
    84ec:	9301      	str	r3, [sp, #4]
    84ee:	68a3      	ldr	r3, [r4, #8]
    84f0:	9300      	str	r3, [sp, #0]
    84f2:	e9d4 2300 	ldrd	r2, r3, [r4]
    84f6:	4631      	mov	r1, r6
    84f8:	4628      	mov	r0, r5
    84fa:	f7fa fb41 	bl	2b80 <print_formatted>
		break;
    84fe:	e73b      	b.n	8378 <std_print+0x78>
		print_formatted(output, str, args[0], args[1], args[2],
    8500:	6b23      	ldr	r3, [r4, #48]	; 0x30
    8502:	930a      	str	r3, [sp, #40]	; 0x28
    8504:	6ae3      	ldr	r3, [r4, #44]	; 0x2c
    8506:	9309      	str	r3, [sp, #36]	; 0x24
    8508:	6aa3      	ldr	r3, [r4, #40]	; 0x28
    850a:	9308      	str	r3, [sp, #32]
    850c:	6a63      	ldr	r3, [r4, #36]	; 0x24
    850e:	9307      	str	r3, [sp, #28]
    8510:	6a23      	ldr	r3, [r4, #32]
    8512:	9306      	str	r3, [sp, #24]
    8514:	69e3      	ldr	r3, [r4, #28]
    8516:	9305      	str	r3, [sp, #20]
    8518:	69a3      	ldr	r3, [r4, #24]
    851a:	9304      	str	r3, [sp, #16]
    851c:	6963      	ldr	r3, [r4, #20]
    851e:	9303      	str	r3, [sp, #12]
    8520:	6923      	ldr	r3, [r4, #16]
    8522:	9302      	str	r3, [sp, #8]
    8524:	68e3      	ldr	r3, [r4, #12]
    8526:	9301      	str	r3, [sp, #4]
    8528:	68a3      	ldr	r3, [r4, #8]
    852a:	9300      	str	r3, [sp, #0]
    852c:	e9d4 2300 	ldrd	r2, r3, [r4]
    8530:	4631      	mov	r1, r6
    8532:	4628      	mov	r0, r5
    8534:	f7fa fb24 	bl	2b80 <print_formatted>
		break;
    8538:	e71e      	b.n	8378 <std_print+0x78>
		print_formatted(output, str, args[0], args[1], args[2],
    853a:	6b63      	ldr	r3, [r4, #52]	; 0x34
    853c:	930b      	str	r3, [sp, #44]	; 0x2c
    853e:	6b23      	ldr	r3, [r4, #48]	; 0x30
    8540:	930a      	str	r3, [sp, #40]	; 0x28
    8542:	6ae3      	ldr	r3, [r4, #44]	; 0x2c
    8544:	9309      	str	r3, [sp, #36]	; 0x24
    8546:	6aa3      	ldr	r3, [r4, #40]	; 0x28
    8548:	9308      	str	r3, [sp, #32]
    854a:	6a63      	ldr	r3, [r4, #36]	; 0x24
    854c:	9307      	str	r3, [sp, #28]
    854e:	6a23      	ldr	r3, [r4, #32]
    8550:	9306      	str	r3, [sp, #24]
    8552:	69e3      	ldr	r3, [r4, #28]
    8554:	9305      	str	r3, [sp, #20]
    8556:	69a3      	ldr	r3, [r4, #24]
    8558:	9304      	str	r3, [sp, #16]
    855a:	6963      	ldr	r3, [r4, #20]
    855c:	9303      	str	r3, [sp, #12]
    855e:	6923      	ldr	r3, [r4, #16]
    8560:	9302      	str	r3, [sp, #8]
    8562:	68e3      	ldr	r3, [r4, #12]
    8564:	9301      	str	r3, [sp, #4]
    8566:	68a3      	ldr	r3, [r4, #8]
    8568:	9300      	str	r3, [sp, #0]
    856a:	e9d4 2300 	ldrd	r2, r3, [r4]
    856e:	4631      	mov	r1, r6
    8570:	4628      	mov	r0, r5
    8572:	f7fa fb05 	bl	2b80 <print_formatted>
		break;
    8576:	e6ff      	b.n	8378 <std_print+0x78>
		print_formatted(output, str, args[0], args[1], args[2],
    8578:	6ba3      	ldr	r3, [r4, #56]	; 0x38
    857a:	930c      	str	r3, [sp, #48]	; 0x30
    857c:	6b63      	ldr	r3, [r4, #52]	; 0x34
    857e:	930b      	str	r3, [sp, #44]	; 0x2c
    8580:	6b23      	ldr	r3, [r4, #48]	; 0x30
    8582:	930a      	str	r3, [sp, #40]	; 0x28
    8584:	6ae3      	ldr	r3, [r4, #44]	; 0x2c
    8586:	9309      	str	r3, [sp, #36]	; 0x24
    8588:	6aa3      	ldr	r3, [r4, #40]	; 0x28
    858a:	9308      	str	r3, [sp, #32]
    858c:	6a63      	ldr	r3, [r4, #36]	; 0x24
    858e:	9307      	str	r3, [sp, #28]
    8590:	6a23      	ldr	r3, [r4, #32]
    8592:	9306      	str	r3, [sp, #24]
    8594:	69e3      	ldr	r3, [r4, #28]
    8596:	9305      	str	r3, [sp, #20]
    8598:	69a3      	ldr	r3, [r4, #24]
    859a:	9304      	str	r3, [sp, #16]
    859c:	6963      	ldr	r3, [r4, #20]
    859e:	9303      	str	r3, [sp, #12]
    85a0:	6923      	ldr	r3, [r4, #16]
    85a2:	9302      	str	r3, [sp, #8]
    85a4:	68e3      	ldr	r3, [r4, #12]
    85a6:	9301      	str	r3, [sp, #4]
    85a8:	68a3      	ldr	r3, [r4, #8]
    85aa:	9300      	str	r3, [sp, #0]
    85ac:	e9d4 2300 	ldrd	r2, r3, [r4]
    85b0:	4631      	mov	r1, r6
    85b2:	4628      	mov	r0, r5
    85b4:	f7fa fae4 	bl	2b80 <print_formatted>
}
    85b8:	e6de      	b.n	8378 <std_print+0x78>

000085ba <log_output_flush>:
		     output->control_block->offset,
    85ba:	6842      	ldr	r2, [r0, #4]
	buffer_write(output->func, output->buf,
    85bc:	6881      	ldr	r1, [r0, #8]
{
    85be:	b510      	push	{r4, lr}
    85c0:	4604      	mov	r4, r0
	buffer_write(output->func, output->buf,
    85c2:	e9d2 2300 	ldrd	r2, r3, [r2]
    85c6:	6800      	ldr	r0, [r0, #0]
    85c8:	f7ff fe8d 	bl	82e6 <buffer_write>
	output->control_block->offset = 0;
    85cc:	6863      	ldr	r3, [r4, #4]
    85ce:	2200      	movs	r2, #0
    85d0:	601a      	str	r2, [r3, #0]
}
    85d2:	bd10      	pop	{r4, pc}

000085d4 <out_func>:
{
    85d4:	b538      	push	{r3, r4, r5, lr}
	if (out_ctx->control_block->offset == out_ctx->size) {
    85d6:	684b      	ldr	r3, [r1, #4]
    85d8:	681a      	ldr	r2, [r3, #0]
    85da:	68cb      	ldr	r3, [r1, #12]
    85dc:	429a      	cmp	r2, r3
{
    85de:	4605      	mov	r5, r0
    85e0:	460c      	mov	r4, r1
	if (out_ctx->control_block->offset == out_ctx->size) {
    85e2:	d102      	bne.n	85ea <out_func+0x16>
		log_output_flush(out_ctx);
    85e4:	4608      	mov	r0, r1
    85e6:	f7ff ffe8 	bl	85ba <log_output_flush>
	return __atomic_fetch_add(target, value, __ATOMIC_SEQ_CST);
    85ea:	6863      	ldr	r3, [r4, #4]
    85ec:	f3bf 8f5b 	dmb	ish
    85f0:	e853 2f00 	ldrex	r2, [r3]
    85f4:	1c51      	adds	r1, r2, #1
    85f6:	e843 1000 	strex	r0, r1, [r3]
    85fa:	2800      	cmp	r0, #0
    85fc:	d1f8      	bne.n	85f0 <out_func+0x1c>
    85fe:	f3bf 8f5b 	dmb	ish
	out_ctx->buf[idx] = (uint8_t)c;
    8602:	68a3      	ldr	r3, [r4, #8]
    8604:	549d      	strb	r5, [r3, r2]
}
    8606:	2000      	movs	r0, #0
    8608:	bd38      	pop	{r3, r4, r5, pc}

0000860a <pm_policy_next_state>:
			return pm_min_residency[i];
		}
	}

	LOG_DBG("No suitable power state found!");
	return (struct pm_state_info){PM_STATE_ACTIVE, 0, 0};
    860a:	2200      	movs	r2, #0
    860c:	8002      	strh	r2, [r0, #0]
    860e:	6042      	str	r2, [r0, #4]
}
    8610:	4770      	bx	lr

00008612 <get_status>:
	return GET_STATUS(get_sub_data(dev, type)->flags);
    8612:	6902      	ldr	r2, [r0, #16]
    8614:	b2cb      	uxtb	r3, r1
    8616:	210c      	movs	r1, #12
    8618:	fb03 2101 	mla	r1, r3, r1, r2
    861c:	6c08      	ldr	r0, [r1, #64]	; 0x40
}
    861e:	f000 0007 	and.w	r0, r0, #7
    8622:	4770      	bx	lr

00008624 <set_off_state>:
	__asm__ volatile(
    8624:	f04f 0320 	mov.w	r3, #32
    8628:	f3ef 8211 	mrs	r2, BASEPRI
    862c:	f383 8811 	msr	BASEPRI, r3
    8630:	f3bf 8f6f 	isb	sy
	uint32_t current_ctx = GET_CTX(*flags);
    8634:	6803      	ldr	r3, [r0, #0]
	if ((current_ctx != 0) && (current_ctx != ctx)) {
    8636:	f013 03c0 	ands.w	r3, r3, #192	; 0xc0
    863a:	d001      	beq.n	8640 <set_off_state+0x1c>
    863c:	428b      	cmp	r3, r1
    863e:	d107      	bne.n	8650 <set_off_state+0x2c>
		*flags = CLOCK_CONTROL_STATUS_OFF;
    8640:	2301      	movs	r3, #1
    8642:	6003      	str	r3, [r0, #0]
	int err = 0;
    8644:	2000      	movs	r0, #0
	__asm__ volatile(
    8646:	f382 8811 	msr	BASEPRI, r2
    864a:	f3bf 8f6f 	isb	sy
}
    864e:	4770      	bx	lr
		err = -EPERM;
    8650:	f04f 30ff 	mov.w	r0, #4294967295	; 0xffffffff
    8654:	e7f7      	b.n	8646 <set_off_state+0x22>

00008656 <set_starting_state>:
{
    8656:	b510      	push	{r4, lr}
	__asm__ volatile(
    8658:	f04f 0320 	mov.w	r3, #32
    865c:	f3ef 8211 	mrs	r2, BASEPRI
    8660:	f383 8811 	msr	BASEPRI, r3
    8664:	f3bf 8f6f 	isb	sy
	uint32_t current_ctx = GET_CTX(*flags);
    8668:	6803      	ldr	r3, [r0, #0]
	if ((*flags & (STATUS_MASK)) == CLOCK_CONTROL_STATUS_OFF) {
    866a:	f003 0407 	and.w	r4, r3, #7
    866e:	2c01      	cmp	r4, #1
    8670:	d106      	bne.n	8680 <set_starting_state+0x2a>
		*flags = CLOCK_CONTROL_STATUS_STARTING | ctx;
    8672:	6001      	str	r1, [r0, #0]
	int err = 0;
    8674:	2000      	movs	r0, #0
	__asm__ volatile(
    8676:	f382 8811 	msr	BASEPRI, r2
    867a:	f3bf 8f6f 	isb	sy
}
    867e:	bd10      	pop	{r4, pc}
	uint32_t current_ctx = GET_CTX(*flags);
    8680:	f003 03c0 	and.w	r3, r3, #192	; 0xc0
	} else if (current_ctx != ctx) {
    8684:	428b      	cmp	r3, r1
		err = -EALREADY;
    8686:	bf14      	ite	ne
    8688:	f04f 30ff 	movne.w	r0, #4294967295	; 0xffffffff
    868c:	f06f 0077 	mvneq.w	r0, #119	; 0x77
    8690:	e7f1      	b.n	8676 <set_starting_state+0x20>

00008692 <set_on_state>:
	__asm__ volatile(
    8692:	f04f 0320 	mov.w	r3, #32
    8696:	f3ef 8211 	mrs	r2, BASEPRI
    869a:	f383 8811 	msr	BASEPRI, r3
    869e:	f3bf 8f6f 	isb	sy
	*flags = CLOCK_CONTROL_STATUS_ON | GET_CTX(*flags);
    86a2:	6803      	ldr	r3, [r0, #0]
    86a4:	f003 03c0 	and.w	r3, r3, #192	; 0xc0
    86a8:	f043 0302 	orr.w	r3, r3, #2
    86ac:	6003      	str	r3, [r0, #0]
	__asm__ volatile(
    86ae:	f382 8811 	msr	BASEPRI, r2
    86b2:	f3bf 8f6f 	isb	sy
}
    86b6:	4770      	bx	lr

000086b8 <onoff_started_callback>:
	return &data->mgr[type];
    86b8:	6900      	ldr	r0, [r0, #16]
{
    86ba:	b410      	push	{r4}
	return &data->mgr[type];
    86bc:	b2cb      	uxtb	r3, r1
	notify(mgr, 0);
    86be:	241c      	movs	r4, #28
    86c0:	fb03 0004 	mla	r0, r3, r4, r0
    86c4:	2100      	movs	r1, #0
}
    86c6:	bc10      	pop	{r4}
	notify(mgr, 0);
    86c8:	4710      	bx	r2

000086ca <lfclk_start>:
    nrfx_clock_start(NRF_CLOCK_DOMAIN_LFCLK);
    86ca:	2000      	movs	r0, #0
    86cc:	f7fd bdc0 	b.w	6250 <nrfx_clock_start>

000086d0 <lfclk_stop>:
    nrfx_clock_stop(NRF_CLOCK_DOMAIN_LFCLK);
    86d0:	2000      	movs	r0, #0
    86d2:	f7fd bdef 	b.w	62b4 <nrfx_clock_stop>

000086d6 <blocking_start_callback>:
{
    86d6:	4610      	mov	r0, r2
	z_impl_k_sem_give(sem);
    86d8:	f7fe be4e 	b.w	7378 <z_impl_k_sem_give>

000086dc <api_stop>:
{
    86dc:	b538      	push	{r3, r4, r5, lr}
    86de:	b2c9      	uxtb	r1, r1
	err = set_off_state(&subdata->flags, ctx);
    86e0:	240c      	movs	r4, #12
    86e2:	434c      	muls	r4, r1
{
    86e4:	4605      	mov	r5, r0
	err = set_off_state(&subdata->flags, ctx);
    86e6:	6900      	ldr	r0, [r0, #16]
    86e8:	f104 0340 	add.w	r3, r4, #64	; 0x40
    86ec:	2180      	movs	r1, #128	; 0x80
    86ee:	4418      	add	r0, r3
    86f0:	f7ff ff98 	bl	8624 <set_off_state>
	if (err < 0) {
    86f4:	2800      	cmp	r0, #0
    86f6:	db04      	blt.n	8702 <api_stop+0x26>
	get_sub_config(dev, type)->stop();
    86f8:	6869      	ldr	r1, [r5, #4]
    86fa:	440c      	add	r4, r1
    86fc:	6863      	ldr	r3, [r4, #4]
    86fe:	4798      	blx	r3
	return 0;
    8700:	2000      	movs	r0, #0
}
    8702:	bd38      	pop	{r3, r4, r5, pc}

00008704 <api_start>:
{
    8704:	e92d 41f0 	stmdb	sp!, {r4, r5, r6, r7, r8, lr}
    8708:	b2c9      	uxtb	r1, r1
	err = set_starting_state(&subdata->flags, ctx);
    870a:	240c      	movs	r4, #12
	struct nrf_clock_control_sub_data *subdata = get_sub_data(dev, type);
    870c:	6905      	ldr	r5, [r0, #16]
	err = set_starting_state(&subdata->flags, ctx);
    870e:	434c      	muls	r4, r1
{
    8710:	4606      	mov	r6, r0
	err = set_starting_state(&subdata->flags, ctx);
    8712:	f104 0040 	add.w	r0, r4, #64	; 0x40
    8716:	2180      	movs	r1, #128	; 0x80
    8718:	4428      	add	r0, r5
{
    871a:	4690      	mov	r8, r2
    871c:	461f      	mov	r7, r3
	err = set_starting_state(&subdata->flags, ctx);
    871e:	f7ff ff9a 	bl	8656 <set_starting_state>
	if (err < 0) {
    8722:	2800      	cmp	r0, #0
    8724:	db06      	blt.n	8734 <api_start+0x30>
	subdata->cb = cb;
    8726:	4425      	add	r5, r4
	subdata->user_data = user_data;
    8728:	e9c5 870e 	strd	r8, r7, [r5, #56]	; 0x38
	 get_sub_config(dev, type)->start();
    872c:	6873      	ldr	r3, [r6, #4]
    872e:	591b      	ldr	r3, [r3, r4]
    8730:	4798      	blx	r3
	return 0;
    8732:	2000      	movs	r0, #0
}
    8734:	e8bd 81f0 	ldmia.w	sp!, {r4, r5, r6, r7, r8, pc}

00008738 <sys_clock_isr>:
/* Weak-linked noop defaults for optional driver interfaces*/

void __weak sys_clock_isr(void *arg)
{
	__ASSERT_NO_MSG(false);
}
    8738:	4770      	bx	lr

0000873a <sys_clock_idle_exit>:
{
}

void __weak sys_clock_idle_exit(void)
{
}
    873a:	4770      	bx	lr

0000873c <_GetAvailWriteSpace>:
  RdOff = pRing->RdOff;
    873c:	6903      	ldr	r3, [r0, #16]
  WrOff = pRing->WrOff;
    873e:	68c1      	ldr	r1, [r0, #12]
  if (RdOff <= WrOff) {
    8740:	428b      	cmp	r3, r1
    r = pRing->SizeOfBuffer - 1u - WrOff + RdOff;
    8742:	bf9d      	ittte	ls
    8744:	6882      	ldrls	r2, [r0, #8]
    8746:	18d2      	addls	r2, r2, r3
    8748:	f102 32ff 	addls.w	r2, r2, #4294967295	; 0xffffffff
    r = RdOff - WrOff - 1u;
    874c:	f103 33ff 	addhi.w	r3, r3, #4294967295	; 0xffffffff
    r = pRing->SizeOfBuffer - 1u - WrOff + RdOff;
    8750:	bf94      	ite	ls
    8752:	1a50      	subls	r0, r2, r1
    r = RdOff - WrOff - 1u;
    8754:	1a58      	subhi	r0, r3, r1
}
    8756:	4770      	bx	lr

00008758 <_WriteNoCheck>:
static void _WriteNoCheck(SEGGER_RTT_BUFFER_UP* pRing, const char* pData, unsigned NumBytes) {
    8758:	e92d 43f8 	stmdb	sp!, {r3, r4, r5, r6, r7, r8, r9, lr}
  Rem = pRing->SizeOfBuffer - WrOff;
    875c:	e9d0 9402 	ldrd	r9, r4, [r0, #8]
static void _WriteNoCheck(SEGGER_RTT_BUFFER_UP* pRing, const char* pData, unsigned NumBytes) {
    8760:	4605      	mov	r5, r0
  Rem = pRing->SizeOfBuffer - WrOff;
    8762:	eba9 0804 	sub.w	r8, r9, r4
    8766:	6840      	ldr	r0, [r0, #4]
  if (Rem > NumBytes) {
    8768:	4590      	cmp	r8, r2
    876a:	4420      	add	r0, r4
static void _WriteNoCheck(SEGGER_RTT_BUFFER_UP* pRing, const char* pData, unsigned NumBytes) {
    876c:	460f      	mov	r7, r1
  if (Rem > NumBytes) {
    876e:	4414      	add	r4, r2
    8770:	d904      	bls.n	877c <_WriteNoCheck+0x24>
    8772:	f000 fccd 	bl	9110 <memcpy>
    pRing->WrOff = NumBytesAtOnce;
    8776:	60ec      	str	r4, [r5, #12]
}
    8778:	e8bd 83f8 	ldmia.w	sp!, {r3, r4, r5, r6, r7, r8, r9, pc}
    877c:	4642      	mov	r2, r8
    NumBytesAtOnce = NumBytes - Rem;
    877e:	eba4 0409 	sub.w	r4, r4, r9
    8782:	f000 fcc5 	bl	9110 <memcpy>
    8786:	6868      	ldr	r0, [r5, #4]
    8788:	4622      	mov	r2, r4
    878a:	eb07 0108 	add.w	r1, r7, r8
    878e:	e7f0      	b.n	8772 <_WriteNoCheck+0x1a>

00008790 <_WriteBlocking>:
static unsigned _WriteBlocking(SEGGER_RTT_BUFFER_UP* pRing, const char* pBuffer, unsigned NumBytes) {
    8790:	e92d 43f8 	stmdb	sp!, {r3, r4, r5, r6, r7, r8, r9, lr}
  WrOff = pRing->WrOff;
    8794:	68c5      	ldr	r5, [r0, #12]
static unsigned _WriteBlocking(SEGGER_RTT_BUFFER_UP* pRing, const char* pBuffer, unsigned NumBytes) {
    8796:	4606      	mov	r6, r0
    8798:	4689      	mov	r9, r1
    879a:	4617      	mov	r7, r2
  NumBytesWritten = 0u;
    879c:	f04f 0800 	mov.w	r8, #0
    RdOff = pRing->RdOff;                         // May be changed by host (debug probe) in the meantime
    87a0:	6934      	ldr	r4, [r6, #16]
    if (RdOff > WrOff) {
    87a2:	68b3      	ldr	r3, [r6, #8]
    SEGGER_RTT_MEMCPY(pRing->pBuffer + WrOff, pBuffer, NumBytesToWrite);
    87a4:	6870      	ldr	r0, [r6, #4]
    if (RdOff > WrOff) {
    87a6:	42a5      	cmp	r5, r4
      NumBytesToWrite = pRing->SizeOfBuffer - (WrOff - RdOff + 1u);
    87a8:	bf28      	it	cs
    87aa:	18e4      	addcs	r4, r4, r3
    87ac:	3c01      	subs	r4, #1
    87ae:	1b62      	subs	r2, r4, r5
    NumBytesToWrite = MIN(NumBytesToWrite, (pRing->SizeOfBuffer - WrOff));      // Number of bytes that can be written until buffer wrap-around
    87b0:	1b5c      	subs	r4, r3, r5
    NumBytesToWrite = MIN(NumBytesToWrite, NumBytes);
    87b2:	42bc      	cmp	r4, r7
    87b4:	bf28      	it	cs
    87b6:	463c      	movcs	r4, r7
    87b8:	4294      	cmp	r4, r2
    87ba:	bf28      	it	cs
    87bc:	4614      	movcs	r4, r2
    87be:	4649      	mov	r1, r9
    87c0:	4428      	add	r0, r5
    87c2:	4622      	mov	r2, r4
    87c4:	f000 fca4 	bl	9110 <memcpy>
    if (WrOff == pRing->SizeOfBuffer) {
    87c8:	68b3      	ldr	r3, [r6, #8]
    WrOff           += NumBytesToWrite;
    87ca:	4425      	add	r5, r4
      WrOff = 0u;
    87cc:	42ab      	cmp	r3, r5
    87ce:	bf08      	it	eq
    87d0:	2500      	moveq	r5, #0
  } while (NumBytes);
    87d2:	1b3f      	subs	r7, r7, r4
    NumBytesWritten += NumBytesToWrite;
    87d4:	44a0      	add	r8, r4
    pBuffer         += NumBytesToWrite;
    87d6:	44a1      	add	r9, r4
    pRing->WrOff = WrOff;
    87d8:	60f5      	str	r5, [r6, #12]
  } while (NumBytes);
    87da:	d1e1      	bne.n	87a0 <_WriteBlocking+0x10>
}
    87dc:	4640      	mov	r0, r8
    87de:	e8bd 83f8 	ldmia.w	sp!, {r3, r4, r5, r6, r7, r8, r9, pc}

000087e2 <SEGGER_RTT_Init>:
*    Initializes the RTT Control Block.
*    Should be used in RAM targets, at start of the application.
*
*/
void SEGGER_RTT_Init (void) {
  _DoInit();
    87e2:	f7fa bf81 	b.w	36e8 <_DoInit>

000087e6 <rtt_init>:
 */

K_MUTEX_DEFINE(rtt_term_mutex);

static int rtt_init(const struct device *unused)
{
    87e6:	b508      	push	{r3, lr}
	ARG_UNUSED(unused);

	SEGGER_RTT_Init();
    87e8:	f7ff fffb 	bl	87e2 <SEGGER_RTT_Init>

	return 0;
}
    87ec:	2000      	movs	r0, #0
    87ee:	bd08      	pop	{r3, pc}

000087f0 <z_irq_spurious>:
 */
void z_irq_spurious(const void *unused)
{
	ARG_UNUSED(unused);

	z_arm_fatal_error(K_ERR_SPURIOUS_IRQ, NULL);
    87f0:	2100      	movs	r1, #0
    87f2:	2001      	movs	r0, #1
    87f4:	f7fb b908 	b.w	3a08 <z_arm_fatal_error>

000087f8 <z_do_kernel_oops>:
 *   fault handler will executed insted of the SVC.
 *
 * @param esf exception frame
 */
void z_do_kernel_oops(const z_arch_esf_t *esf)
{
    87f8:	4601      	mov	r1, r0
	}

#endif /* CONFIG_USERSPACE */

#if !defined(CONFIG_EXTRA_EXCEPTION_INFO)
	z_arm_fatal_error(reason, esf);
    87fa:	6800      	ldr	r0, [r0, #0]
    87fc:	f7fb b904 	b.w	3a08 <z_arm_fatal_error>

00008800 <z_arm_nmi>:
 *
 * @return N/A
 */

void z_arm_nmi(void)
{
    8800:	b508      	push	{r3, lr}
	handler();
    8802:	f7fb f939 	bl	3a78 <z_SysNmiOnReset>
	z_arm_int_exit();
}
    8806:	e8bd 4008 	ldmia.w	sp!, {r3, lr}
	z_arm_int_exit();
    880a:	f7fb bbab 	b.w	3f64 <z_arm_exc_exit>

0000880e <_stdout_hook_default>:
}
    880e:	f04f 30ff 	mov.w	r0, #4294967295	; 0xffffffff
    8812:	4770      	bx	lr

00008814 <z_platform_init>:

void z_platform_init(void)
{
	SystemInit();
    8814:	f7fd bc3c 	b.w	6090 <SystemInit>

00008818 <pm_power_state_set>:
#include <logging/log.h>
LOG_MODULE_DECLARE(soc, CONFIG_SOC_LOG_LEVEL);

/* Invoke Low Power/System Off specific Tasks */
void pm_power_state_set(struct pm_state_info info)
{
    8818:	b082      	sub	sp, #8
    881a:	ab02      	add	r3, sp, #8
    881c:	e903 0003 	stmdb	r3, {r0, r1}
	switch (info.state) {
    8820:	f89d 3000 	ldrb.w	r3, [sp]
    8824:	2b06      	cmp	r3, #6
    8826:	d108      	bne.n	883a <pm_power_state_set+0x22>
    p_reg->SYSTEMOFF = POWER_SYSTEMOFF_SYSTEMOFF_Enter;
    8828:	f04f 4380 	mov.w	r3, #1073741824	; 0x40000000
    882c:	2201      	movs	r2, #1
    882e:	f8c3 2500 	str.w	r2, [r3, #1280]	; 0x500
  __ASM volatile ("dsb 0xF":::"memory");
    8832:	f3bf 8f4f 	dsb	sy
        __WFE();
    8836:	bf20      	wfe
    while (true)
    8838:	e7fd      	b.n	8836 <pm_power_state_set+0x1e>
		break;
	default:
		LOG_DBG("Unsupported power state %u", info.state);
		break;
	}
}
    883a:	b002      	add	sp, #8
    883c:	4770      	bx	lr

0000883e <pm_power_state_exit_post_ops>:

/* Handle SOC specific activity after Low Power Mode Exit */
void pm_power_state_exit_post_ops(struct pm_state_info info)
{
    883e:	b082      	sub	sp, #8
    8840:	ab02      	add	r3, sp, #8
    8842:	e903 0003 	stmdb	r3, {r0, r1}
    8846:	2300      	movs	r3, #0
    8848:	f383 8811 	msr	BASEPRI, r3
    884c:	f3bf 8f6f 	isb	sy
	/*
	 * System is now in active mode. Reenable interrupts which were disabled
	 * when OS started idling code.
	 */
	irq_unlock(0);
}
    8850:	b002      	add	sp, #8
    8852:	4770      	bx	lr

00008854 <gpio_fire_callbacks>:
 * @param pins The actual pin mask that triggered the interrupt
 */
static inline void gpio_fire_callbacks(sys_slist_t *list,
					const struct device *port,
					uint32_t pins)
{
    8854:	b570      	push	{r4, r5, r6, lr}
    8856:	460e      	mov	r6, r1
	struct gpio_callback *cb, *tmp;

	SYS_SLIST_FOR_EACH_CONTAINER_SAFE(list, cb, tmp, node) {
    8858:	6801      	ldr	r1, [r0, #0]
{
    885a:	4615      	mov	r5, r2
	SYS_SLIST_FOR_EACH_CONTAINER_SAFE(list, cb, tmp, node) {
    885c:	b189      	cbz	r1, 8882 <gpio_fire_callbacks+0x2e>
	return node->next;
    885e:	680c      	ldr	r4, [r1, #0]
    8860:	2c00      	cmp	r4, #0
    8862:	bf38      	it	cc
    8864:	2400      	movcc	r4, #0
		if (cb->pin_mask & pins) {
    8866:	688a      	ldr	r2, [r1, #8]
    8868:	402a      	ands	r2, r5
    886a:	d002      	beq.n	8872 <gpio_fire_callbacks+0x1e>
			__ASSERT(cb->handler, "No callback handler!");
			cb->handler(port, cb, cb->pin_mask & pins);
    886c:	684b      	ldr	r3, [r1, #4]
    886e:	4630      	mov	r0, r6
    8870:	4798      	blx	r3
	SYS_SLIST_FOR_EACH_CONTAINER_SAFE(list, cb, tmp, node) {
    8872:	b134      	cbz	r4, 8882 <gpio_fire_callbacks+0x2e>
    8874:	6823      	ldr	r3, [r4, #0]
    8876:	2b00      	cmp	r3, #0
    8878:	bf38      	it	cc
    887a:	2300      	movcc	r3, #0
Z_GENLIST_PEEK_NEXT_NO_CHECK(slist, snode)
    887c:	4621      	mov	r1, r4
    887e:	461c      	mov	r4, r3
    8880:	e7f1      	b.n	8866 <gpio_fire_callbacks+0x12>
		}
	}
}
    8882:	bd70      	pop	{r4, r5, r6, pc}

00008884 <gpio_nrfx_port_get_raw>:
	NRF_GPIO_Type *reg = get_port_cfg(port)->port;
    8884:	6843      	ldr	r3, [r0, #4]
    8886:	685b      	ldr	r3, [r3, #4]
    return p_reg->IN;
    8888:	f8d3 3510 	ldr.w	r3, [r3, #1296]	; 0x510
	*value = nrf_gpio_port_in_read(reg);
    888c:	600b      	str	r3, [r1, #0]
}
    888e:	2000      	movs	r0, #0
    8890:	4770      	bx	lr

00008892 <gpio_nrfx_port_set_masked_raw>:
	NRF_GPIO_Type *reg = get_port_cfg(port)->port;
    8892:	6843      	ldr	r3, [r0, #4]
    8894:	685b      	ldr	r3, [r3, #4]
    return p_reg->OUT;
    8896:	f8d3 0504 	ldr.w	r0, [r3, #1284]	; 0x504
	nrf_gpio_port_out_write(reg, value_tmp | (mask & value));
    889a:	4042      	eors	r2, r0
    889c:	400a      	ands	r2, r1
    889e:	4042      	eors	r2, r0
    p_reg->OUT = value;
    88a0:	f8c3 2504 	str.w	r2, [r3, #1284]	; 0x504
}
    88a4:	2000      	movs	r0, #0
    88a6:	4770      	bx	lr

000088a8 <gpio_nrfx_port_set_bits_raw>:
	NRF_GPIO_Type *reg = get_port_cfg(port)->port;
    88a8:	6843      	ldr	r3, [r0, #4]
    88aa:	685b      	ldr	r3, [r3, #4]
}
    88ac:	2000      	movs	r0, #0
    p_reg->OUTSET = set_mask;
    88ae:	f8c3 1508 	str.w	r1, [r3, #1288]	; 0x508
    88b2:	4770      	bx	lr

000088b4 <gpio_nrfx_port_clear_bits_raw>:
	NRF_GPIO_Type *reg = get_port_cfg(port)->port;
    88b4:	6843      	ldr	r3, [r0, #4]
    88b6:	685b      	ldr	r3, [r3, #4]
}
    88b8:	2000      	movs	r0, #0
    p_reg->OUTCLR = clr_mask;
    88ba:	f8c3 150c 	str.w	r1, [r3, #1292]	; 0x50c
    88be:	4770      	bx	lr

000088c0 <gpio_nrfx_port_toggle_bits>:
	NRF_GPIO_Type *reg = get_port_cfg(port)->port;
    88c0:	6843      	ldr	r3, [r0, #4]
    88c2:	685a      	ldr	r2, [r3, #4]
    return p_reg->OUT;
    88c4:	f8d2 3504 	ldr.w	r3, [r2, #1284]	; 0x504
	nrf_gpio_port_out_write(reg, value ^ mask);
    88c8:	404b      	eors	r3, r1
    p_reg->OUT = value;
    88ca:	f8c2 3504 	str.w	r3, [r2, #1284]	; 0x504
}
    88ce:	2000      	movs	r0, #0
    88d0:	4770      	bx	lr

000088d2 <gpio_nrfx_manage_callback>:
	return gpio_manage_callback(&get_port_data(port)->callbacks,
    88d2:	6903      	ldr	r3, [r0, #16]
Z_GENLIST_IS_EMPTY(slist)
    88d4:	6858      	ldr	r0, [r3, #4]
{
    88d6:	b530      	push	{r4, r5, lr}
	if (!sys_slist_is_empty(callbacks)) {
    88d8:	b158      	cbz	r0, 88f2 <gpio_nrfx_manage_callback+0x20>
 * @return true if node was removed
 */
static inline bool sys_slist_find_and_remove(sys_slist_t *list,
					     sys_snode_t *node);

Z_GENLIST_FIND_AND_REMOVE(slist, snode)
    88da:	2400      	movs	r4, #0
    88dc:	4281      	cmp	r1, r0
    88de:	d113      	bne.n	8908 <gpio_nrfx_manage_callback+0x36>
Z_GENLIST_REMOVE(slist, snode)
    88e0:	6808      	ldr	r0, [r1, #0]
    88e2:	b95c      	cbnz	r4, 88fc <gpio_nrfx_manage_callback+0x2a>
    88e4:	689c      	ldr	r4, [r3, #8]
	list->head = node;
    88e6:	6058      	str	r0, [r3, #4]
Z_GENLIST_REMOVE(slist, snode)
    88e8:	42a1      	cmp	r1, r4
    88ea:	d100      	bne.n	88ee <gpio_nrfx_manage_callback+0x1c>
	list->tail = node;
    88ec:	6098      	str	r0, [r3, #8]
	parent->next = child;
    88ee:	2000      	movs	r0, #0
    88f0:	6008      	str	r0, [r1, #0]
	if (set) {
    88f2:	b972      	cbnz	r2, 8912 <gpio_nrfx_manage_callback+0x40>
	return 0;
    88f4:	2000      	movs	r0, #0
}
    88f6:	bd30      	pop	{r4, r5, pc}
    88f8:	4628      	mov	r0, r5
    88fa:	e7ef      	b.n	88dc <gpio_nrfx_manage_callback+0xa>
    88fc:	6020      	str	r0, [r4, #0]
Z_GENLIST_REMOVE(slist, snode)
    88fe:	6898      	ldr	r0, [r3, #8]
    8900:	4281      	cmp	r1, r0
	list->tail = node;
    8902:	bf08      	it	eq
    8904:	609c      	streq	r4, [r3, #8]
}
    8906:	e7f2      	b.n	88ee <gpio_nrfx_manage_callback+0x1c>
Z_GENLIST_PEEK_NEXT_NO_CHECK(slist, snode)
    8908:	6805      	ldr	r5, [r0, #0]
Z_GENLIST_FIND_AND_REMOVE(slist, snode)
    890a:	4604      	mov	r4, r0
    890c:	2d00      	cmp	r5, #0
    890e:	d1f3      	bne.n	88f8 <gpio_nrfx_manage_callback+0x26>
			if (!set) {
    8910:	b13a      	cbz	r2, 8922 <gpio_nrfx_manage_callback+0x50>
Z_GENLIST_PREPEND(slist, snode)
    8912:	685a      	ldr	r2, [r3, #4]
	parent->next = child;
    8914:	600a      	str	r2, [r1, #0]
Z_GENLIST_PREPEND(slist, snode)
    8916:	6898      	ldr	r0, [r3, #8]
	list->head = node;
    8918:	6059      	str	r1, [r3, #4]
Z_GENLIST_PREPEND(slist, snode)
    891a:	2800      	cmp	r0, #0
    891c:	d1ea      	bne.n	88f4 <gpio_nrfx_manage_callback+0x22>
	list->tail = node;
    891e:	6099      	str	r1, [r3, #8]
}
    8920:	e7e9      	b.n	88f6 <gpio_nrfx_manage_callback+0x24>
				return -EINVAL;
    8922:	f06f 0015 	mvn.w	r0, #21
	return gpio_manage_callback(&get_port_data(port)->callbacks,
    8926:	e7e6      	b.n	88f6 <gpio_nrfx_manage_callback+0x24>

00008928 <cfg_level_pins>:
{
    8928:	e92d 41f0 	stmdb	sp!, {r4, r5, r6, r7, r8, lr}
	const struct gpio_nrfx_data *data = get_port_data(port);
    892c:	6907      	ldr	r7, [r0, #16]
	const struct gpio_nrfx_cfg *cfg = get_port_cfg(port);
    892e:	f8d0 8004 	ldr.w	r8, [r0, #4]
	uint32_t out = data->pin_int_en;
    8932:	68fc      	ldr	r4, [r7, #12]
	out &= ~data->trig_edge & ~data->double_edge;
    8934:	e9d7 3205 	ldrd	r3, r2, [r7, #20]
    8938:	4313      	orrs	r3, r2
    893a:	ea24 0403 	bic.w	r4, r4, r3
	uint32_t bit = 1U << pin;
    893e:	2601      	movs	r6, #1
	uint32_t pin = 0U;
    8940:	2500      	movs	r5, #0
	while (level_pins) {
    8942:	b90c      	cbnz	r4, 8948 <cfg_level_pins+0x20>
}
    8944:	e8bd 81f0 	ldmia.w	sp!, {r4, r5, r6, r7, r8, pc}
		if (level_pins & bit) {
    8948:	4226      	tst	r6, r4
    894a:	d010      	beq.n	896e <cfg_level_pins+0x46>
	if ((BIT(pin) & data->int_active_level) != 0U) {
    894c:	6939      	ldr	r1, [r7, #16]
			uint32_t abs_pin = NRF_GPIO_PIN_MAP(cfg->port_num, pin);
    894e:	f898 3008 	ldrb.w	r3, [r8, #8]
	if ((BIT(pin) & data->int_active_level) != 0U) {
    8952:	40e9      	lsrs	r1, r5
    8954:	f001 0101 	and.w	r1, r1, #1
    8958:	f1c1 0103 	rsb	r1, r1, #3
			uint32_t abs_pin = NRF_GPIO_PIN_MAP(cfg->port_num, pin);
    895c:	f005 001f 	and.w	r0, r5, #31
			nrf_gpio_cfg_sense_set(abs_pin, sense);
    8960:	b2c9      	uxtb	r1, r1
    8962:	ea40 1043 	orr.w	r0, r0, r3, lsl #5
    8966:	f7fb fc7b 	bl	4260 <nrf_gpio_cfg_sense_set>
			level_pins &= ~bit;
    896a:	ea24 0406 	bic.w	r4, r4, r6
		++pin;
    896e:	3501      	adds	r5, #1
		bit <<= 1;
    8970:	0076      	lsls	r6, r6, #1
    8972:	e7e6      	b.n	8942 <cfg_level_pins+0x1a>

00008974 <gpio_pin_set>:
	if (data->invert & (gpio_port_pins_t)BIT(pin)) {
    8974:	2301      	movs	r3, #1
    8976:	fa03 f101 	lsl.w	r1, r3, r1
    897a:	6903      	ldr	r3, [r0, #16]
    897c:	681b      	ldr	r3, [r3, #0]
    897e:	4219      	tst	r1, r3
		value = (value != 0) ? 0 : 1;
    8980:	bf18      	it	ne
    8982:	f082 0201 	eorne.w	r2, r2, #1
	if (value != 0)	{
    8986:	b112      	cbz	r2, 898e <gpio_pin_set+0x1a>
	return api->port_set_bits_raw(port, pins);
    8988:	6883      	ldr	r3, [r0, #8]
    898a:	68db      	ldr	r3, [r3, #12]
	return api->port_clear_bits_raw(port, pins);
    898c:	4718      	bx	r3
    898e:	6883      	ldr	r3, [r0, #8]
    8990:	691b      	ldr	r3, [r3, #16]
    8992:	e7fb      	b.n	898c <gpio_pin_set+0x18>

00008994 <_spi_context_cs_control.isra.0>:
static inline void _spi_context_cs_control(struct spi_context *ctx,
    8994:	b538      	push	{r3, r4, r5, lr}
	if (ctx->config && ctx->config->cs && ctx->config->cs->gpio_dev) {
    8996:	6805      	ldr	r5, [r0, #0]
static inline void _spi_context_cs_control(struct spi_context *ctx,
    8998:	4604      	mov	r4, r0
	if (ctx->config && ctx->config->cs && ctx->config->cs->gpio_dev) {
    899a:	b1fd      	cbz	r5, 89dc <_spi_context_cs_control.isra.0+0x48>
    899c:	68ab      	ldr	r3, [r5, #8]
    899e:	b1eb      	cbz	r3, 89dc <_spi_context_cs_control.isra.0+0x48>
    89a0:	6818      	ldr	r0, [r3, #0]
    89a2:	b1d8      	cbz	r0, 89dc <_spi_context_cs_control.isra.0+0x48>
		if (on) {
    89a4:	b151      	cbz	r1, 89bc <_spi_context_cs_control.isra.0+0x28>
			gpio_pin_set(ctx->config->cs->gpio_dev,
    89a6:	7a19      	ldrb	r1, [r3, #8]
    89a8:	2201      	movs	r2, #1
    89aa:	f7ff ffe3 	bl	8974 <gpio_pin_set>
			k_busy_wait(ctx->config->cs->delay);
    89ae:	6823      	ldr	r3, [r4, #0]
    89b0:	689b      	ldr	r3, [r3, #8]
    89b2:	6858      	ldr	r0, [r3, #4]
}
    89b4:	e8bd 4038 	ldmia.w	sp!, {r3, r4, r5, lr}
	z_impl_k_busy_wait(usec_to_wait);
    89b8:	f000 bb02 	b.w	8fc0 <z_impl_k_busy_wait>
			if (!force_off &&
    89bc:	b912      	cbnz	r2, 89c4 <_spi_context_cs_control.isra.0+0x30>
    89be:	88aa      	ldrh	r2, [r5, #4]
    89c0:	0492      	lsls	r2, r2, #18
    89c2:	d40b      	bmi.n	89dc <_spi_context_cs_control.isra.0+0x48>
			k_busy_wait(ctx->config->cs->delay);
    89c4:	6858      	ldr	r0, [r3, #4]
    89c6:	f000 fafb 	bl	8fc0 <z_impl_k_busy_wait>
			gpio_pin_set(ctx->config->cs->gpio_dev,
    89ca:	6823      	ldr	r3, [r4, #0]
    89cc:	689b      	ldr	r3, [r3, #8]
    89ce:	2200      	movs	r2, #0
    89d0:	7a19      	ldrb	r1, [r3, #8]
    89d2:	6818      	ldr	r0, [r3, #0]
}
    89d4:	e8bd 4038 	ldmia.w	sp!, {r3, r4, r5, lr}
			gpio_pin_set(ctx->config->cs->gpio_dev,
    89d8:	f7ff bfcc 	b.w	8974 <gpio_pin_set>
}
    89dc:	bd38      	pop	{r3, r4, r5, pc}

000089de <spi_context_unlock_unconditionally>:
{
    89de:	b510      	push	{r4, lr}
	_spi_context_cs_control(ctx, false, true);
    89e0:	2201      	movs	r2, #1
    89e2:	2100      	movs	r1, #0
{
    89e4:	4604      	mov	r4, r0
	_spi_context_cs_control(ctx, false, true);
    89e6:	f7ff ffd5 	bl	8994 <_spi_context_cs_control.isra.0>
	if (!k_sem_count_get(&ctx->lock)) {
    89ea:	6923      	ldr	r3, [r4, #16]
    89ec:	b933      	cbnz	r3, 89fc <spi_context_unlock_unconditionally+0x1e>
		ctx->owner = NULL;
    89ee:	6063      	str	r3, [r4, #4]
	z_impl_k_sem_give(sem);
    89f0:	f104 0008 	add.w	r0, r4, #8
}
    89f4:	e8bd 4010 	ldmia.w	sp!, {r4, lr}
    89f8:	f7fe bcbe 	b.w	7378 <z_impl_k_sem_give>
    89fc:	bd10      	pop	{r4, pc}

000089fe <spi_nrfx_release>:
	struct spi_nrfx_data *dev_data = get_dev_data(dev);
    89fe:	6900      	ldr	r0, [r0, #16]
	if (!spi_context_configured(&dev_data->ctx, spi_cfg)) {
    8a00:	6803      	ldr	r3, [r0, #0]
    8a02:	428b      	cmp	r3, r1
{
    8a04:	b510      	push	{r4, lr}
	if (!spi_context_configured(&dev_data->ctx, spi_cfg)) {
    8a06:	d106      	bne.n	8a16 <spi_nrfx_release+0x18>
	if (dev_data->busy) {
    8a08:	f890 4054 	ldrb.w	r4, [r0, #84]	; 0x54
    8a0c:	b934      	cbnz	r4, 8a1c <spi_nrfx_release+0x1e>
	spi_context_unlock_unconditionally(&dev_data->ctx);
    8a0e:	f7ff ffe6 	bl	89de <spi_context_unlock_unconditionally>
	return 0;
    8a12:	4620      	mov	r0, r4
}
    8a14:	bd10      	pop	{r4, pc}
		return -EINVAL;
    8a16:	f06f 0015 	mvn.w	r0, #21
    8a1a:	e7fb      	b.n	8a14 <spi_nrfx_release+0x16>
		return -EBUSY;
    8a1c:	f06f 000f 	mvn.w	r0, #15
    8a20:	e7f8      	b.n	8a14 <spi_nrfx_release+0x16>

00008a22 <timer_work_handler>:
	TimerIrqHandler();
    8a22:	f7fd b95f 	b.w	5ce4 <TimerIrqHandler>

00008a26 <k_uptime_get>:
{
    8a26:	b510      	push	{r4, lr}
	return z_impl_k_uptime_ticks();
    8a28:	f000 fb46 	bl	90b8 <z_impl_k_uptime_ticks>
    8a2c:	f44f 747a 	mov.w	r4, #1000	; 0x3e8
    8a30:	fba0 2304 	umull	r2, r3, r0, r4
    8a34:	fb04 3301 	mla	r3, r4, r1, r3
    8a38:	0bd0      	lsrs	r0, r2, #15
}
    8a3a:	ea40 4043 	orr.w	r0, r0, r3, lsl #17
    8a3e:	0bd9      	lsrs	r1, r3, #15
    8a40:	bd10      	pop	{r4, pc}

00008a42 <RtcGetTimerValue>:
{
    8a42:	b508      	push	{r3, lr}
	return (uint32_t)k_uptime_get();
    8a44:	f7ff ffef 	bl	8a26 <k_uptime_get>
}
    8a48:	bd08      	pop	{r3, pc}

00008a4a <RtcGetMinimumTimeout>:
}
    8a4a:	2001      	movs	r0, #1
    8a4c:	4770      	bx	lr

00008a4e <DelayMsMcu>:

void DelayMsMcu(uint32_t ms)
{
    8a4e:	b538      	push	{r3, r4, r5, lr}
    8a50:	f44f 4100 	mov.w	r1, #32768	; 0x8000
    8a54:	f240 34e7 	movw	r4, #999	; 0x3e7
    8a58:	2500      	movs	r5, #0
    8a5a:	fbe1 4500 	umlal	r4, r5, r1, r0
    8a5e:	f44f 727a 	mov.w	r2, #1000	; 0x3e8
    8a62:	2300      	movs	r3, #0
    8a64:	4620      	mov	r0, r4
    8a66:	4629      	mov	r1, r5
    8a68:	f7f7 ffe8 	bl	a3c <__aeabi_uldivmod>
	k_sleep(K_MSEC(ms));
}
    8a6c:	e8bd 4038 	ldmia.w	sp!, {r3, r4, r5, lr}
	return z_impl_k_sleep(timeout);
    8a70:	f7fe bbe6 	b.w	7240 <z_impl_k_sleep>

00008a74 <RtcMs2Tick>:

uint32_t RtcMs2Tick(uint32_t milliseconds)
{
	return milliseconds;
}
    8a74:	4770      	bx	lr

00008a76 <RtcTick2Ms>:
    8a76:	4770      	bx	lr

00008a78 <BoardCriticalSectionBegin>:
	__asm__ volatile(
    8a78:	f04f 0220 	mov.w	r2, #32
    8a7c:	f3ef 8311 	mrs	r3, BASEPRI
    8a80:	f382 8811 	msr	BASEPRI, r2
    8a84:	f3bf 8f6f 	isb	sy
	return tick;
}

void BoardCriticalSectionBegin(uint32_t *mask)
{
	*mask = irq_lock();
    8a88:	6003      	str	r3, [r0, #0]
}
    8a8a:	4770      	bx	lr

00008a8c <BoardCriticalSectionEnd>:
	__asm__ volatile(
    8a8c:	6803      	ldr	r3, [r0, #0]
    8a8e:	f383 8811 	msr	BASEPRI, r3
    8a92:	f3bf 8f6f 	isb	sy

void BoardCriticalSectionEnd(uint32_t *mask)
{
	irq_unlock(*mask);
}
    8a96:	4770      	bx	lr

00008a98 <z_impl_gpio_pin_interrupt_configure>:
	if (((flags & GPIO_INT_LEVELS_LOGICAL) != 0) &&
    8a98:	0413      	lsls	r3, r2, #16
{
    8a9a:	b430      	push	{r4, r5}
	const struct gpio_driver_api *api =
    8a9c:	6884      	ldr	r4, [r0, #8]
	if (((flags & GPIO_INT_LEVELS_LOGICAL) != 0) &&
    8a9e:	d507      	bpl.n	8ab0 <z_impl_gpio_pin_interrupt_configure+0x18>
	    ((data->invert & (gpio_port_pins_t)BIT(pin)) != 0)) {
    8aa0:	6905      	ldr	r5, [r0, #16]
    8aa2:	2301      	movs	r3, #1
    8aa4:	682d      	ldr	r5, [r5, #0]
    8aa6:	408b      	lsls	r3, r1
	if (((flags & GPIO_INT_LEVELS_LOGICAL) != 0) &&
    8aa8:	422b      	tst	r3, r5
		flags ^= (GPIO_INT_LOW_0 | GPIO_INT_HIGH_1);
    8aaa:	bf18      	it	ne
    8aac:	f482 22c0 	eorne.w	r2, r2, #393216	; 0x60000
	return api->pin_interrupt_configure(port, pin, mode, trig);
    8ab0:	69a4      	ldr	r4, [r4, #24]
    8ab2:	f402 23c0 	and.w	r3, r2, #393216	; 0x60000
    8ab6:	46a4      	mov	ip, r4
    8ab8:	f402 32b0 	and.w	r2, r2, #90112	; 0x16000
}
    8abc:	bc30      	pop	{r4, r5}
	return api->pin_interrupt_configure(port, pin, mode, trig);
    8abe:	4760      	bx	ip

00008ac0 <SX1276CheckRfFrequency>:
}
    8ac0:	2001      	movs	r0, #1
    8ac2:	4770      	bx	lr

00008ac4 <gpio_pin_set.constprop.0>:
	if (data->invert & (gpio_port_pins_t)BIT(pin)) {
    8ac4:	6903      	ldr	r3, [r0, #16]
    8ac6:	681b      	ldr	r3, [r3, #0]
    8ac8:	05db      	lsls	r3, r3, #23
		value = (value != 0) ? 0 : 1;
    8aca:	bf48      	it	mi
    8acc:	f081 0101 	eormi.w	r1, r1, #1
	if (value != 0)	{
    8ad0:	b121      	cbz	r1, 8adc <gpio_pin_set.constprop.0+0x18>
	return api->port_set_bits_raw(port, pins);
    8ad2:	6883      	ldr	r3, [r0, #8]
    8ad4:	68db      	ldr	r3, [r3, #12]
	return api->port_clear_bits_raw(port, pins);
    8ad6:	f44f 7180 	mov.w	r1, #256	; 0x100
    8ada:	4718      	bx	r3
    8adc:	6883      	ldr	r3, [r0, #8]
    8ade:	691b      	ldr	r3, [r3, #16]
    8ae0:	e7f9      	b.n	8ad6 <gpio_pin_set.constprop.0+0x12>

00008ae2 <SX1276GetBoardTcxoWakeupTime>:
}
    8ae2:	2000      	movs	r0, #0
    8ae4:	4770      	bx	lr

00008ae6 <SX1276SetAntSwLowPower>:
}
    8ae6:	4770      	bx	lr

00008ae8 <SX1276SetBoardTcxo>:
}
    8ae8:	4770      	bx	lr

00008aea <SX1276SetAntSw>:
    8aea:	4770      	bx	lr

00008aec <SX1276Write>:
{
    8aec:	b507      	push	{r0, r1, r2, lr}
    SX1276WriteBuffer( addr, &data, 1 );
    8aee:	2201      	movs	r2, #1
{
    8af0:	f88d 1007 	strb.w	r1, [sp, #7]
    SX1276WriteBuffer( addr, &data, 1 );
    8af4:	f10d 0107 	add.w	r1, sp, #7
    8af8:	f7fc fa92 	bl	5020 <SX1276WriteBuffer>
}
    8afc:	b003      	add	sp, #12
    8afe:	f85d fb04 	ldr.w	pc, [sp], #4

00008b02 <SX1276Read>:
{
    8b02:	b507      	push	{r0, r1, r2, lr}
    SX1276ReadBuffer( addr, &data, 1 );
    8b04:	2201      	movs	r2, #1
    8b06:	f10d 0107 	add.w	r1, sp, #7
    8b0a:	f7fc f9c3 	bl	4e94 <SX1276ReadBuffer>
}
    8b0e:	f89d 0007 	ldrb.w	r0, [sp, #7]
    8b12:	b003      	add	sp, #12
    8b14:	f85d fb04 	ldr.w	pc, [sp], #4

00008b18 <SX1276SetOpMode>:
{
    8b18:	b510      	push	{r4, lr}
    if( opMode == RF_OPMODE_SLEEP )
    8b1a:	4604      	mov	r4, r0
        SX1276SetAntSwLowPower( true );
    8b1c:	2001      	movs	r0, #1
    if( opMode == RF_OPMODE_SLEEP )
    8b1e:	b964      	cbnz	r4, 8b3a <SX1276SetOpMode+0x22>
        SX1276SetAntSwLowPower( true );
    8b20:	f7ff ffe1 	bl	8ae6 <SX1276SetAntSwLowPower>
    SX1276Write( REG_OPMODE, ( SX1276Read( REG_OPMODE ) & RF_OPMODE_MASK ) | opMode );
    8b24:	2001      	movs	r0, #1
    8b26:	f7ff ffec 	bl	8b02 <SX1276Read>
    8b2a:	f000 01f8 	and.w	r1, r0, #248	; 0xf8
    8b2e:	4321      	orrs	r1, r4
    8b30:	2001      	movs	r0, #1
}
    8b32:	e8bd 4010 	ldmia.w	sp!, {r4, lr}
    SX1276Write( REG_OPMODE, ( SX1276Read( REG_OPMODE ) & RF_OPMODE_MASK ) | opMode );
    8b36:	f7ff bfd9 	b.w	8aec <SX1276Write>
        SX1276SetBoardTcxo( true );
    8b3a:	f7ff ffd5 	bl	8ae8 <SX1276SetBoardTcxo>
        SX1276SetAntSwLowPower( false );
    8b3e:	2000      	movs	r0, #0
    8b40:	f7ff ffd1 	bl	8ae6 <SX1276SetAntSwLowPower>
        SX1276SetAntSw( opMode );
    8b44:	4620      	mov	r0, r4
    8b46:	f7ff ffd0 	bl	8aea <SX1276SetAntSw>
    8b4a:	e7eb      	b.n	8b24 <SX1276SetOpMode+0xc>

00008b4c <SX1276IsChannelFree>:
{
    8b4c:	b5f8      	push	{r3, r4, r5, r6, r7, lr}
    8b4e:	4604      	mov	r4, r0
    8b50:	460e      	mov	r6, r1
    8b52:	4617      	mov	r7, r2
    8b54:	461d      	mov	r5, r3
    SX1276SetSleep( );
    8b56:	f7fc fb37 	bl	51c8 <SX1276SetSleep>
    SX1276SetModem( modem );
    8b5a:	4620      	mov	r0, r4
    8b5c:	f7fc fcd0 	bl	5500 <SX1276SetModem>
    SX1276SetChannel( freq );
    8b60:	4630      	mov	r0, r6
    8b62:	f7f8 f8f9 	bl	d58 <SX1276SetChannel>
    SX1276SetOpMode( RF_OPMODE_RECEIVER );
    8b66:	2005      	movs	r0, #5
    8b68:	f7ff ffd6 	bl	8b18 <SX1276SetOpMode>
    DelayMs( 1 );
    8b6c:	2001      	movs	r0, #1
    8b6e:	f000 f887 	bl	8c80 <DelayMs>
    carrierSenseTime = TimerGetCurrentTime( );
    8b72:	f000 f86f 	bl	8c54 <TimerGetCurrentTime>
    8b76:	4606      	mov	r6, r0
    while( TimerGetElapsedTime( carrierSenseTime ) < maxCarrierSenseTime )
    8b78:	4630      	mov	r0, r6
    8b7a:	f000 f872 	bl	8c62 <TimerGetElapsedTime>
    8b7e:	42a8      	cmp	r0, r5
    8b80:	d304      	bcc.n	8b8c <SX1276IsChannelFree+0x40>
    bool status = true;
    8b82:	2401      	movs	r4, #1
    SX1276SetSleep( );
    8b84:	f7fc fb20 	bl	51c8 <SX1276SetSleep>
}
    8b88:	4620      	mov	r0, r4
    8b8a:	bdf8      	pop	{r3, r4, r5, r6, r7, pc}
        rssi = SX1276ReadRssi( modem );
    8b8c:	4620      	mov	r0, r4
    8b8e:	f7fc faf7 	bl	5180 <SX1276ReadRssi>
        if( rssi > rssiThresh )
    8b92:	42b8      	cmp	r0, r7
    8b94:	ddf0      	ble.n	8b78 <SX1276IsChannelFree+0x2c>
            status = false;
    8b96:	2400      	movs	r4, #0
    8b98:	e7f4      	b.n	8b84 <SX1276IsChannelFree+0x38>

00008b9a <SX1276Random>:
{
    8b9a:	b538      	push	{r3, r4, r5, lr}
    SX1276SetModem( MODEM_LORA );
    8b9c:	2001      	movs	r0, #1
    8b9e:	f7fc fcaf 	bl	5500 <SX1276SetModem>
    SX1276Write( REG_LR_IRQFLAGSMASK, RFLR_IRQFLAGS_RXTIMEOUT |
    8ba2:	21ff      	movs	r1, #255	; 0xff
    8ba4:	2011      	movs	r0, #17
    8ba6:	f7ff ffa1 	bl	8aec <SX1276Write>
    SX1276SetOpMode( RF_OPMODE_RECEIVER );
    8baa:	2005      	movs	r0, #5
    8bac:	f7ff ffb4 	bl	8b18 <SX1276SetOpMode>
    8bb0:	2400      	movs	r4, #0
    uint32_t rnd = 0;
    8bb2:	4625      	mov	r5, r4
        DelayMs( 1 );
    8bb4:	2001      	movs	r0, #1
    8bb6:	f000 f863 	bl	8c80 <DelayMs>
        rnd |= ( ( uint32_t )SX1276Read( REG_LR_RSSIWIDEBAND ) & 0x01 ) << i;
    8bba:	202c      	movs	r0, #44	; 0x2c
    8bbc:	f7ff ffa1 	bl	8b02 <SX1276Read>
    8bc0:	f000 0001 	and.w	r0, r0, #1
    8bc4:	40a0      	lsls	r0, r4
    8bc6:	3401      	adds	r4, #1
    for( i = 0; i < 32; i++ )
    8bc8:	2c20      	cmp	r4, #32
        rnd |= ( ( uint32_t )SX1276Read( REG_LR_RSSIWIDEBAND ) & 0x01 ) << i;
    8bca:	ea45 0500 	orr.w	r5, r5, r0
    for( i = 0; i < 32; i++ )
    8bce:	d1f1      	bne.n	8bb4 <SX1276Random+0x1a>
    SX1276SetSleep( );
    8bd0:	f7fc fafa 	bl	51c8 <SX1276SetSleep>
}
    8bd4:	4628      	mov	r0, r5
    8bd6:	bd38      	pop	{r3, r4, r5, pc}

00008bd8 <SX1276WriteFifo>:
{
    8bd8:	460a      	mov	r2, r1
    SX1276WriteBuffer( 0, buffer, size );
    8bda:	4601      	mov	r1, r0
    8bdc:	2000      	movs	r0, #0
    8bde:	f7fc ba1f 	b.w	5020 <SX1276WriteBuffer>

00008be2 <SX1276ReadFifo>:
{
    8be2:	460a      	mov	r2, r1
    SX1276ReadBuffer( 0, buffer, size );
    8be4:	4601      	mov	r1, r0
    8be6:	2000      	movs	r0, #0
    8be8:	f7fc b954 	b.w	4e94 <SX1276ReadBuffer>

00008bec <SX1276GetWakeupTime>:
{
    8bec:	b508      	push	{r3, lr}
    return SX1276GetBoardTcxoWakeupTime( ) + RADIO_WAKEUP_TIME;
    8bee:	f7ff ff78 	bl	8ae2 <SX1276GetBoardTcxoWakeupTime>
}
    8bf2:	3001      	adds	r0, #1
    8bf4:	bd08      	pop	{r3, pc}

00008bf6 <TimerSetTimeout>:
    // Intentional wrap around. Works Ok if tick duration below 1ms
    return RtcTick2Ms( nowInTicks - pastInTicks );
}

static void TimerSetTimeout( TimerEvent_t *obj )
{
    8bf6:	b570      	push	{r4, r5, r6, lr}
    8bf8:	4604      	mov	r4, r0
    int32_t minTicks= RtcGetMinimumTimeout( );
    8bfa:	f7ff ff26 	bl	8a4a <RtcGetMinimumTimeout>
    obj->IsNext2Expire = true;
    8bfe:	2301      	movs	r3, #1
    8c00:	7263      	strb	r3, [r4, #9]

    // In case deadline too soon
    if( obj->Timestamp  < ( RtcGetTimerElapsedTime( ) + minTicks ) )
    8c02:	6826      	ldr	r6, [r4, #0]
    int32_t minTicks= RtcGetMinimumTimeout( );
    8c04:	4605      	mov	r5, r0
    if( obj->Timestamp  < ( RtcGetTimerElapsedTime( ) + minTicks ) )
    8c06:	f7fb fecf 	bl	49a8 <RtcGetTimerElapsedTime>
    8c0a:	4428      	add	r0, r5
    8c0c:	4286      	cmp	r6, r0
    8c0e:	d203      	bcs.n	8c18 <TimerSetTimeout+0x22>
    {
        obj->Timestamp = RtcGetTimerElapsedTime( ) + minTicks;
    8c10:	f7fb feca 	bl	49a8 <RtcGetTimerElapsedTime>
    8c14:	4405      	add	r5, r0
    8c16:	6025      	str	r5, [r4, #0]
    }
    RtcSetAlarm( obj->Timestamp );
    8c18:	6820      	ldr	r0, [r4, #0]
}
    8c1a:	e8bd 4070 	ldmia.w	sp!, {r4, r5, r6, lr}
    RtcSetAlarm( obj->Timestamp );
    8c1e:	f7fb bed3 	b.w	49c8 <RtcSetAlarm>

00008c22 <TimerInit>:
    obj->Timestamp = 0;
    8c22:	2300      	movs	r3, #0
    obj->ReloadValue = 0;
    8c24:	e9c0 3300 	strd	r3, r3, [r0]
    obj->Context = NULL;
    8c28:	e9c0 1303 	strd	r1, r3, [r0, #12]
    obj->IsStarted = false;
    8c2c:	8103      	strh	r3, [r0, #8]
    obj->Next = NULL;
    8c2e:	6143      	str	r3, [r0, #20]
}
    8c30:	4770      	bx	lr

00008c32 <TimerSetValue>:
{
    8c32:	b538      	push	{r3, r4, r5, lr}
    8c34:	4605      	mov	r5, r0
    uint32_t ticks = RtcMs2Tick( value );
    8c36:	4608      	mov	r0, r1
    8c38:	f7ff ff1c 	bl	8a74 <RtcMs2Tick>
    8c3c:	4604      	mov	r4, r0
    TimerStop( obj );
    8c3e:	4628      	mov	r0, r5
    8c40:	f7fd f88e 	bl	5d60 <TimerStop>
    minValue = RtcGetMinimumTimeout( );
    8c44:	f7ff ff01 	bl	8a4a <RtcGetMinimumTimeout>
    if( ticks < minValue )
    8c48:	42a0      	cmp	r0, r4
    8c4a:	bf38      	it	cc
    8c4c:	4620      	movcc	r0, r4
    obj->ReloadValue = ticks;
    8c4e:	e9c5 0000 	strd	r0, r0, [r5]
}
    8c52:	bd38      	pop	{r3, r4, r5, pc}

00008c54 <TimerGetCurrentTime>:
{
    8c54:	b508      	push	{r3, lr}
    uint32_t now = RtcGetTimerValue( );
    8c56:	f7ff fef4 	bl	8a42 <RtcGetTimerValue>
}
    8c5a:	e8bd 4008 	ldmia.w	sp!, {r3, lr}
    return  RtcTick2Ms( now );
    8c5e:	f7ff bf0a 	b.w	8a76 <RtcTick2Ms>

00008c62 <TimerGetElapsedTime>:
{
    8c62:	b538      	push	{r3, r4, r5, lr}
    if ( past == 0 )
    8c64:	4604      	mov	r4, r0
    8c66:	b150      	cbz	r0, 8c7e <TimerGetElapsedTime+0x1c>
    uint32_t nowInTicks = RtcGetTimerValue( );
    8c68:	f7ff feeb 	bl	8a42 <RtcGetTimerValue>
    8c6c:	4605      	mov	r5, r0
    uint32_t pastInTicks = RtcMs2Tick( past );
    8c6e:	4620      	mov	r0, r4
    8c70:	f7ff ff00 	bl	8a74 <RtcMs2Tick>
    return RtcTick2Ms( nowInTicks - pastInTicks );
    8c74:	1a28      	subs	r0, r5, r0
}
    8c76:	e8bd 4038 	ldmia.w	sp!, {r3, r4, r5, lr}
    return RtcTick2Ms( nowInTicks - pastInTicks );
    8c7a:	f7ff befc 	b.w	8a76 <RtcTick2Ms>
}
    8c7e:	bd38      	pop	{r3, r4, r5, pc}

00008c80 <DelayMs>:
    DelayMs( s * 1000.0f );
}

void DelayMs( uint32_t ms )
{
    DelayMsMcu( ms );
    8c80:	f7ff bee5 	b.w	8a4e <DelayMsMcu>

00008c84 <memcpy1>:
    return ( int32_t )rand1( ) % ( max - min + 1 ) + min;
}

void memcpy1( uint8_t *dst, const uint8_t *src, uint16_t size )
{
    while( size-- )
    8c84:	3801      	subs	r0, #1
    8c86:	440a      	add	r2, r1
    8c88:	4291      	cmp	r1, r2
    8c8a:	d100      	bne.n	8c8e <memcpy1+0xa>
    {
        *dst++ = *src++;
    }
}
    8c8c:	4770      	bx	lr
        *dst++ = *src++;
    8c8e:	f811 3b01 	ldrb.w	r3, [r1], #1
    8c92:	f800 3f01 	strb.w	r3, [r0, #1]!
    8c96:	e7f7      	b.n	8c88 <memcpy1+0x4>

00008c98 <uart_nrfx_config_get>:
	*cfg = get_dev_data(dev)->uart_config;
    8c98:	6902      	ldr	r2, [r0, #16]
{
    8c9a:	460b      	mov	r3, r1
	*cfg = get_dev_data(dev)->uart_config;
    8c9c:	e892 0003 	ldmia.w	r2, {r0, r1}
    8ca0:	e883 0003 	stmia.w	r3, {r0, r1}
}
    8ca4:	2000      	movs	r0, #0
    8ca6:	4770      	bx	lr

00008ca8 <nrfx_isr>:
#include <nrfx.h>
#include <kernel.h>

void nrfx_isr(const void *irq_handler)
{
	((nrfx_irq_handler_t)irq_handler)();
    8ca8:	4700      	bx	r0

00008caa <nrfx_busy_wait>:
	z_impl_k_busy_wait(usec_to_wait);
    8caa:	f000 b989 	b.w	8fc0 <z_impl_k_busy_wait>

00008cae <nrfx_clock_enable>:
{
    8cae:	b508      	push	{r3, lr}
    priority = NRFX_CLOCK_DEFAULT_CONFIG_IRQ_PRIORITY;
#else
    #error "This code is not supposed to be compiled when neither POWER nor CLOCK is enabled."
#endif

    if (!NRFX_IRQ_IS_ENABLED(nrfx_get_irq_number(NRF_CLOCK)))
    8cb0:	2000      	movs	r0, #0
    8cb2:	f7fa fe31 	bl	3918 <arch_irq_is_enabled>
    8cb6:	b918      	cbnz	r0, 8cc0 <nrfx_clock_enable+0x12>
}
    8cb8:	e8bd 4008 	ldmia.w	sp!, {r3, lr}
    {
        NRFX_IRQ_PRIORITY_SET(nrfx_get_irq_number(NRF_CLOCK), priority);
        NRFX_IRQ_ENABLE(nrfx_get_irq_number(NRF_CLOCK));
    8cbc:	f7fa be1c 	b.w	38f8 <arch_irq_enable>
    8cc0:	bd08      	pop	{r3, pc}

00008cc2 <nrf_gpio_pin_set>:
{
    8cc2:	b507      	push	{r0, r1, r2, lr}
    8cc4:	9001      	str	r0, [sp, #4]
    NRF_GPIO_Type * reg = nrf_gpio_pin_port_decode(&pin_number);
    8cc6:	a801      	add	r0, sp, #4
    8cc8:	f7fd fbc8 	bl	645c <nrf_gpio_pin_port_decode>
    nrf_gpio_port_out_set(reg, 1UL << pin_number);
    8ccc:	9a01      	ldr	r2, [sp, #4]
    8cce:	2301      	movs	r3, #1
    8cd0:	4093      	lsls	r3, r2
    p_reg->OUTSET = set_mask;
    8cd2:	f8c0 3508 	str.w	r3, [r0, #1288]	; 0x508
}
    8cd6:	b003      	add	sp, #12
    8cd8:	f85d fb04 	ldr.w	pc, [sp], #4

00008cdc <nrf_gpio_pin_clear>:
{
    8cdc:	b507      	push	{r0, r1, r2, lr}
    8cde:	9001      	str	r0, [sp, #4]
    NRF_GPIO_Type * reg = nrf_gpio_pin_port_decode(&pin_number);
    8ce0:	a801      	add	r0, sp, #4
    8ce2:	f7fd fbbb 	bl	645c <nrf_gpio_pin_port_decode>
    nrf_gpio_port_out_clear(reg, 1UL << pin_number);
    8ce6:	9a01      	ldr	r2, [sp, #4]
    8ce8:	2301      	movs	r3, #1
    8cea:	4093      	lsls	r3, r2
    p_reg->OUTCLR = clr_mask;
    8cec:	f8c0 350c 	str.w	r3, [r0, #1292]	; 0x50c
}
    8cf0:	b003      	add	sp, #12
    8cf2:	f85d fb04 	ldr.w	pc, [sp], #4

00008cf6 <transfer_byte>:
{
    8cf6:	b537      	push	{r0, r1, r2, r4, r5, lr}
    return p_reg->RXD;
    8cf8:	f8d0 3518 	ldr.w	r3, [r0, #1304]	; 0x518
    if (p_cb->bytes_transferred < p_cb->evt.xfer_desc.rx_length)
    8cfc:	698a      	ldr	r2, [r1, #24]
    8cfe:	b2db      	uxtb	r3, r3
    volatile uint8_t rx_data = nrf_spi_rxd_get(p_spi);
    8d00:	f88d 3007 	strb.w	r3, [sp, #7]
    if (p_cb->bytes_transferred < p_cb->evt.xfer_desc.rx_length)
    8d04:	6a0b      	ldr	r3, [r1, #32]
    8d06:	4293      	cmp	r3, r2
        p_cb->evt.xfer_desc.p_rx_buffer[p_cb->bytes_transferred] = rx_data;
    8d08:	bf3e      	ittt	cc
    8d0a:	694a      	ldrcc	r2, [r1, #20]
    8d0c:	f89d 4007 	ldrbcc.w	r4, [sp, #7]
    8d10:	54d4      	strbcc	r4, [r2, r3]
    ++p_cb->bytes_transferred;
    8d12:	6a0a      	ldr	r2, [r1, #32]
    if (p_cb->abort)
    8d14:	f891 4024 	ldrb.w	r4, [r1, #36]	; 0x24
    ++p_cb->bytes_transferred;
    8d18:	1c53      	adds	r3, r2, #1
    8d1a:	620b      	str	r3, [r1, #32]
    size_t bytes_used = p_cb->bytes_transferred + 1;
    8d1c:	3202      	adds	r2, #2
    if (p_cb->abort)
    8d1e:	b13c      	cbz	r4, 8d30 <transfer_byte+0x3a>
        if (bytes_used < p_cb->evt.xfer_desc.tx_length)
    8d20:	690c      	ldr	r4, [r1, #16]
    8d22:	42a2      	cmp	r2, r4
        if (bytes_used < p_cb->evt.xfer_desc.rx_length)
    8d24:	698c      	ldr	r4, [r1, #24]
            p_cb->evt.xfer_desc.tx_length = bytes_used;
    8d26:	bf38      	it	cc
    8d28:	610a      	strcc	r2, [r1, #16]
        if (bytes_used < p_cb->evt.xfer_desc.rx_length)
    8d2a:	4294      	cmp	r4, r2
            p_cb->evt.xfer_desc.rx_length = bytes_used;
    8d2c:	bf88      	it	hi
    8d2e:	618a      	strhi	r2, [r1, #24]
    if (bytes_used < p_cb->evt.xfer_desc.tx_length)
    8d30:	690d      	ldr	r5, [r1, #16]
    8d32:	4295      	cmp	r5, r2
    8d34:	d905      	bls.n	8d42 <transfer_byte+0x4c>
        nrf_spi_txd_set(p_spi, p_cb->evt.xfer_desc.p_tx_buffer[bytes_used]);
    8d36:	68cb      	ldr	r3, [r1, #12]
    p_reg->TXD = data;
    8d38:	5c9b      	ldrb	r3, [r3, r2]
    8d3a:	f8c0 351c 	str.w	r3, [r0, #1308]	; 0x51c
    return (p_cb->bytes_transferred < p_cb->evt.xfer_desc.tx_length ||
    8d3e:	2001      	movs	r0, #1
    8d40:	e00a      	b.n	8d58 <transfer_byte+0x62>
    else if (bytes_used < p_cb->evt.xfer_desc.rx_length)
    8d42:	698c      	ldr	r4, [r1, #24]
    8d44:	4294      	cmp	r4, r2
    8d46:	d901      	bls.n	8d4c <transfer_byte+0x56>
    8d48:	7fcb      	ldrb	r3, [r1, #31]
    8d4a:	e7f6      	b.n	8d3a <transfer_byte+0x44>
    return (p_cb->bytes_transferred < p_cb->evt.xfer_desc.tx_length ||
    8d4c:	42ab      	cmp	r3, r5
    8d4e:	d3f6      	bcc.n	8d3e <transfer_byte+0x48>
    8d50:	42a3      	cmp	r3, r4
    8d52:	bf2c      	ite	cs
    8d54:	2000      	movcs	r0, #0
    8d56:	2001      	movcc	r0, #1
}
    8d58:	b003      	add	sp, #12
    8d5a:	bd30      	pop	{r4, r5, pc}

00008d5c <z_device_state_init>:
}
    8d5c:	4770      	bx	lr

00008d5e <z_device_ready>:
	return __device_end - __device_start;
}

bool z_device_ready(const struct device *dev)
{
	return dev->state->initialized && (dev->state->init_res == 0U);
    8d5e:	68c3      	ldr	r3, [r0, #12]
    8d60:	8818      	ldrh	r0, [r3, #0]
    8d62:	f3c0 0008 	ubfx	r0, r0, #0, #9
}
    8d66:	f5a0 7380 	sub.w	r3, r0, #256	; 0x100
    8d6a:	4258      	negs	r0, r3
    8d6c:	4158      	adcs	r0, r3
    8d6e:	4770      	bx	lr

00008d70 <arch_system_halt>:
	__asm__ volatile(
    8d70:	f04f 0220 	mov.w	r2, #32
    8d74:	f3ef 8311 	mrs	r3, BASEPRI
    8d78:	f382 8811 	msr	BASEPRI, r2
    8d7c:	f3bf 8f6f 	isb	sy
	for (;;) {
    8d80:	e7fe      	b.n	8d80 <arch_system_halt+0x10>

00008d82 <z_pm_save_idle_exit>:
{
    8d82:	b508      	push	{r3, lr}
	pm_system_resume();
    8d84:	f7fa f996 	bl	30b4 <pm_system_resume>
}
    8d88:	e8bd 4008 	ldmia.w	sp!, {r3, lr}
	sys_clock_idle_exit();
    8d8c:	f7ff bcd5 	b.w	873a <sys_clock_idle_exit>

00008d90 <k_mem_slab_init>:
{
    8d90:	b530      	push	{r4, r5, lr}
	slab->num_used = 0U;
    8d92:	2400      	movs	r4, #0
    8d94:	6184      	str	r4, [r0, #24]
	CHECKIF(((slab->block_size | (uintptr_t)slab->buffer) &
    8d96:	ea41 0402 	orr.w	r4, r1, r2
    8d9a:	f014 0403 	ands.w	r4, r4, #3
	slab->block_size = block_size;
    8d9e:	e9c0 3202 	strd	r3, r2, [r0, #8]
	slab->buffer = buffer;
    8da2:	6101      	str	r1, [r0, #16]
	CHECKIF(((slab->block_size | (uintptr_t)slab->buffer) &
    8da4:	d10c      	bne.n	8dc0 <k_mem_slab_init+0x30>
	slab->free_list = NULL;
    8da6:	6144      	str	r4, [r0, #20]
	for (j = 0U; j < slab->num_blocks; j++) {
    8da8:	42a3      	cmp	r3, r4
    8daa:	d103      	bne.n	8db4 <k_mem_slab_init+0x24>
	list->tail = (sys_dnode_t *)list;
    8dac:	e9c0 0000 	strd	r0, r0, [r0]
}
    8db0:	2000      	movs	r0, #0
}
    8db2:	bd30      	pop	{r4, r5, pc}
		*(char **)p = slab->free_list;
    8db4:	6945      	ldr	r5, [r0, #20]
    8db6:	600d      	str	r5, [r1, #0]
	for (j = 0U; j < slab->num_blocks; j++) {
    8db8:	3401      	adds	r4, #1
		slab->free_list = p;
    8dba:	6141      	str	r1, [r0, #20]
		p += slab->block_size;
    8dbc:	4411      	add	r1, r2
	for (j = 0U; j < slab->num_blocks; j++) {
    8dbe:	e7f3      	b.n	8da8 <k_mem_slab_init+0x18>
		return -EINVAL;
    8dc0:	f06f 0015 	mvn.w	r0, #21
	return rc;
    8dc4:	e7f5      	b.n	8db2 <k_mem_slab_init+0x22>

00008dc6 <sys_dlist_remove>:
	sys_dnode_t *const next = node->next;
    8dc6:	e9d0 3200 	ldrd	r3, r2, [r0]
	prev->next = next;
    8dca:	6013      	str	r3, [r2, #0]
	next->prev = prev;
    8dcc:	605a      	str	r2, [r3, #4]
	node->next = NULL;
    8dce:	2300      	movs	r3, #0
	node->prev = NULL;
    8dd0:	e9c0 3300 	strd	r3, r3, [r0]
	sys_dnode_init(node);
}
    8dd4:	4770      	bx	lr

00008dd6 <unpend_thread_no_timeout>:
{
    8dd6:	b508      	push	{r3, lr}
	sys_dlist_remove(&thread->base.qnode_dlist);
    8dd8:	f7ff fff5 	bl	8dc6 <sys_dlist_remove>
	thread->base.thread_state &= ~_THREAD_PENDING;
    8ddc:	7b43      	ldrb	r3, [r0, #13]
    8dde:	f023 0302 	bic.w	r3, r3, #2
    8de2:	7343      	strb	r3, [r0, #13]
	thread->base.pended_on = NULL;
    8de4:	2300      	movs	r3, #0
    8de6:	6083      	str	r3, [r0, #8]
}
    8de8:	bd08      	pop	{r3, pc}

00008dea <z_unpend_thread_no_timeout>:
{
    8dea:	b508      	push	{r3, lr}
    8dec:	f04f 0320 	mov.w	r3, #32
    8df0:	f3ef 8111 	mrs	r1, BASEPRI
    8df4:	f383 8811 	msr	BASEPRI, r3
    8df8:	f3bf 8f6f 	isb	sy
		unpend_thread_no_timeout(thread);
    8dfc:	f7ff ffeb 	bl	8dd6 <unpend_thread_no_timeout>
	__asm__ volatile(
    8e00:	f381 8811 	msr	BASEPRI, r1
    8e04:	f3bf 8f6f 	isb	sy
}
    8e08:	bd08      	pop	{r3, pc}

00008e0a <z_reschedule_irqlock>:
	return arch_irq_unlocked(key) && !arch_is_in_isr();
    8e0a:	4603      	mov	r3, r0
    8e0c:	b920      	cbnz	r0, 8e18 <z_reschedule_irqlock+0xe>
  __ASM volatile ("MRS %0, ipsr" : "=r" (result) );
    8e0e:	f3ef 8205 	mrs	r2, IPSR
	if (resched(key)) {
    8e12:	b90a      	cbnz	r2, 8e18 <z_reschedule_irqlock+0xe>
	ret = arch_swap(key);
    8e14:	f7fa bd22 	b.w	385c <arch_swap>
    8e18:	f383 8811 	msr	BASEPRI, r3
    8e1c:	f3bf 8f6f 	isb	sy
}
    8e20:	4770      	bx	lr

00008e22 <z_reschedule_unlocked>:
	__asm__ volatile(
    8e22:	f04f 0320 	mov.w	r3, #32
    8e26:	f3ef 8011 	mrs	r0, BASEPRI
    8e2a:	f383 8811 	msr	BASEPRI, r3
    8e2e:	f3bf 8f6f 	isb	sy
	(void) z_reschedule_irqlock(arch_irq_lock());
    8e32:	f7ff bfea 	b.w	8e0a <z_reschedule_irqlock>

00008e36 <z_priq_dumb_best>:
{
    8e36:	4603      	mov	r3, r0
	return list->head == list;
    8e38:	6800      	ldr	r0, [r0, #0]
	return sys_dlist_is_empty(list) ? NULL : list->head;
    8e3a:	4283      	cmp	r3, r0
    8e3c:	d003      	beq.n	8e46 <z_priq_dumb_best+0x10>
	if (n != NULL) {
    8e3e:	2800      	cmp	r0, #0
    8e40:	bf38      	it	cc
    8e42:	2000      	movcc	r0, #0
    8e44:	4770      	bx	lr
	struct k_thread *thread = NULL;
    8e46:	2000      	movs	r0, #0
}
    8e48:	4770      	bx	lr

00008e4a <add_to_waitq_locked>:
{
    8e4a:	b538      	push	{r3, r4, r5, lr}
    8e4c:	4604      	mov	r4, r0
    8e4e:	460d      	mov	r5, r1
	unready_thread(thread);
    8e50:	f7fd ff9c 	bl	6d8c <unready_thread>
	thread->base.thread_state |= _THREAD_PENDING;
    8e54:	7b63      	ldrb	r3, [r4, #13]
    8e56:	f043 0302 	orr.w	r3, r3, #2
    8e5a:	7363      	strb	r3, [r4, #13]
	if (wait_q != NULL) {
    8e5c:	b1b5      	cbz	r5, 8e8c <add_to_waitq_locked+0x42>
	return list->head == list;
    8e5e:	682b      	ldr	r3, [r5, #0]
		thread->base.pended_on = wait_q;
    8e60:	60a5      	str	r5, [r4, #8]
	return sys_dlist_is_empty(list) ? NULL : list->head;
    8e62:	429d      	cmp	r5, r3
    8e64:	bf08      	it	eq
    8e66:	2300      	moveq	r3, #0
    8e68:	2b00      	cmp	r3, #0
    8e6a:	bf38      	it	cc
    8e6c:	2300      	movcc	r3, #0
	SYS_DLIST_FOR_EACH_CONTAINER(pq, t, base.qnode_dlist) {
    8e6e:	b19b      	cbz	r3, 8e98 <add_to_waitq_locked+0x4e>
	int32_t b1 = thread_1->base.prio;
    8e70:	f994 100e 	ldrsb.w	r1, [r4, #14]
	int32_t b2 = thread_2->base.prio;
    8e74:	f993 200e 	ldrsb.w	r2, [r3, #14]
	if (b1 != b2) {
    8e78:	4291      	cmp	r1, r2
    8e7a:	d008      	beq.n	8e8e <add_to_waitq_locked+0x44>
		return b2 - b1;
    8e7c:	1a52      	subs	r2, r2, r1
		if (z_sched_prio_cmp(thread, t) > 0) {
    8e7e:	2a00      	cmp	r2, #0
    8e80:	dd05      	ble.n	8e8e <add_to_waitq_locked+0x44>
	sys_dnode_t *const prev = successor->prev;
    8e82:	685a      	ldr	r2, [r3, #4]
	node->next = successor;
    8e84:	e9c4 3200 	strd	r3, r2, [r4]
	prev->next = node;
    8e88:	6014      	str	r4, [r2, #0]
	successor->prev = node;
    8e8a:	605c      	str	r4, [r3, #4]
}
    8e8c:	bd38      	pop	{r3, r4, r5, pc}
	return (node == list->tail) ? NULL : node->next;
    8e8e:	686a      	ldr	r2, [r5, #4]
    8e90:	4293      	cmp	r3, r2
    8e92:	d001      	beq.n	8e98 <add_to_waitq_locked+0x4e>
    8e94:	681b      	ldr	r3, [r3, #0]
    8e96:	e7ea      	b.n	8e6e <add_to_waitq_locked+0x24>
	sys_dnode_t *const tail = list->tail;
    8e98:	686b      	ldr	r3, [r5, #4]
	node->prev = tail;
    8e9a:	e9c4 5300 	strd	r5, r3, [r4]
	tail->next = node;
    8e9e:	601c      	str	r4, [r3, #0]
	list->tail = node;
    8ea0:	606c      	str	r4, [r5, #4]
    8ea2:	e7f3      	b.n	8e8c <add_to_waitq_locked+0x42>

00008ea4 <z_ready_thread>:
{
    8ea4:	b510      	push	{r4, lr}
    8ea6:	f04f 0320 	mov.w	r3, #32
    8eaa:	f3ef 8411 	mrs	r4, BASEPRI
    8eae:	f383 8811 	msr	BASEPRI, r3
    8eb2:	f3bf 8f6f 	isb	sy
			ready_thread(thread);
    8eb6:	f7fe f8c3 	bl	7040 <ready_thread>
	__asm__ volatile(
    8eba:	f384 8811 	msr	BASEPRI, r4
    8ebe:	f3bf 8f6f 	isb	sy
}
    8ec2:	bd10      	pop	{r4, pc}

00008ec4 <z_thread_timeout>:
{
    8ec4:	b510      	push	{r4, lr}
    8ec6:	4601      	mov	r1, r0
	__asm__ volatile(
    8ec8:	f04f 0320 	mov.w	r3, #32
    8ecc:	f3ef 8411 	mrs	r4, BASEPRI
    8ed0:	f383 8811 	msr	BASEPRI, r3
    8ed4:	f3bf 8f6f 	isb	sy
		if (!killed) {
    8ed8:	f810 3c0b 	ldrb.w	r3, [r0, #-11]
    8edc:	f013 0f28 	tst.w	r3, #40	; 0x28
    8ee0:	d10d      	bne.n	8efe <z_thread_timeout+0x3a>
			if (thread->base.pended_on != NULL) {
    8ee2:	f851 3c10 	ldr.w	r3, [r1, #-16]
	struct k_thread *thread = CONTAINER_OF(timeout,
    8ee6:	3818      	subs	r0, #24
			if (thread->base.pended_on != NULL) {
    8ee8:	b10b      	cbz	r3, 8eee <z_thread_timeout+0x2a>
				unpend_thread_no_timeout(thread);
    8eea:	f7ff ff74 	bl	8dd6 <unpend_thread_no_timeout>
	thread->base.thread_state &= ~_THREAD_SUSPENDED;
    8eee:	f811 3c0b 	ldrb.w	r3, [r1, #-11]
    8ef2:	f023 0314 	bic.w	r3, r3, #20
    8ef6:	f801 3c0b 	strb.w	r3, [r1, #-11]
			ready_thread(thread);
    8efa:	f7fe f8a1 	bl	7040 <ready_thread>
	__asm__ volatile(
    8efe:	f384 8811 	msr	BASEPRI, r4
    8f02:	f3bf 8f6f 	isb	sy
}
    8f06:	bd10      	pop	{r4, pc}

00008f08 <z_unpend1_no_timeout>:
{
    8f08:	b510      	push	{r4, lr}
	__asm__ volatile(
    8f0a:	f04f 0320 	mov.w	r3, #32
    8f0e:	f3ef 8411 	mrs	r4, BASEPRI
    8f12:	f383 8811 	msr	BASEPRI, r3
    8f16:	f3bf 8f6f 	isb	sy
		thread = _priq_wait_best(&wait_q->waitq);
    8f1a:	f7ff ff8c 	bl	8e36 <z_priq_dumb_best>
		if (thread != NULL) {
    8f1e:	4601      	mov	r1, r0
    8f20:	b108      	cbz	r0, 8f26 <z_unpend1_no_timeout+0x1e>
			unpend_thread_no_timeout(thread);
    8f22:	f7ff ff58 	bl	8dd6 <unpend_thread_no_timeout>
	__asm__ volatile(
    8f26:	f384 8811 	msr	BASEPRI, r4
    8f2a:	f3bf 8f6f 	isb	sy
}
    8f2e:	4608      	mov	r0, r1
    8f30:	bd10      	pop	{r4, pc}

00008f32 <z_unpend_first_thread>:
{
    8f32:	b538      	push	{r3, r4, r5, lr}
	__asm__ volatile(
    8f34:	f04f 0320 	mov.w	r3, #32
    8f38:	f3ef 8511 	mrs	r5, BASEPRI
    8f3c:	f383 8811 	msr	BASEPRI, r3
    8f40:	f3bf 8f6f 	isb	sy
		thread = _priq_wait_best(&wait_q->waitq);
    8f44:	f7ff ff77 	bl	8e36 <z_priq_dumb_best>
		if (thread != NULL) {
    8f48:	4604      	mov	r4, r0
    8f4a:	b120      	cbz	r0, 8f56 <z_unpend_first_thread+0x24>
			unpend_thread_no_timeout(thread);
    8f4c:	f7ff ff43 	bl	8dd6 <unpend_thread_no_timeout>
	return z_abort_timeout(&thread->base.timeout);
    8f50:	3018      	adds	r0, #24
    8f52:	f000 f86d 	bl	9030 <z_abort_timeout>
	__asm__ volatile(
    8f56:	f385 8811 	msr	BASEPRI, r5
    8f5a:	f3bf 8f6f 	isb	sy
}
    8f5e:	4620      	mov	r0, r4
    8f60:	bd38      	pop	{r3, r4, r5, pc}

00008f62 <z_sched_wake>:
{
    8f62:	b538      	push	{r3, r4, r5, lr}
	__asm__ volatile(
    8f64:	f04f 0320 	mov.w	r3, #32
    8f68:	f3ef 8511 	mrs	r5, BASEPRI
    8f6c:	f383 8811 	msr	BASEPRI, r3
    8f70:	f3bf 8f6f 	isb	sy
		thread = _priq_wait_best(&wait_q->waitq);
    8f74:	f7ff ff5f 	bl	8e36 <z_priq_dumb_best>
		if (thread != NULL) {
    8f78:	4604      	mov	r4, r0
    8f7a:	b150      	cbz	r0, 8f92 <z_sched_wake+0x30>
    8f7c:	6781      	str	r1, [r0, #120]	; 0x78
    8f7e:	6142      	str	r2, [r0, #20]
			unpend_thread_no_timeout(thread);
    8f80:	f7ff ff29 	bl	8dd6 <unpend_thread_no_timeout>
    8f84:	3018      	adds	r0, #24
    8f86:	f000 f853 	bl	9030 <z_abort_timeout>
			ready_thread(thread);
    8f8a:	4620      	mov	r0, r4
    8f8c:	f7fe f858 	bl	7040 <ready_thread>
			ret = true;
    8f90:	2001      	movs	r0, #1
	__asm__ volatile(
    8f92:	f385 8811 	msr	BASEPRI, r5
    8f96:	f3bf 8f6f 	isb	sy
}
    8f9a:	bd38      	pop	{r3, r4, r5, pc}

00008f9c <z_impl_k_sem_init>:
	CHECKIF(limit == 0U || limit > K_SEM_MAX_LIMIT || initial_count > limit) {
    8f9c:	b13a      	cbz	r2, 8fae <z_impl_k_sem_init+0x12>
    8f9e:	428a      	cmp	r2, r1
    8fa0:	d305      	bcc.n	8fae <z_impl_k_sem_init+0x12>
	sem->limit = limit;
    8fa2:	e9c0 1202 	strd	r1, r2, [r0, #8]
	list->tail = (sys_dnode_t *)list;
    8fa6:	e9c0 0000 	strd	r0, r0, [r0]
	return 0;
    8faa:	2000      	movs	r0, #0
    8fac:	4770      	bx	lr
		return -EINVAL;
    8fae:	f06f 0015 	mvn.w	r0, #21
}
    8fb2:	4770      	bx	lr

00008fb4 <k_is_in_isr>:
    8fb4:	f3ef 8005 	mrs	r0, IPSR
}
    8fb8:	3800      	subs	r0, #0
    8fba:	bf18      	it	ne
    8fbc:	2001      	movne	r0, #1
    8fbe:	4770      	bx	lr

00008fc0 <z_impl_k_busy_wait>:
	if (usec_to_wait == 0U) {
    8fc0:	b108      	cbz	r0, 8fc6 <z_impl_k_busy_wait+0x6>
	arch_busy_wait(usec_to_wait);
    8fc2:	f7fb b8cb 	b.w	415c <arch_busy_wait>
}
    8fc6:	4770      	bx	lr

00008fc8 <z_impl_k_thread_name_set>:
}
    8fc8:	f06f 0057 	mvn.w	r0, #87	; 0x57
    8fcc:	4770      	bx	lr

00008fce <k_thread_name_get>:
}
    8fce:	2000      	movs	r0, #0
    8fd0:	4770      	bx	lr

00008fd2 <z_impl_k_thread_start>:
	z_sched_start(thread);
    8fd2:	f7fe b86d 	b.w	70b0 <z_sched_start>

00008fd6 <notify_queue_locked>:
	if (queue != NULL) {
    8fd6:	b120      	cbz	r0, 8fe2 <notify_queue_locked+0xc>
		rv = z_sched_wake(&queue->notifyq, 0, NULL);
    8fd8:	2200      	movs	r2, #0
    8fda:	4611      	mov	r1, r2
    8fdc:	3088      	adds	r0, #136	; 0x88
    8fde:	f7ff bfc0 	b.w	8f62 <z_sched_wake>
}
    8fe2:	4770      	bx	lr

00008fe4 <k_work_init>:
{
    8fe4:	b538      	push	{r3, r4, r5, lr}
    8fe6:	4604      	mov	r4, r0
    8fe8:	460d      	mov	r5, r1
	*work = (struct k_work)Z_WORK_INITIALIZER(handler);
    8fea:	2210      	movs	r2, #16
    8fec:	2100      	movs	r1, #0
    8fee:	f000 f89d 	bl	912c <memset>
    8ff2:	6065      	str	r5, [r4, #4]
}
    8ff4:	bd38      	pop	{r3, r4, r5, pc}

00008ff6 <k_work_submit_to_queue>:
{
    8ff6:	b537      	push	{r0, r1, r2, r4, r5, lr}
    8ff8:	9001      	str	r0, [sp, #4]
    8ffa:	4608      	mov	r0, r1
	__asm__ volatile(
    8ffc:	f04f 0320 	mov.w	r3, #32
    9000:	f3ef 8511 	mrs	r5, BASEPRI
    9004:	f383 8811 	msr	BASEPRI, r3
    9008:	f3bf 8f6f 	isb	sy
	int ret = submit_to_queue_locked(work, &queue);
    900c:	a901      	add	r1, sp, #4
    900e:	f7fe fad1 	bl	75b4 <submit_to_queue_locked>
    9012:	4604      	mov	r4, r0
	__asm__ volatile(
    9014:	f385 8811 	msr	BASEPRI, r5
    9018:	f3bf 8f6f 	isb	sy
	if ((ret > 0) && (k_is_preempt_thread() != 0)) {
    901c:	2800      	cmp	r0, #0
    901e:	dd04      	ble.n	902a <k_work_submit_to_queue+0x34>
	return z_impl_k_is_preempt_thread();
    9020:	f7fe f936 	bl	7290 <z_impl_k_is_preempt_thread>
    9024:	b108      	cbz	r0, 902a <k_work_submit_to_queue+0x34>
	z_impl_k_yield();
    9026:	f7fe f8b9 	bl	719c <z_impl_k_yield>
}
    902a:	4620      	mov	r0, r4
    902c:	b003      	add	sp, #12
    902e:	bd30      	pop	{r4, r5, pc}

00009030 <z_abort_timeout>:
{
    9030:	b510      	push	{r4, lr}
	__asm__ volatile(
    9032:	f04f 0220 	mov.w	r2, #32
    9036:	f3ef 8411 	mrs	r4, BASEPRI
    903a:	f382 8811 	msr	BASEPRI, r2
    903e:	f3bf 8f6f 	isb	sy
		if (sys_dnode_is_linked(&to->node)) {
    9042:	6803      	ldr	r3, [r0, #0]
    9044:	b13b      	cbz	r3, 9056 <z_abort_timeout+0x26>
			remove_timeout(to);
    9046:	f7fe fc37 	bl	78b8 <remove_timeout>
			ret = 0;
    904a:	2000      	movs	r0, #0
	__asm__ volatile(
    904c:	f384 8811 	msr	BASEPRI, r4
    9050:	f3bf 8f6f 	isb	sy
}
    9054:	bd10      	pop	{r4, pc}
	int ret = -EINVAL;
    9056:	f06f 0015 	mvn.w	r0, #21
    905a:	e7f7      	b.n	904c <z_abort_timeout+0x1c>

0000905c <z_get_next_timeout_expiry>:
{
    905c:	b510      	push	{r4, lr}
	__asm__ volatile(
    905e:	f04f 0320 	mov.w	r3, #32
    9062:	f3ef 8411 	mrs	r4, BASEPRI
    9066:	f383 8811 	msr	BASEPRI, r3
    906a:	f3bf 8f6f 	isb	sy
		ret = next_timeout();
    906e:	f7fe fc3d 	bl	78ec <next_timeout>
	__asm__ volatile(
    9072:	f384 8811 	msr	BASEPRI, r4
    9076:	f3bf 8f6f 	isb	sy
}
    907a:	bd10      	pop	{r4, pc}

0000907c <z_set_timeout_expiry>:
{
    907c:	b570      	push	{r4, r5, r6, lr}
    907e:	4604      	mov	r4, r0
    9080:	460d      	mov	r5, r1
	__asm__ volatile(
    9082:	f04f 0320 	mov.w	r3, #32
    9086:	f3ef 8611 	mrs	r6, BASEPRI
    908a:	f383 8811 	msr	BASEPRI, r3
    908e:	f3bf 8f6f 	isb	sy
		int next_to = next_timeout();
    9092:	f7fe fc2b 	bl	78ec <next_timeout>
		if (!imminent && (sooner || IS_ENABLED(CONFIG_SMP))) {
    9096:	2801      	cmp	r0, #1
    9098:	dd05      	ble.n	90a6 <z_set_timeout_expiry+0x2a>
    909a:	42a0      	cmp	r0, r4
    909c:	db03      	blt.n	90a6 <z_set_timeout_expiry+0x2a>
			sys_clock_set_timeout(MIN(ticks, next_to), is_idle);
    909e:	4629      	mov	r1, r5
    90a0:	4620      	mov	r0, r4
    90a2:	f7fa fabb 	bl	361c <sys_clock_set_timeout>
	__asm__ volatile(
    90a6:	f386 8811 	msr	BASEPRI, r6
    90aa:	f3bf 8f6f 	isb	sy
}
    90ae:	bd70      	pop	{r4, r5, r6, pc}

000090b0 <sys_clock_tick_get_32>:

uint32_t sys_clock_tick_get_32(void)
{
    90b0:	b508      	push	{r3, lr}
#ifdef CONFIG_TICKLESS_KERNEL
	return (uint32_t)sys_clock_tick_get();
    90b2:	f7fe fd43 	bl	7b3c <sys_clock_tick_get>
#else
	return (uint32_t)curr_tick;
#endif
}
    90b6:	bd08      	pop	{r3, pc}

000090b8 <z_impl_k_uptime_ticks>:

int64_t z_impl_k_uptime_ticks(void)
{
	return sys_clock_tick_get();
    90b8:	f7fe bd40 	b.w	7b3c <sys_clock_tick_get>

000090bc <k_timer_init>:
	timer->status = 0U;
    90bc:	2300      	movs	r3, #0
	timer->stop_fn = stop_fn;
    90be:	e9c0 1208 	strd	r1, r2, [r0, #32]
	sys_dlist_init(&w->waitq);
    90c2:	f100 0218 	add.w	r2, r0, #24
    90c6:	e9c0 2206 	strd	r2, r2, [r0, #24]
	node->prev = NULL;
    90ca:	e9c0 3300 	strd	r3, r3, [r0]
	timer->status = 0U;
    90ce:	6303      	str	r3, [r0, #48]	; 0x30
	timer->user_data = NULL;
    90d0:	6343      	str	r3, [r0, #52]	; 0x34
}
    90d2:	4770      	bx	lr

000090d4 <z_impl_k_timer_stop>:
}
#include <syscalls/k_timer_start_mrsh.c>
#endif

void z_impl_k_timer_stop(struct k_timer *timer)
{
    90d4:	b510      	push	{r4, lr}
    90d6:	4604      	mov	r4, r0
	int inactive = z_abort_timeout(&timer->timeout) != 0;
    90d8:	f7ff ffaa 	bl	9030 <z_abort_timeout>

	if (inactive) {
    90dc:	b9b0      	cbnz	r0, 910c <z_impl_k_timer_stop+0x38>
		return;
	}

	if (timer->stop_fn != NULL) {
    90de:	6a63      	ldr	r3, [r4, #36]	; 0x24
    90e0:	b10b      	cbz	r3, 90e6 <z_impl_k_timer_stop+0x12>
		timer->stop_fn(timer);
    90e2:	4620      	mov	r0, r4
    90e4:	4798      	blx	r3
	}

	struct k_thread *pending_thread = z_unpend1_no_timeout(&timer->wait_q);
    90e6:	f104 0018 	add.w	r0, r4, #24
    90ea:	f7ff ff0d 	bl	8f08 <z_unpend1_no_timeout>

	if (pending_thread != NULL) {
    90ee:	b168      	cbz	r0, 910c <z_impl_k_timer_stop+0x38>
		z_ready_thread(pending_thread);
    90f0:	f7ff fed8 	bl	8ea4 <z_ready_thread>
	__asm__ volatile(
    90f4:	f04f 0320 	mov.w	r3, #32
    90f8:	f3ef 8011 	mrs	r0, BASEPRI
    90fc:	f383 8811 	msr	BASEPRI, r3
    9100:	f3bf 8f6f 	isb	sy
		z_reschedule_unlocked();
	}
}
    9104:	e8bd 4010 	ldmia.w	sp!, {r4, lr}
	(void) z_reschedule_irqlock(arch_irq_lock());
    9108:	f7ff be7f 	b.w	8e0a <z_reschedule_irqlock>
    910c:	bd10      	pop	{r4, pc}

0000910e <_OffsetAbsSyms>:

#include <gen_offset.h>

#include "offsets_aarch32.c"

GEN_ABS_SYM_END
    910e:	4770      	bx	lr

00009110 <memcpy>:
    9110:	440a      	add	r2, r1
    9112:	4291      	cmp	r1, r2
    9114:	f100 33ff 	add.w	r3, r0, #4294967295	; 0xffffffff
    9118:	d100      	bne.n	911c <memcpy+0xc>
    911a:	4770      	bx	lr
    911c:	b510      	push	{r4, lr}
    911e:	f811 4b01 	ldrb.w	r4, [r1], #1
    9122:	f803 4f01 	strb.w	r4, [r3, #1]!
    9126:	4291      	cmp	r1, r2
    9128:	d1f9      	bne.n	911e <memcpy+0xe>
    912a:	bd10      	pop	{r4, pc}

0000912c <memset>:
    912c:	4402      	add	r2, r0
    912e:	4603      	mov	r3, r0
    9130:	4293      	cmp	r3, r2
    9132:	d100      	bne.n	9136 <memset+0xa>
    9134:	4770      	bx	lr
    9136:	f803 1b01 	strb.w	r1, [r3], #1
    913a:	e7f9      	b.n	9130 <memset+0x4>

0000913c <strcpy>:
    913c:	4603      	mov	r3, r0
    913e:	f811 2b01 	ldrb.w	r2, [r1], #1
    9142:	f803 2b01 	strb.w	r2, [r3], #1
    9146:	2a00      	cmp	r2, #0
    9148:	d1f9      	bne.n	913e <strcpy+0x2>
    914a:	4770      	bx	lr

0000914c <strncpy>:
    914c:	b510      	push	{r4, lr}
    914e:	3901      	subs	r1, #1
    9150:	4603      	mov	r3, r0
    9152:	b132      	cbz	r2, 9162 <strncpy+0x16>
    9154:	f811 4f01 	ldrb.w	r4, [r1, #1]!
    9158:	f803 4b01 	strb.w	r4, [r3], #1
    915c:	3a01      	subs	r2, #1
    915e:	2c00      	cmp	r4, #0
    9160:	d1f7      	bne.n	9152 <strncpy+0x6>
    9162:	441a      	add	r2, r3
    9164:	2100      	movs	r1, #0
    9166:	4293      	cmp	r3, r2
    9168:	d100      	bne.n	916c <strncpy+0x20>
    916a:	bd10      	pop	{r4, pc}
    916c:	f803 1b01 	strb.w	r1, [r3], #1
    9170:	e7f9      	b.n	9166 <strncpy+0x1a>

00009172 <strnlen>:
    9172:	b510      	push	{r4, lr}
    9174:	4602      	mov	r2, r0
    9176:	4401      	add	r1, r0
    9178:	428a      	cmp	r2, r1
    917a:	4613      	mov	r3, r2
    917c:	d101      	bne.n	9182 <strnlen+0x10>
    917e:	1a18      	subs	r0, r3, r0
    9180:	bd10      	pop	{r4, pc}
    9182:	781c      	ldrb	r4, [r3, #0]
    9184:	3201      	adds	r2, #1
    9186:	2c00      	cmp	r4, #0
    9188:	d1f6      	bne.n	9178 <strnlen+0x6>
    918a:	e7f8      	b.n	917e <strnlen+0xc>
